ARM GAS  /tmp/cc4JRqJJ.s 			page 1


   1              		.syntax unified
   2              		.cpu cortex-m4
   3              		.fpu softvfp
   4              		.eabi_attribute 20, 1
   5              		.eabi_attribute 21, 1
   6              		.eabi_attribute 23, 3
   7              		.eabi_attribute 24, 1
   8              		.eabi_attribute 25, 1
   9              		.eabi_attribute 26, 1
  10              		.eabi_attribute 30, 2
  11              		.eabi_attribute 34, 1
  12              		.eabi_attribute 18, 4
  13              		.thumb
  14              		.file	"chcore_v7m.c"
  15              		.text
  16              	.Ltext0:
  17              		.cfi_sections	.debug_frame
  18              		.section	.text._port_switch_from_isr,"ax",%progbits
  19              		.align	2
  20              		.p2align 4,,15
  21              		.global	_port_switch_from_isr
  22              		.thumb
  23              		.thumb_func
  24              		.type	_port_switch_from_isr, %function
  25              	_port_switch_from_isr:
  26              	.LFB122:
  27              		.file 1 "../../os/ports/GCC/ARMCMx/chcore_v7m.c"
  28              		.loc 1 200 0
  29              		.cfi_startproc
  30              		@ Naked Function: prologue and epilogue provided by programmer.
  31              		@ args = 0, pretend = 0, frame = 0
  32              		@ frame_needed = 0, uses_anonymous_args = 0
  33              		.loc 1 203 0
  34 0000 FFF7FEFF 		bl	chSchDoReschedule
  35              	.LVL0:
  36              		.loc 1 205 0
  37              	@ 205 "../../os/ports/GCC/ARMCMx/chcore_v7m.c" 1
  38              		_port_exit_from_isr:
  39              	@ 0 "" 2
  40              		.loc 1 207 0
  41              	@ 207 "../../os/ports/GCC/ARMCMx/chcore_v7m.c" 1
  42 0004 00DF     		svc     #0
  43              	@ 0 "" 2
  44              		.loc 1 214 0
  45              		.thumb
  46              		.cfi_endproc
  47              	.LFE122:
  48              		.size	_port_switch_from_isr, .-_port_switch_from_isr
  49 0006 00BFAFF3 		.section	.text.SVCallVector,"ax",%progbits
  49      0080AFF3 
  49      0080
  50              		.align	2
  51              		.p2align 4,,15
  52              		.global	SVCallVector
  53              		.thumb
  54              		.thumb_func
  55              		.type	SVCallVector, %function
ARM GAS  /tmp/cc4JRqJJ.s 			page 2


  56              	SVCallVector:
  57              	.LFB119:
  58              		.loc 1 65 0
  59              		.cfi_startproc
  60              		@ args = 0, pretend = 0, frame = 0
  61              		@ frame_needed = 0, uses_anonymous_args = 0
  62              		@ link register save eliminated.
  63              		.loc 1 74 0
  64              	@ 74 "../../os/ports/GCC/ARMCMx/chcore_v7m.c" 1
  65 0000 EFF30983 		mrs     r3, PSP
  66              	@ 0 "" 2
  67              	.LVL1:
  68              		.loc 1 78 0
  69              		.thumb
  70 0004 2033     		adds	r3, r3, #32
  71              	.LVL2:
  72              		.loc 1 81 0
  73              	@ 81 "../../os/ports/GCC/ARMCMx/chcore_v7m.c" 1
  74 0006 83F30988 		msr     PSP, r3
  75              	@ 0 "" 2
  76              		.thumb
  77              	.LBB2:
  78              		.loc 1 82 0
  79 000a 0023     		movs	r3, #0
  80              	.LVL3:
  81              	@ 82 "../../os/ports/GCC/ARMCMx/chcore_v7m.c" 1
  82 000c 83F31188 		msr     BASEPRI, r3
  83              	@ 0 "" 2
  84              		.thumb
  85 0010 7047     		bx	lr
  86              	.LBE2:
  87              		.cfi_endproc
  88              	.LFE119:
  89              		.size	SVCallVector, .-SVCallVector
  90 0012 00BFAFF3 		.section	.text._port_init,"ax",%progbits
  90      0080AFF3 
  90      0080AFF3 
  90      0080
  91              		.align	2
  92              		.p2align 4,,15
  93              		.global	_port_init
  94              		.thumb
  95              		.thumb_func
  96              		.type	_port_init, %function
  97              	_port_init:
  98              	.LFB120:
  99              		.loc 1 120 0
 100              		.cfi_startproc
 101              		@ args = 0, pretend = 0, frame = 0
 102              		@ frame_needed = 0, uses_anonymous_args = 0
 103 0000 08B5     		push	{r3, lr}
 104              		.cfi_def_cfa_offset 8
 105              		.cfi_offset 3, -8
 106              		.cfi_offset 14, -4
 107              		.loc 1 123 0
 108 0002 094B     		ldr	r3, .L4
 109              		.loc 1 124 0
ARM GAS  /tmp/cc4JRqJJ.s 			page 3


 110 0004 094A     		ldr	r2, .L4+4
 111              		.loc 1 123 0
 112 0006 0021     		movs	r1, #0
 113 0008 9960     		str	r1, [r3, #8]
 114              		.loc 1 127 0
 115 000a 0720     		movs	r0, #7
 116              		.loc 1 124 0
 117 000c DA60     		str	r2, [r3, #12]
 118              		.loc 1 127 0
 119 000e 2021     		movs	r1, #32
 120 0010 FFF7FEFF 		bl	nvicSetSystemHandlerPriority
 121              	.LVL4:
 122              		.loc 1 129 0
 123 0014 0A20     		movs	r0, #10
 124 0016 4021     		movs	r1, #64
 125 0018 FFF7FEFF 		bl	nvicSetSystemHandlerPriority
 126              	.LVL5:
 127              		.loc 1 131 0
 128 001c 0B20     		movs	r0, #11
 129 001e 8021     		movs	r1, #128
 130              		.loc 1 133 0
 131 0020 BDE80840 		pop	{r3, lr}
 132              		.loc 1 131 0
 133 0024 FFF7FEBF 		b	nvicSetSystemHandlerPriority
 134              	.LVL6:
 135              	.L5:
 136              		.align	2
 137              	.L4:
 138 0028 00ED00E0 		.word	-536810240
 139 002c 0004FA05 		.word	100271104
 140              		.cfi_endproc
 141              	.LFE120:
 142              		.size	_port_init, .-_port_init
 143              		.section	.text._port_irq_epilogue,"ax",%progbits
 144              		.align	2
 145              		.p2align 4,,15
 146              		.global	_port_irq_epilogue
 147              		.thumb
 148              		.thumb_func
 149              		.type	_port_irq_epilogue, %function
 150              	_port_irq_epilogue:
 151              	.LFB121:
 152              		.loc 1 150 0
 153              		.cfi_startproc
 154              		@ args = 0, pretend = 0, frame = 0
 155              		@ frame_needed = 0, uses_anonymous_args = 0
 156              		@ link register save eliminated.
 157              	.LBB3:
 158              		.loc 1 152 0
 159 0000 4023     		movs	r3, #64
 160              	@ 152 "../../os/ports/GCC/ARMCMx/chcore_v7m.c" 1
 161 0002 83F31188 		msr     BASEPRI, r3
 162              	@ 0 "" 2
 163              		.thumb
 164              	.LBE3:
 165              		.loc 1 153 0
 166 0006 0F4B     		ldr	r3, .L11
ARM GAS  /tmp/cc4JRqJJ.s 			page 4


 167 0008 5B68     		ldr	r3, [r3, #4]
 168 000a 13F40063 		ands	r3, r3, #2048
 169 000e 15D0     		beq	.L7
 170              	.LBB4:
 171              		.loc 1 163 0
 172              	@ 163 "../../os/ports/GCC/ARMCMx/chcore_v7m.c" 1
 173 0010 EFF30983 		mrs     r3, PSP
 174              	@ 0 "" 2
 175              	.LVL7:
 176              		.loc 1 168 0
 177              		.thumb
 178 0014 4FF08072 		mov	r2, #16777216
 179 0018 43F8042C 		str	r2, [r3, #-4]
 180              		.loc 1 167 0
 181 001c A3F12002 		sub	r2, r3, #32
 182              	.LVL8:
 183              		.loc 1 172 0
 184              	@ 172 "../../os/ports/GCC/ARMCMx/chcore_v7m.c" 1
 185 0020 82F30988 		msr     PSP, r2
 186              	@ 0 "" 2
 187              		.loc 1 176 0
 188              		.thumb
 189 0024 084A     		ldr	r2, .L11+4
 190              	.LVL9:
 191 0026 1168     		ldr	r1, [r2]
 192 0028 9269     		ldr	r2, [r2, #24]
 193 002a 8968     		ldr	r1, [r1, #8]
 194 002c 9268     		ldr	r2, [r2, #8]
 195 002e 9142     		cmp	r1, r2
 196              		.loc 1 178 0
 197 0030 8CBF     		ite	hi
 198 0032 064A     		ldrhi	r2, .L11+8
 199              		.loc 1 183 0
 200 0034 064A     		ldrls	r2, .L11+12
 201 0036 43F8082C 		str	r2, [r3, #-8]
 202 003a 7047     		bx	lr
 203              	.LVL10:
 204              	.L7:
 205              	.LBE4:
 206              	.LBB5:
 207              		.loc 1 190 0
 208              	@ 190 "../../os/ports/GCC/ARMCMx/chcore_v7m.c" 1
 209 003c 83F31188 		msr     BASEPRI, r3
 210              	@ 0 "" 2
 211              		.thumb
 212 0040 7047     		bx	lr
 213              	.L12:
 214 0042 00BF     		.align	2
 215              	.L11:
 216 0044 00ED00E0 		.word	-536810240
 217 0048 00000000 		.word	rlist
 218 004c 00000000 		.word	_port_switch_from_isr
 219 0050 04000000 		.word	_port_exit_from_isr
 220              	.LBE5:
 221              		.cfi_endproc
 222              	.LFE121:
 223              		.size	_port_irq_epilogue, .-_port_irq_epilogue
ARM GAS  /tmp/cc4JRqJJ.s 			page 5


 224 0054 AFF30080 		.section	.text.SysTickVector,"ax",%progbits
 224      AFF30080 
 224      AFF30080 
 225              		.align	2
 226              		.p2align 4,,15
 227              		.global	SysTickVector
 228              		.thumb
 229              		.thumb_func
 230              		.type	SysTickVector, %function
 231              	SysTickVector:
 232              	.LFB118:
 233              		.loc 1 47 0
 234              		.cfi_startproc
 235              		@ args = 0, pretend = 0, frame = 0
 236              		@ frame_needed = 0, uses_anonymous_args = 0
 237 0000 08B5     		push	{r3, lr}
 238              		.cfi_def_cfa_offset 8
 239              		.cfi_offset 3, -8
 240              		.cfi_offset 14, -4
 241              	.LBB6:
 242              		.loc 1 51 0
 243 0002 4023     		movs	r3, #64
 244              	@ 51 "../../os/ports/GCC/ARMCMx/chcore_v7m.c" 1
 245 0004 83F31188 		msr     BASEPRI, r3
 246              	@ 0 "" 2
 247              		.thumb
 248              	.LBE6:
 249              		.loc 1 52 0
 250 0008 FFF7FEFF 		bl	chSysTimerHandlerI
 251              	.LVL11:
 252              	.LBB7:
 253              		.loc 1 53 0
 254 000c 0023     		movs	r3, #0
 255              	@ 53 "../../os/ports/GCC/ARMCMx/chcore_v7m.c" 1
 256 000e 83F31188 		msr     BASEPRI, r3
 257              	@ 0 "" 2
 258              		.thumb
 259              	.LBE7:
 260              		.loc 1 56 0
 261 0012 BDE80840 		pop	{r3, lr}
 262              		.loc 1 55 0
 263 0016 FFF7FEBF 		b	_port_irq_epilogue
 264              	.LVL12:
 265              		.cfi_endproc
 266              	.LFE118:
 267              		.size	SysTickVector, .-SysTickVector
 268 001a 00BFAFF3 		.section	.text._port_switch,"ax",%progbits
 268      0080
 269              		.align	2
 270              		.p2align 4,,15
 271              		.global	_port_switch
 272              		.thumb
 273              		.thumb_func
 274              		.type	_port_switch, %function
 275              	_port_switch:
 276              	.LFB123:
 277              		.loc 1 229 0
ARM GAS  /tmp/cc4JRqJJ.s 			page 6


 278              		.cfi_startproc
 279              		@ Naked Function: prologue and epilogue provided by programmer.
 280              		@ args = 0, pretend = 0, frame = 0
 281              		@ frame_needed = 0, uses_anonymous_args = 0
 282              	.LVL13:
 283              		.loc 1 231 0
 284              	@ 231 "../../os/ports/GCC/ARMCMx/chcore_v7m.c" 1
 285 0000 2DE9F04F 		push    {r4, r5, r6, r7, r8, r9, r10, r11, lr}
 286              	@ 0 "" 2
 287              		.loc 1 237 0
 288              	@ 237 "../../os/ports/GCC/ARMCMx/chcore_v7m.c" 1
 289 0004 C1F80CD0 		str     sp, [r1, #12]                          
 290 0008 D0F80CD0 		ldr     sp, [r0, #12]
 291              	@ 0 "" 2
 292              		.loc 1 243 0
 293              	@ 243 "../../os/ports/GCC/ARMCMx/chcore_v7m.c" 1
 294 000c BDE8F08F 		pop     {r4, r5, r6, r7, r8, r9, r10, r11, pc}
 295              	@ 0 "" 2
 296              		.loc 1 245 0
 297              		.thumb
 298              		.cfi_endproc
 299              	.LFE123:
 300              		.size	_port_switch, .-_port_switch
 301              		.section	.text._port_thread_start,"ax",%progbits
 302              		.align	2
 303              		.p2align 4,,15
 304              		.global	_port_thread_start
 305              		.thumb
 306              		.thumb_func
 307              		.type	_port_thread_start, %function
 308              	_port_thread_start:
 309              	.LFB124:
 310              		.loc 1 252 0
 311              		.cfi_startproc
 312              		@ args = 0, pretend = 0, frame = 0
 313              		@ frame_needed = 0, uses_anonymous_args = 0
 314              		@ link register save eliminated.
 315              	.LBB8:
 316              		.loc 1 254 0
 317 0000 0023     		movs	r3, #0
 318              	@ 254 "../../os/ports/GCC/ARMCMx/chcore_v7m.c" 1
 319 0002 83F31188 		msr     BASEPRI, r3
 320              	@ 0 "" 2
 321              		.thumb
 322              	.LBE8:
 323              		.loc 1 255 0
 324              	@ 255 "../../os/ports/GCC/ARMCMx/chcore_v7m.c" 1
 325 0006 2846     		mov     r0, r5                                 
 326 0008 A047     		blx     r4                                     
 327 000a FFF7FEFF 		bl      chThdExit
 328              	@ 0 "" 2
 329              		.thumb
 330 000e 7047     		bx	lr
 331              		.cfi_endproc
 332              	.LFE124:
 333              		.size	_port_thread_start, .-_port_thread_start
 334              		.text
ARM GAS  /tmp/cc4JRqJJ.s 			page 7


 335              	.Letext0:
 336              		.file 2 "/usr/include/newlib/machine/_default_types.h"
 337              		.file 3 "/usr/include/newlib/stdint.h"
 338              		.file 4 "../../os/ports/GCC/ARMCMx/chtypes.h"
 339              		.file 5 "../../os/kernel/include/chlists.h"
 340              		.file 6 "../../os/kernel/include/chthreads.h"
 341              		.file 7 "../../os/ports/GCC/ARMCMx/chcore_v7m.h"
 342              		.file 8 "../../os/ports/common/ARMCMx/nvic.h"
 343              		.file 9 "../../os/kernel/include/chschd.h"
 344              		.file 10 "../../os/kernel/include/chmtx.h"
 345              		.file 11 "../../os/ports/common/ARMCMx/CMSIS/include/core_cm4.h"
 346              		.file 12 "../../os/kernel/include/chsys.h"