ARM GAS  /tmp/cce7nfL2.s 			page 1


   1              		.syntax unified
   2              		.cpu cortex-m4
   3              		.fpu softvfp
   4              		.eabi_attribute 20, 1
   5              		.eabi_attribute 21, 1
   6              		.eabi_attribute 23, 3
   7              		.eabi_attribute 24, 1
   8              		.eabi_attribute 25, 1
   9              		.eabi_attribute 26, 1
  10              		.eabi_attribute 30, 2
  11              		.eabi_attribute 34, 1
  12              		.eabi_attribute 18, 4
  13              		.thumb
  14              		.file	"chmboxes.c"
  15              		.text
  16              	.Ltext0:
  17              		.cfi_sections	.debug_frame
  18              		.section	.text.chMBInit,"ax",%progbits
  19              		.align	2
  20              		.p2align 4,,15
  21              		.global	chMBInit
  22              		.thumb
  23              		.thumb_func
  24              		.type	chMBInit, %function
  25              	chMBInit:
  26              	.LFB118:
  27              		.file 1 "../../os/kernel/src/chmboxes.c"
  28              		.loc 1 72 0
  29              		.cfi_startproc
  30              		@ args = 0, pretend = 0, frame = 0
  31              		@ frame_needed = 0, uses_anonymous_args = 0
  32              	.LVL0:
  33 0000 10B5     		push	{r4, lr}
  34              		.cfi_def_cfa_offset 8
  35              		.cfi_offset 4, -8
  36              		.cfi_offset 14, -4
  37              		.loc 1 72 0
  38 0002 0B46     		mov	r3, r1
  39              		.loc 1 77 0
  40 0004 01EB8201 		add	r1, r1, r2, lsl #2
  41              	.LVL1:
  42 0008 4160     		str	r1, [r0, #4]
  43              		.loc 1 72 0
  44 000a 0446     		mov	r4, r0
  45              		.loc 1 76 0
  46 000c C360     		str	r3, [r0, #12]
  47 000e 8360     		str	r3, [r0, #8]
  48 0010 0360     		str	r3, [r0]
  49              		.loc 1 78 0
  50 0012 1146     		mov	r1, r2
  51 0014 1C30     		adds	r0, r0, #28
  52              	.LVL2:
  53 0016 FFF7FEFF 		bl	chSemInit
  54              	.LVL3:
  55              		.loc 1 79 0
  56 001a 04F11000 		add	r0, r4, #16
  57 001e 0021     		movs	r1, #0
ARM GAS  /tmp/cce7nfL2.s 			page 2


  58              		.loc 1 80 0
  59 0020 BDE81040 		pop	{r4, lr}
  60              	.LVL4:
  61              		.loc 1 79 0
  62 0024 FFF7FEBF 		b	chSemInit
  63              	.LVL5:
  64              		.cfi_endproc
  65              	.LFE118:
  66              		.size	chMBInit, .-chMBInit
  67 0028 AFF30080 		.section	.text.chMBReset,"ax",%progbits
  67      AFF30080 
  68              		.align	2
  69              		.p2align 4,,15
  70              		.global	chMBReset
  71              		.thumb
  72              		.thumb_func
  73              		.type	chMBReset, %function
  74              	chMBReset:
  75              	.LFB119:
  76              		.loc 1 91 0
  77              		.cfi_startproc
  78              		@ args = 0, pretend = 0, frame = 0
  79              		@ frame_needed = 0, uses_anonymous_args = 0
  80              	.LVL6:
  81 0000 10B5     		push	{r4, lr}
  82              		.cfi_def_cfa_offset 8
  83              		.cfi_offset 4, -8
  84              		.cfi_offset 14, -4
  85              	.LBB2:
  86              		.loc 1 95 0
  87 0002 4023     		movs	r3, #64
  88              	.LBE2:
  89              		.loc 1 91 0
  90 0004 0446     		mov	r4, r0
  91              	.LBB3:
  92              		.loc 1 95 0
  93              	@ 95 "../../os/kernel/src/chmboxes.c" 1
  94 0006 83F31188 		msr     BASEPRI, r3
  95              	@ 0 "" 2
  96              		.thumb
  97              	.LBE3:
  98              		.loc 1 96 0
  99 000a 0368     		ldr	r3, [r0]
 100              		.loc 1 97 0
 101 000c 4168     		ldr	r1, [r0, #4]
 102              		.loc 1 96 0
 103 000e C360     		str	r3, [r0, #12]
 104              		.loc 1 97 0
 105 0010 C91A     		subs	r1, r1, r3
 106              		.loc 1 96 0
 107 0012 8360     		str	r3, [r0, #8]
 108              		.loc 1 97 0
 109 0014 8910     		asrs	r1, r1, #2
 110 0016 1C30     		adds	r0, r0, #28
 111              	.LVL7:
 112 0018 FFF7FEFF 		bl	chSemResetI
 113              	.LVL8:
ARM GAS  /tmp/cce7nfL2.s 			page 3


 114              		.loc 1 98 0
 115 001c 04F11000 		add	r0, r4, #16
 116 0020 0021     		movs	r1, #0
 117 0022 FFF7FEFF 		bl	chSemResetI
 118              	.LVL9:
 119              		.loc 1 99 0
 120 0026 FFF7FEFF 		bl	chSchRescheduleS
 121              	.LVL10:
 122              	.LBB4:
 123              		.loc 1 100 0
 124 002a 0023     		movs	r3, #0
 125              	@ 100 "../../os/kernel/src/chmboxes.c" 1
 126 002c 83F31188 		msr     BASEPRI, r3
 127              	@ 0 "" 2
 128              		.thumb
 129 0030 10BD     		pop	{r4, pc}
 130              	.LBE4:
 131              		.cfi_endproc
 132              	.LFE119:
 133              		.size	chMBReset, .-chMBReset
 134 0032 00BFAFF3 		.section	.text.chMBPostS,"ax",%progbits
 134      0080AFF3 
 134      0080AFF3 
 134      0080
 135              		.align	2
 136              		.p2align 4,,15
 137              		.global	chMBPostS
 138              		.thumb
 139              		.thumb_func
 140              		.type	chMBPostS, %function
 141              	chMBPostS:
 142              	.LFB121:
 143              		.loc 1 150 0
 144              		.cfi_startproc
 145              		@ args = 0, pretend = 0, frame = 0
 146              		@ frame_needed = 0, uses_anonymous_args = 0
 147              	.LVL11:
 148 0000 70B5     		push	{r4, r5, r6, lr}
 149              		.cfi_def_cfa_offset 16
 150              		.cfi_offset 4, -16
 151              		.cfi_offset 5, -12
 152              		.cfi_offset 6, -8
 153              		.cfi_offset 14, -4
 154              		.loc 1 150 0
 155 0002 0446     		mov	r4, r0
 156 0004 0E46     		mov	r6, r1
 157              		.loc 1 156 0
 158 0006 1C30     		adds	r0, r0, #28
 159              	.LVL12:
 160 0008 1146     		mov	r1, r2
 161              	.LVL13:
 162 000a FFF7FEFF 		bl	chSemWaitTimeoutS
 163              	.LVL14:
 164              		.loc 1 157 0
 165 000e 0546     		mov	r5, r0
 166 0010 78B9     		cbnz	r0, .L4
 167              		.loc 1 158 0
ARM GAS  /tmp/cce7nfL2.s 			page 4


 168 0012 A268     		ldr	r2, [r4, #8]
 169              		.loc 1 159 0
 170 0014 6168     		ldr	r1, [r4, #4]
 171              		.loc 1 158 0
 172 0016 131D     		adds	r3, r2, #4
 173              		.loc 1 159 0
 174 0018 8B42     		cmp	r3, r1
 175              		.loc 1 158 0
 176 001a A360     		str	r3, [r4, #8]
 177              		.loc 1 160 0
 178 001c 28BF     		it	cs
 179 001e 2368     		ldrcs	r3, [r4]
 180              		.loc 1 158 0
 181 0020 1660     		str	r6, [r2]
 182              		.loc 1 161 0
 183 0022 04F11000 		add	r0, r4, #16
 184              	.LVL15:
 185              		.loc 1 160 0
 186 0026 28BF     		it	cs
 187 0028 A360     		strcs	r3, [r4, #8]
 188              		.loc 1 161 0
 189 002a FFF7FEFF 		bl	chSemSignalI
 190              	.LVL16:
 191              		.loc 1 162 0
 192 002e FFF7FEFF 		bl	chSchRescheduleS
 193              	.LVL17:
 194              	.L4:
 195              		.loc 1 165 0
 196 0032 2846     		mov	r0, r5
 197 0034 70BD     		pop	{r4, r5, r6, pc}
 198              		.cfi_endproc
 199              	.LFE121:
 200              		.size	chMBPostS, .-chMBPostS
 201 0036 00BFAFF3 		.section	.text.chMBPost,"ax",%progbits
 201      0080AFF3 
 201      0080
 202              		.align	2
 203              		.p2align 4,,15
 204              		.global	chMBPost
 205              		.thumb
 206              		.thumb_func
 207              		.type	chMBPost, %function
 208              	chMBPost:
 209              	.LFB120:
 210              		.loc 1 122 0
 211              		.cfi_startproc
 212              		@ args = 0, pretend = 0, frame = 0
 213              		@ frame_needed = 0, uses_anonymous_args = 0
 214              	.LVL18:
 215 0000 08B5     		push	{r3, lr}
 216              		.cfi_def_cfa_offset 8
 217              		.cfi_offset 3, -8
 218              		.cfi_offset 14, -4
 219              	.LBB5:
 220              		.loc 1 125 0
 221 0002 4023     		movs	r3, #64
 222              	@ 125 "../../os/kernel/src/chmboxes.c" 1
ARM GAS  /tmp/cce7nfL2.s 			page 5


 223 0004 83F31188 		msr     BASEPRI, r3
 224              	@ 0 "" 2
 225              		.thumb
 226              	.LBE5:
 227              		.loc 1 126 0
 228 0008 FFF7FEFF 		bl	chMBPostS
 229              	.LVL19:
 230              	.LBB6:
 231              		.loc 1 127 0
 232 000c 0023     		movs	r3, #0
 233              	@ 127 "../../os/kernel/src/chmboxes.c" 1
 234 000e 83F31188 		msr     BASEPRI, r3
 235              	@ 0 "" 2
 236              		.thumb
 237              	.LBE6:
 238              		.loc 1 129 0
 239 0012 08BD     		pop	{r3, pc}
 240              		.cfi_endproc
 241              	.LFE120:
 242              		.size	chMBPost, .-chMBPost
 243 0014 AFF30080 		.section	.text.chMBPostI,"ax",%progbits
 243      AFF30080 
 243      AFF30080 
 244              		.align	2
 245              		.p2align 4,,15
 246              		.global	chMBPostI
 247              		.thumb
 248              		.thumb_func
 249              		.type	chMBPostI, %function
 250              	chMBPostI:
 251              	.LFB122:
 252              		.loc 1 181 0
 253              		.cfi_startproc
 254              		@ args = 0, pretend = 0, frame = 0
 255              		@ frame_needed = 0, uses_anonymous_args = 0
 256              	.LVL20:
 257 0000 38B5     		push	{r3, r4, r5, lr}
 258              		.cfi_def_cfa_offset 16
 259              		.cfi_offset 3, -16
 260              		.cfi_offset 4, -12
 261              		.cfi_offset 5, -8
 262              		.cfi_offset 14, -4
 263              		.loc 1 186 0
 264 0002 436A     		ldr	r3, [r0, #36]
 265 0004 002B     		cmp	r3, #0
 266 0006 12DD     		ble	.L11
 267              		.loc 1 189 0
 268 0008 8468     		ldr	r4, [r0, #8]
 269              		.loc 1 190 0
 270 000a 4568     		ldr	r5, [r0, #4]
 271              		.loc 1 189 0
 272 000c 221D     		adds	r2, r4, #4
 273              		.loc 1 188 0
 274 000e 013B     		subs	r3, r3, #1
 275              		.loc 1 190 0
 276 0010 AA42     		cmp	r2, r5
 277              		.loc 1 188 0
ARM GAS  /tmp/cce7nfL2.s 			page 6


 278 0012 4362     		str	r3, [r0, #36]
 279              		.loc 1 191 0
 280 0014 28BF     		it	cs
 281 0016 0368     		ldrcs	r3, [r0]
 282              		.loc 1 189 0
 283 0018 8260     		str	r2, [r0, #8]
 284 001a 2160     		str	r1, [r4]
 285              		.loc 1 192 0
 286 001c 00F11000 		add	r0, r0, #16
 287              	.LVL21:
 288              		.loc 1 191 0
 289 0020 28BF     		it	cs
 290 0022 40F8083C 		strcs	r3, [r0, #-8]
 291              		.loc 1 192 0
 292 0026 FFF7FEFF 		bl	chSemSignalI
 293              	.LVL22:
 294              		.loc 1 193 0
 295 002a 0020     		movs	r0, #0
 296 002c 38BD     		pop	{r3, r4, r5, pc}
 297              	.LVL23:
 298              	.L11:
 299              		.loc 1 187 0
 300 002e 4FF0FF30 		mov	r0, #-1
 301              	.LVL24:
 302              		.loc 1 194 0
 303 0032 38BD     		pop	{r3, r4, r5, pc}
 304              		.cfi_endproc
 305              	.LFE122:
 306              		.size	chMBPostI, .-chMBPostI
 307 0034 AFF30080 		.section	.text.chMBPostAheadS,"ax",%progbits
 307      AFF30080 
 307      AFF30080 
 308              		.align	2
 309              		.p2align 4,,15
 310              		.global	chMBPostAheadS
 311              		.thumb
 312              		.thumb_func
 313              		.type	chMBPostAheadS, %function
 314              	chMBPostAheadS:
 315              	.LFB124:
 316              		.loc 1 243 0
 317              		.cfi_startproc
 318              		@ args = 0, pretend = 0, frame = 0
 319              		@ frame_needed = 0, uses_anonymous_args = 0
 320              	.LVL25:
 321 0000 70B5     		push	{r4, r5, r6, lr}
 322              		.cfi_def_cfa_offset 16
 323              		.cfi_offset 4, -16
 324              		.cfi_offset 5, -12
 325              		.cfi_offset 6, -8
 326              		.cfi_offset 14, -4
 327              		.loc 1 243 0
 328 0002 0446     		mov	r4, r0
 329 0004 0E46     		mov	r6, r1
 330              		.loc 1 249 0
 331 0006 1C30     		adds	r0, r0, #28
 332              	.LVL26:
ARM GAS  /tmp/cce7nfL2.s 			page 7


 333 0008 1146     		mov	r1, r2
 334              	.LVL27:
 335 000a FFF7FEFF 		bl	chSemWaitTimeoutS
 336              	.LVL28:
 337              		.loc 1 250 0
 338 000e 0546     		mov	r5, r0
 339 0010 60B9     		cbnz	r0, .L13
 340              		.loc 1 251 0
 341 0012 E368     		ldr	r3, [r4, #12]
 342 0014 2268     		ldr	r2, [r4]
 343 0016 043B     		subs	r3, r3, #4
 344 0018 9342     		cmp	r3, r2
 345 001a E360     		str	r3, [r4, #12]
 346 001c 08D3     		bcc	.L15
 347              	.L14:
 348              		.loc 1 253 0
 349 001e 1E60     		str	r6, [r3]
 350              		.loc 1 254 0
 351 0020 04F11000 		add	r0, r4, #16
 352              	.LVL29:
 353 0024 FFF7FEFF 		bl	chSemSignalI
 354              	.LVL30:
 355              		.loc 1 255 0
 356 0028 FFF7FEFF 		bl	chSchRescheduleS
 357              	.LVL31:
 358              	.L13:
 359              		.loc 1 258 0
 360 002c 2846     		mov	r0, r5
 361 002e 70BD     		pop	{r4, r5, r6, pc}
 362              	.LVL32:
 363              	.L15:
 364              		.loc 1 252 0
 365 0030 6368     		ldr	r3, [r4, #4]
 366 0032 043B     		subs	r3, r3, #4
 367 0034 E360     		str	r3, [r4, #12]
 368 0036 F2E7     		b	.L14
 369              		.cfi_endproc
 370              	.LFE124:
 371              		.size	chMBPostAheadS, .-chMBPostAheadS
 372 0038 AFF30080 		.section	.text.chMBPostAhead,"ax",%progbits
 372      AFF30080 
 373              		.align	2
 374              		.p2align 4,,15
 375              		.global	chMBPostAhead
 376              		.thumb
 377              		.thumb_func
 378              		.type	chMBPostAhead, %function
 379              	chMBPostAhead:
 380              	.LFB123:
 381              		.loc 1 215 0
 382              		.cfi_startproc
 383              		@ args = 0, pretend = 0, frame = 0
 384              		@ frame_needed = 0, uses_anonymous_args = 0
 385              	.LVL33:
 386 0000 08B5     		push	{r3, lr}
 387              		.cfi_def_cfa_offset 8
 388              		.cfi_offset 3, -8
ARM GAS  /tmp/cce7nfL2.s 			page 8


 389              		.cfi_offset 14, -4
 390              	.LBB7:
 391              		.loc 1 218 0
 392 0002 4023     		movs	r3, #64
 393              	@ 218 "../../os/kernel/src/chmboxes.c" 1
 394 0004 83F31188 		msr     BASEPRI, r3
 395              	@ 0 "" 2
 396              		.thumb
 397              	.LBE7:
 398              		.loc 1 219 0
 399 0008 FFF7FEFF 		bl	chMBPostAheadS
 400              	.LVL34:
 401              	.LBB8:
 402              		.loc 1 220 0
 403 000c 0023     		movs	r3, #0
 404              	@ 220 "../../os/kernel/src/chmboxes.c" 1
 405 000e 83F31188 		msr     BASEPRI, r3
 406              	@ 0 "" 2
 407              		.thumb
 408              	.LBE8:
 409              		.loc 1 222 0
 410 0012 08BD     		pop	{r3, pc}
 411              		.cfi_endproc
 412              	.LFE123:
 413              		.size	chMBPostAhead, .-chMBPostAhead
 414 0014 AFF30080 		.section	.text.chMBPostAheadI,"ax",%progbits
 414      AFF30080 
 414      AFF30080 
 415              		.align	2
 416              		.p2align 4,,15
 417              		.global	chMBPostAheadI
 418              		.thumb
 419              		.thumb_func
 420              		.type	chMBPostAheadI, %function
 421              	chMBPostAheadI:
 422              	.LFB125:
 423              		.loc 1 274 0
 424              		.cfi_startproc
 425              		@ args = 0, pretend = 0, frame = 0
 426              		@ frame_needed = 0, uses_anonymous_args = 0
 427              	.LVL35:
 428              		.loc 1 279 0
 429 0000 426A     		ldr	r2, [r0, #36]
 430 0002 002A     		cmp	r2, #0
 431              		.loc 1 274 0
 432 0004 10B5     		push	{r4, lr}
 433              		.cfi_def_cfa_offset 8
 434              		.cfi_offset 4, -8
 435              		.cfi_offset 14, -4
 436              		.loc 1 279 0
 437 0006 10DD     		ble	.L20
 438              		.loc 1 282 0
 439 0008 C368     		ldr	r3, [r0, #12]
 440 000a 0468     		ldr	r4, [r0]
 441 000c 043B     		subs	r3, r3, #4
 442              		.loc 1 281 0
 443 000e 013A     		subs	r2, r2, #1
ARM GAS  /tmp/cce7nfL2.s 			page 9


 444              		.loc 1 282 0
 445 0010 A342     		cmp	r3, r4
 446              		.loc 1 281 0
 447 0012 4262     		str	r2, [r0, #36]
 448              		.loc 1 282 0
 449 0014 C360     		str	r3, [r0, #12]
 450 0016 02D2     		bcs	.L19
 451              		.loc 1 283 0
 452 0018 4368     		ldr	r3, [r0, #4]
 453 001a 043B     		subs	r3, r3, #4
 454 001c C360     		str	r3, [r0, #12]
 455              	.L19:
 456              		.loc 1 284 0
 457 001e 1960     		str	r1, [r3]
 458              		.loc 1 285 0
 459 0020 1030     		adds	r0, r0, #16
 460              	.LVL36:
 461 0022 FFF7FEFF 		bl	chSemSignalI
 462              	.LVL37:
 463              		.loc 1 286 0
 464 0026 0020     		movs	r0, #0
 465 0028 10BD     		pop	{r4, pc}
 466              	.LVL38:
 467              	.L20:
 468              		.loc 1 280 0
 469 002a 4FF0FF30 		mov	r0, #-1
 470              	.LVL39:
 471              		.loc 1 287 0
 472 002e 10BD     		pop	{r4, pc}
 473              		.cfi_endproc
 474              	.LFE125:
 475              		.size	chMBPostAheadI, .-chMBPostAheadI
 476              		.section	.text.chMBFetchS,"ax",%progbits
 477              		.align	2
 478              		.p2align 4,,15
 479              		.global	chMBFetchS
 480              		.thumb
 481              		.thumb_func
 482              		.type	chMBFetchS, %function
 483              	chMBFetchS:
 484              	.LFB127:
 485              		.loc 1 336 0
 486              		.cfi_startproc
 487              		@ args = 0, pretend = 0, frame = 0
 488              		@ frame_needed = 0, uses_anonymous_args = 0
 489              	.LVL40:
 490 0000 70B5     		push	{r4, r5, r6, lr}
 491              		.cfi_def_cfa_offset 16
 492              		.cfi_offset 4, -16
 493              		.cfi_offset 5, -12
 494              		.cfi_offset 6, -8
 495              		.cfi_offset 14, -4
 496              		.loc 1 336 0
 497 0002 0446     		mov	r4, r0
 498 0004 0E46     		mov	r6, r1
 499              		.loc 1 342 0
 500 0006 1030     		adds	r0, r0, #16
ARM GAS  /tmp/cce7nfL2.s 			page 10


 501              	.LVL41:
 502 0008 1146     		mov	r1, r2
 503              	.LVL42:
 504 000a FFF7FEFF 		bl	chSemWaitTimeoutS
 505              	.LVL43:
 506              		.loc 1 343 0
 507 000e 0546     		mov	r5, r0
 508 0010 80B9     		cbnz	r0, .L22
 509              		.loc 1 344 0
 510 0012 E368     		ldr	r3, [r4, #12]
 511              		.loc 1 345 0
 512 0014 6268     		ldr	r2, [r4, #4]
 513              		.loc 1 344 0
 514 0016 1968     		ldr	r1, [r3]
 515 0018 0433     		adds	r3, r3, #4
 516              		.loc 1 345 0
 517 001a 9342     		cmp	r3, r2
 518              		.loc 1 344 0
 519 001c E360     		str	r3, [r4, #12]
 520              		.loc 1 346 0
 521 001e 28BF     		it	cs
 522 0020 2368     		ldrcs	r3, [r4]
 523              		.loc 1 344 0
 524 0022 3160     		str	r1, [r6]
 525              		.loc 1 347 0
 526 0024 04F11C00 		add	r0, r4, #28
 527              	.LVL44:
 528              		.loc 1 346 0
 529 0028 28BF     		it	cs
 530 002a E360     		strcs	r3, [r4, #12]
 531              		.loc 1 347 0
 532 002c FFF7FEFF 		bl	chSemSignalI
 533              	.LVL45:
 534              		.loc 1 348 0
 535 0030 FFF7FEFF 		bl	chSchRescheduleS
 536              	.LVL46:
 537              	.L22:
 538              		.loc 1 351 0
 539 0034 2846     		mov	r0, r5
 540 0036 70BD     		pop	{r4, r5, r6, pc}
 541              		.cfi_endproc
 542              	.LFE127:
 543              		.size	chMBFetchS, .-chMBFetchS
 544 0038 AFF30080 		.section	.text.chMBFetch,"ax",%progbits
 544      AFF30080 
 545              		.align	2
 546              		.p2align 4,,15
 547              		.global	chMBFetch
 548              		.thumb
 549              		.thumb_func
 550              		.type	chMBFetch, %function
 551              	chMBFetch:
 552              	.LFB126:
 553              		.loc 1 308 0
 554              		.cfi_startproc
 555              		@ args = 0, pretend = 0, frame = 0
 556              		@ frame_needed = 0, uses_anonymous_args = 0
ARM GAS  /tmp/cce7nfL2.s 			page 11


 557              	.LVL47:
 558 0000 08B5     		push	{r3, lr}
 559              		.cfi_def_cfa_offset 8
 560              		.cfi_offset 3, -8
 561              		.cfi_offset 14, -4
 562              	.LBB9:
 563              		.loc 1 311 0
 564 0002 4023     		movs	r3, #64
 565              	@ 311 "../../os/kernel/src/chmboxes.c" 1
 566 0004 83F31188 		msr     BASEPRI, r3
 567              	@ 0 "" 2
 568              		.thumb
 569              	.LBE9:
 570              		.loc 1 312 0
 571 0008 FFF7FEFF 		bl	chMBFetchS
 572              	.LVL48:
 573              	.LBB10:
 574              		.loc 1 313 0
 575 000c 0023     		movs	r3, #0
 576              	@ 313 "../../os/kernel/src/chmboxes.c" 1
 577 000e 83F31188 		msr     BASEPRI, r3
 578              	@ 0 "" 2
 579              		.thumb
 580              	.LBE10:
 581              		.loc 1 315 0
 582 0012 08BD     		pop	{r3, pc}
 583              		.cfi_endproc
 584              	.LFE126:
 585              		.size	chMBFetch, .-chMBFetch
 586 0014 AFF30080 		.section	.text.chMBFetchI,"ax",%progbits
 586      AFF30080 
 586      AFF30080 
 587              		.align	2
 588              		.p2align 4,,15
 589              		.global	chMBFetchI
 590              		.thumb
 591              		.thumb_func
 592              		.type	chMBFetchI, %function
 593              	chMBFetchI:
 594              	.LFB128:
 595              		.loc 1 367 0
 596              		.cfi_startproc
 597              		@ args = 0, pretend = 0, frame = 0
 598              		@ frame_needed = 0, uses_anonymous_args = 0
 599              	.LVL49:
 600              		.loc 1 372 0
 601 0000 8369     		ldr	r3, [r0, #24]
 602 0002 002B     		cmp	r3, #0
 603              		.loc 1 367 0
 604 0004 10B5     		push	{r4, lr}
 605              		.cfi_def_cfa_offset 8
 606              		.cfi_offset 4, -8
 607              		.cfi_offset 14, -4
 608              		.loc 1 372 0
 609 0006 13DD     		ble	.L28
 610              		.loc 1 374 0
 611 0008 5A1E     		subs	r2, r3, #1
ARM GAS  /tmp/cce7nfL2.s 			page 12


 612              		.loc 1 375 0
 613 000a C368     		ldr	r3, [r0, #12]
 614              		.loc 1 374 0
 615 000c 8261     		str	r2, [r0, #24]
 616              		.loc 1 376 0
 617 000e 4268     		ldr	r2, [r0, #4]
 618              		.loc 1 375 0
 619 0010 1C68     		ldr	r4, [r3]
 620 0012 0433     		adds	r3, r3, #4
 621              		.loc 1 376 0
 622 0014 9342     		cmp	r3, r2
 623              		.loc 1 375 0
 624 0016 C360     		str	r3, [r0, #12]
 625              		.loc 1 377 0
 626 0018 28BF     		it	cs
 627 001a 0368     		ldrcs	r3, [r0]
 628              		.loc 1 375 0
 629 001c 0C60     		str	r4, [r1]
 630              		.loc 1 378 0
 631 001e 00F11C00 		add	r0, r0, #28
 632              	.LVL50:
 633              		.loc 1 377 0
 634 0022 28BF     		it	cs
 635 0024 40F8103C 		strcs	r3, [r0, #-16]
 636              		.loc 1 378 0
 637 0028 FFF7FEFF 		bl	chSemSignalI
 638              	.LVL51:
 639              		.loc 1 379 0
 640 002c 0020     		movs	r0, #0
 641 002e 10BD     		pop	{r4, pc}
 642              	.LVL52:
 643              	.L28:
 644              		.loc 1 373 0
 645 0030 4FF0FF30 		mov	r0, #-1
 646              	.LVL53:
 647              		.loc 1 380 0
 648 0034 10BD     		pop	{r4, pc}
 649              		.cfi_endproc
 650              	.LFE128:
 651              		.size	chMBFetchI, .-chMBFetchI
 652 0036 00BFAFF3 		.text
 652      0080AFF3 
 652      0080
 653              	.Letext0:
 654              		.file 2 "/usr/include/newlib/machine/_default_types.h"
 655              		.file 3 "/usr/include/newlib/stdint.h"
 656              		.file 4 "../../os/ports/GCC/ARMCMx/chtypes.h"
 657              		.file 5 "../../os/kernel/include/chlists.h"
 658              		.file 6 "../../os/kernel/include/chthreads.h"
 659              		.file 7 "../../os/ports/GCC/ARMCMx/chcore_v7m.h"
 660              		.file 8 "../../os/kernel/include/chsem.h"
 661              		.file 9 "../../os/kernel/include/chmtx.h"
 662              		.file 10 "../../os/kernel/include/chmboxes.h"
 663              		.file 11 "../../os/ports/common/ARMCMx/CMSIS/include/core_cm4.h"
 664              		.file 12 "../../os/kernel/include/chschd.h"