ARM GAS  /tmp/ccFXEp5u.s 			page 1


   1              		.syntax unified
   2              		.cpu cortex-m4
   3              		.fpu softvfp
   4              		.eabi_attribute 20, 1
   5              		.eabi_attribute 21, 1
   6              		.eabi_attribute 23, 3
   7              		.eabi_attribute 24, 1
   8              		.eabi_attribute 25, 1
   9              		.eabi_attribute 26, 1
  10              		.eabi_attribute 30, 2
  11              		.eabi_attribute 34, 1
  12              		.eabi_attribute 18, 4
  13              		.thumb
  14              		.file	"chmsg.c"
  15              		.text
  16              	.Ltext0:
  17              		.cfi_sections	.debug_frame
  18              		.section	.text.chMsgSend,"ax",%progbits
  19              		.align	2
  20              		.p2align 4,,15
  21              		.global	chMsgSend
  22              		.thumb
  23              		.thumb_func
  24              		.type	chMsgSend, %function
  25              	chMsgSend:
  26              	.LFB118:
  27              		.file 1 "../../os/kernel/src/chmsg.c"
  28              		.loc 1 75 0
  29              		.cfi_startproc
  30              		@ args = 0, pretend = 0, frame = 0
  31              		@ frame_needed = 0, uses_anonymous_args = 0
  32              	.LVL0:
  33              		.loc 1 76 0
  34 0000 0E4B     		ldr	r3, .L5
  35              		.loc 1 75 0
  36 0002 70B5     		push	{r4, r5, r6, lr}
  37              		.cfi_def_cfa_offset 16
  38              		.cfi_offset 4, -16
  39              		.cfi_offset 5, -12
  40              		.cfi_offset 6, -8
  41              		.cfi_offset 14, -4
  42              		.loc 1 76 0
  43 0004 9C69     		ldr	r4, [r3, #24]
  44              	.LVL1:
  45              	.LBB10:
  46              		.loc 1 80 0
  47 0006 4023     		movs	r3, #64
  48              	@ 80 "../../os/kernel/src/chmsg.c" 1
  49 0008 83F31188 		msr     BASEPRI, r3
  50              	@ 0 "" 2
  51              		.thumb
  52              	.LBE10:
  53              		.loc 1 82 0
  54 000c 00F12C05 		add	r5, r0, #44
  55              		.loc 1 84 0
  56 0010 067F     		ldrb	r6, [r0, #28]	@ zero_extendqisi2
  57              		.loc 1 82 0
ARM GAS  /tmp/ccFXEp5u.s 			page 2


  58 0012 6562     		str	r5, [r4, #36]
  59              	.LVL2:
  60              	.LBB11:
  61              	.LBB12:
  62              		.file 2 "../../os/kernel/include/chinline.h"
  63              		.loc 2 55 0
  64 0014 036B     		ldr	r3, [r0, #48]
  65 0016 6360     		str	r3, [r4, #4]
  66              	.LBE12:
  67              	.LBE11:
  68              		.loc 1 84 0
  69 0018 0C2E     		cmp	r6, #12
  70              		.loc 1 81 0
  71 001a 6163     		str	r1, [r4, #52]
  72              	.LBB14:
  73              	.LBB13:
  74              		.loc 2 54 0
  75 001c 2560     		str	r5, [r4]
  76              		.loc 2 56 0
  77 001e 0463     		str	r4, [r0, #48]
  78 0020 1C60     		str	r4, [r3]
  79              	.LBE13:
  80              	.LBE14:
  81              		.loc 1 84 0
  82 0022 07D0     		beq	.L4
  83              	.LVL3:
  84              	.L2:
  85              		.loc 1 86 0
  86 0024 0A20     		movs	r0, #10
  87 0026 FFF7FEFF 		bl	chSchGoSleepS
  88              	.LVL4:
  89              		.loc 1 87 0
  90 002a 606A     		ldr	r0, [r4, #36]
  91              	.LVL5:
  92              	.LBB15:
  93              		.loc 1 88 0
  94 002c 0023     		movs	r3, #0
  95              	@ 88 "../../os/kernel/src/chmsg.c" 1
  96 002e 83F31188 		msr     BASEPRI, r3
  97              	@ 0 "" 2
  98              		.thumb
  99              	.LBE15:
 100              		.loc 1 90 0
 101 0032 70BD     		pop	{r4, r5, r6, pc}
 102              	.LVL6:
 103              	.L4:
 104              		.loc 1 85 0
 105 0034 FFF7FEFF 		bl	chSchReadyI
 106              	.LVL7:
 107 0038 F4E7     		b	.L2
 108              	.L6:
 109 003a 00BF     		.align	2
 110              	.L5:
 111 003c 00000000 		.word	rlist
 112              		.cfi_endproc
 113              	.LFE118:
 114              		.size	chMsgSend, .-chMsgSend
ARM GAS  /tmp/ccFXEp5u.s 			page 3


 115              		.section	.text.chMsgWait,"ax",%progbits
 116              		.align	2
 117              		.p2align 4,,15
 118              		.global	chMsgWait
 119              		.thumb
 120              		.thumb_func
 121              		.type	chMsgWait, %function
 122              	chMsgWait:
 123              	.LFB119:
 124              		.loc 1 106 0
 125              		.cfi_startproc
 126              		@ args = 0, pretend = 0, frame = 0
 127              		@ frame_needed = 0, uses_anonymous_args = 0
 128 0000 10B5     		push	{r4, lr}
 129              		.cfi_def_cfa_offset 8
 130              		.cfi_offset 4, -8
 131              		.cfi_offset 14, -4
 132              	.LBB16:
 133              		.loc 1 109 0
 134 0002 4023     		movs	r3, #64
 135              	@ 109 "../../os/kernel/src/chmsg.c" 1
 136 0004 83F31188 		msr     BASEPRI, r3
 137              	@ 0 "" 2
 138              		.thumb
 139              	.LBE16:
 140              		.loc 1 110 0
 141 0008 0B4C     		ldr	r4, .L10
 142 000a A269     		ldr	r2, [r4, #24]
 143 000c 1346     		mov	r3, r2
 144 000e 53F82C0F 		ldr	r0, [r3, #44]!
 145 0012 9842     		cmp	r0, r3
 146 0014 08D0     		beq	.L9
 147              	.L8:
 148              	.LVL8:
 149              	.LBB17:
 150              	.LBB18:
 151              		.loc 2 62 0
 152 0016 0168     		ldr	r1, [r0]
 153 0018 D162     		str	r1, [r2, #44]
 154              	.LBE18:
 155              	.LBE17:
 156              		.loc 1 113 0
 157 001a 0B22     		movs	r2, #11
 158              	.LBB20:
 159              	.LBB19:
 160              		.loc 2 62 0
 161 001c 4B60     		str	r3, [r1, #4]
 162              	.LBE19:
 163              	.LBE20:
 164              	.LBB21:
 165              		.loc 1 114 0
 166 001e 0023     		movs	r3, #0
 167              	.LVL9:
 168              	.LBE21:
 169              		.loc 1 113 0
 170 0020 0277     		strb	r2, [r0, #28]
 171              	.LBB22:
ARM GAS  /tmp/ccFXEp5u.s 			page 4


 172              		.loc 1 114 0
 173              	@ 114 "../../os/kernel/src/chmsg.c" 1
 174 0022 83F31188 		msr     BASEPRI, r3
 175              	@ 0 "" 2
 176              		.thumb
 177              	.LBE22:
 178              		.loc 1 116 0
 179 0026 10BD     		pop	{r4, pc}
 180              	.LVL10:
 181              	.L9:
 182              		.loc 1 111 0
 183 0028 0C20     		movs	r0, #12
 184 002a FFF7FEFF 		bl	chSchGoSleepS
 185              	.LVL11:
 186 002e A269     		ldr	r2, [r4, #24]
 187 0030 D06A     		ldr	r0, [r2, #44]
 188 0032 02F12C03 		add	r3, r2, #44
 189 0036 EEE7     		b	.L8
 190              	.L11:
 191              		.align	2
 192              	.L10:
 193 0038 00000000 		.word	rlist
 194              		.cfi_endproc
 195              	.LFE119:
 196              		.size	chMsgWait, .-chMsgWait
 197 003c AFF30080 		.section	.text.chMsgRelease,"ax",%progbits
 198              		.align	2
 199              		.p2align 4,,15
 200              		.global	chMsgRelease
 201              		.thumb
 202              		.thumb_func
 203              		.type	chMsgRelease, %function
 204              	chMsgRelease:
 205              	.LFB120:
 206              		.loc 1 128 0
 207              		.cfi_startproc
 208              		@ args = 0, pretend = 0, frame = 0
 209              		@ frame_needed = 0, uses_anonymous_args = 0
 210              	.LVL12:
 211 0000 08B5     		push	{r3, lr}
 212              		.cfi_def_cfa_offset 8
 213              		.cfi_offset 3, -8
 214              		.cfi_offset 14, -4
 215              	.LBB23:
 216              		.loc 1 130 0
 217 0002 4023     		movs	r3, #64
 218              	@ 130 "../../os/kernel/src/chmsg.c" 1
 219 0004 83F31188 		msr     BASEPRI, r3
 220              	@ 0 "" 2
 221              		.thumb
 222              	.LBE23:
 223              		.loc 1 133 0
 224 0008 FFF7FEFF 		bl	chSchWakeupS
 225              	.LVL13:
 226              	.LBB24:
 227              		.loc 1 134 0
 228 000c 0023     		movs	r3, #0
ARM GAS  /tmp/ccFXEp5u.s 			page 5


 229              	@ 134 "../../os/kernel/src/chmsg.c" 1
 230 000e 83F31188 		msr     BASEPRI, r3
 231              	@ 0 "" 2
 232              		.thumb
 233 0012 08BD     		pop	{r3, pc}
 234              	.LBE24:
 235              		.cfi_endproc
 236              	.LFE120:
 237              		.size	chMsgRelease, .-chMsgRelease
 238 0014 AFF30080 		.text
 238      AFF30080 
 238      AFF30080 
 239              	.Letext0:
 240              		.file 3 "/usr/include/newlib/machine/_default_types.h"
 241              		.file 4 "/usr/include/newlib/stdint.h"
 242              		.file 5 "../../os/ports/GCC/ARMCMx/chtypes.h"
 243              		.file 6 "../../os/kernel/include/chlists.h"
 244              		.file 7 "../../os/kernel/include/chthreads.h"
 245              		.file 8 "../../os/ports/GCC/ARMCMx/chcore_v7m.h"
 246              		.file 9 "../../os/kernel/include/chschd.h"
 247              		.file 10 "../../os/kernel/include/chmtx.h"
 248              		.file 11 "../../os/ports/common/ARMCMx/CMSIS/include/core_cm4.h"