ARM GAS  /tmp/ccgy2IEu.s 			page 1


   1              		.syntax unified
   2              		.cpu cortex-m4
   3              		.fpu softvfp
   4              		.eabi_attribute 20, 1
   5              		.eabi_attribute 21, 1
   6              		.eabi_attribute 23, 3
   7              		.eabi_attribute 24, 1
   8              		.eabi_attribute 25, 1
   9              		.eabi_attribute 26, 1
  10              		.eabi_attribute 30, 2
  11              		.eabi_attribute 34, 1
  12              		.eabi_attribute 18, 4
  13              		.thumb
  14              		.file	"chmtx.c"
  15              		.text
  16              	.Ltext0:
  17              		.cfi_sections	.debug_frame
  18              		.section	.text.chMtxInit,"ax",%progbits
  19              		.align	2
  20              		.p2align 4,,15
  21              		.global	chMtxInit
  22              		.thumb
  23              		.thumb_func
  24              		.type	chMtxInit, %function
  25              	chMtxInit:
  26              	.LFB118:
  27              		.file 1 "../../os/kernel/src/chmtx.c"
  28              		.loc 1 86 0
  29              		.cfi_startproc
  30              		@ args = 0, pretend = 0, frame = 0
  31              		@ frame_needed = 0, uses_anonymous_args = 0
  32              		@ link register save eliminated.
  33              	.LVL0:
  34              		.loc 1 91 0
  35 0000 0023     		movs	r3, #0
  36              		.loc 1 90 0
  37 0002 4060     		str	r0, [r0, #4]
  38 0004 0060     		str	r0, [r0]
  39              		.loc 1 91 0
  40 0006 8360     		str	r3, [r0, #8]
  41 0008 7047     		bx	lr
  42              		.cfi_endproc
  43              	.LFE118:
  44              		.size	chMtxInit, .-chMtxInit
  45 000a 00BFAFF3 		.section	.text.chMtxLockS,"ax",%progbits
  45      0080
  46              		.align	2
  47              		.p2align 4,,15
  48              		.global	chMtxLockS
  49              		.thumb
  50              		.thumb_func
  51              		.type	chMtxLockS, %function
  52              	chMtxLockS:
  53              	.LFB120:
  54              		.loc 1 121 0
  55              		.cfi_startproc
  56              		@ args = 0, pretend = 0, frame = 0
ARM GAS  /tmp/ccgy2IEu.s 			page 2


  57              		@ frame_needed = 0, uses_anonymous_args = 0
  58              	.LVL1:
  59 0000 70B5     		push	{r4, r5, r6, lr}
  60              		.cfi_def_cfa_offset 16
  61              		.cfi_offset 4, -16
  62              		.cfi_offset 5, -12
  63              		.cfi_offset 6, -8
  64              		.cfi_offset 14, -4
  65              		.loc 1 122 0
  66 0002 2F4B     		ldr	r3, .L23
  67              		.loc 1 121 0
  68 0004 0546     		mov	r5, r0
  69              		.loc 1 128 0
  70 0006 8068     		ldr	r0, [r0, #8]
  71              	.LVL2:
  72              		.loc 1 122 0
  73 0008 9C69     		ldr	r4, [r3, #24]
  74              	.LVL3:
  75              		.loc 1 128 0
  76 000a 0028     		cmp	r0, #0
  77 000c 53D0     		beq	.L3
  78              	.LVL4:
  79              	.LBB33:
  80              		.loc 1 135 0 discriminator 1
  81 000e A268     		ldr	r2, [r4, #8]
  82 0010 8368     		ldr	r3, [r0, #8]
  83 0012 9A42     		cmp	r2, r3
  84 0014 06D9     		bls	.L5
  85              	.L14:
  86              		.loc 1 139 0
  87 0016 037F     		ldrb	r3, [r0, #28]	@ zero_extendqisi2
  88              		.loc 1 137 0
  89 0018 8260     		str	r2, [r0, #8]
  90              		.loc 1 139 0
  91 001a 042B     		cmp	r3, #4
  92 001c 32D0     		beq	.L6
  93 001e 052B     		cmp	r3, #5
  94 0020 1CD0     		beq	.L7
  95 0022 9BB1     		cbz	r3, .L22
  96              	.LVL5:
  97              	.L5:
  98              	.LBB34:
  99              	.LBB35:
 100              		.file 2 "../../os/kernel/include/chinline.h"
 101              		.loc 2 43 0
 102 0024 2B46     		mov	r3, r5
 103 0026 03E0     		b	.L20
 104              	.LVL6:
 105              	.L18:
 106              		.loc 2 46 0
 107 0028 9968     		ldr	r1, [r3, #8]
 108 002a A268     		ldr	r2, [r4, #8]
 109 002c 9142     		cmp	r1, r2
 110 002e 02D3     		bcc	.L19
 111              	.L20:
 112              		.loc 2 45 0
 113 0030 1B68     		ldr	r3, [r3]
ARM GAS  /tmp/ccgy2IEu.s 			page 3


 114              	.LVL7:
 115              		.loc 2 46 0
 116 0032 9D42     		cmp	r5, r3
 117 0034 F8D1     		bne	.L18
 118              	.L19:
 119              		.loc 2 48 0
 120 0036 5A68     		ldr	r2, [r3, #4]
 121 0038 6260     		str	r2, [r4, #4]
 122              		.loc 2 47 0
 123 003a 2360     		str	r3, [r4]
 124              		.loc 2 49 0
 125 003c 5C60     		str	r4, [r3, #4]
 126 003e 1460     		str	r4, [r2]
 127              	.LBE35:
 128              	.LBE34:
 129              		.loc 1 174 0
 130 0040 6562     		str	r5, [r4, #36]
 131              		.loc 1 175 0
 132 0042 0420     		movs	r0, #4
 133              	.LBE33:
 134              		.loc 1 187 0
 135 0044 BDE87040 		pop	{r4, r5, r6, lr}
 136              	.LVL8:
 137              	.LBB50:
 138              		.loc 1 175 0
 139 0048 FFF7FEBF 		b	chSchGoSleepS
 140              	.LVL9:
 141              	.L22:
 142              	.LBB36:
 143              	.LBB37:
 144              		.loc 2 75 0
 145 004c 90E80C00 		ldmia	r0, {r2, r3}
 146 0050 1A60     		str	r2, [r3]
 147              		.loc 2 76 0
 148 0052 0268     		ldr	r2, [r0]
 149 0054 5360     		str	r3, [r2, #4]
 150              	.LBE37:
 151              	.LBE36:
 152              		.loc 1 167 0
 153 0056 FFF7FEFF 		bl	chSchReadyI
 154              	.LVL10:
 155              		.loc 1 168 0
 156 005a E3E7     		b	.L5
 157              	.LVL11:
 158              	.L7:
 159              	.LBB38:
 160              	.LBB39:
 161              		.loc 2 75 0
 162 005c 90E80A00 		ldmia	r0, {r1, r3}
 163 0060 1960     		str	r1, [r3]
 164              	.LBE39:
 165              	.LBE38:
 166              		.loc 1 158 0
 167 0062 466A     		ldr	r6, [r0, #36]
 168              	.LVL12:
 169              	.LBB41:
 170              	.LBB40:
ARM GAS  /tmp/ccgy2IEu.s 			page 4


 171              		.loc 2 76 0
 172 0064 0168     		ldr	r1, [r0]
 173 0066 4B60     		str	r3, [r1, #4]
 174              	.LBE40:
 175              	.LBE41:
 176              	.LBB42:
 177              	.LBB43:
 178              		.loc 2 43 0
 179 0068 3346     		mov	r3, r6
 180 006a 02E0     		b	.L17
 181              	.LVL13:
 182              	.L15:
 183              		.loc 2 46 0
 184 006c 9968     		ldr	r1, [r3, #8]
 185 006e 8A42     		cmp	r2, r1
 186 0070 02D8     		bhi	.L16
 187              	.L17:
 188              		.loc 2 45 0
 189 0072 1B68     		ldr	r3, [r3]
 190              	.LVL14:
 191              		.loc 2 46 0
 192 0074 9E42     		cmp	r6, r3
 193 0076 F9D1     		bne	.L15
 194              	.L16:
 195              		.loc 2 48 0
 196 0078 5A68     		ldr	r2, [r3, #4]
 197 007a 4260     		str	r2, [r0, #4]
 198              		.loc 2 47 0
 199 007c 0360     		str	r3, [r0]
 200              		.loc 2 49 0
 201 007e 5860     		str	r0, [r3, #4]
 202 0080 1060     		str	r0, [r2]
 203 0082 CFE7     		b	.L5
 204              	.LVL15:
 205              	.L6:
 206              	.LBE43:
 207              	.LBE42:
 208              	.LBB44:
 209              	.LBB45:
 210              		.loc 2 75 0
 211 0084 90E80A00 		ldmia	r0, {r1, r3}
 212 0088 1960     		str	r1, [r3]
 213              	.LBE45:
 214              	.LBE44:
 215              		.loc 1 142 0
 216 008a 466A     		ldr	r6, [r0, #36]
 217              	.LVL16:
 218              	.LBB47:
 219              	.LBB46:
 220              		.loc 2 76 0
 221 008c 0168     		ldr	r1, [r0]
 222 008e 4B60     		str	r3, [r1, #4]
 223              	.LBE46:
 224              	.LBE47:
 225              		.loc 1 142 0
 226 0090 3346     		mov	r3, r6
 227 0092 02E0     		b	.L13
ARM GAS  /tmp/ccgy2IEu.s 			page 5


 228              	.LVL17:
 229              	.L9:
 230              	.LBB48:
 231              	.LBB49:
 232              		.loc 2 46 0
 233 0094 9968     		ldr	r1, [r3, #8]
 234 0096 9142     		cmp	r1, r2
 235 0098 02D3     		bcc	.L12
 236              	.L13:
 237              		.loc 2 45 0
 238 009a 1B68     		ldr	r3, [r3]
 239              	.LVL18:
 240              		.loc 2 46 0
 241 009c 9E42     		cmp	r6, r3
 242 009e F9D1     		bne	.L9
 243              	.L12:
 244              		.loc 2 48 0
 245 00a0 5A68     		ldr	r2, [r3, #4]
 246 00a2 4260     		str	r2, [r0, #4]
 247              		.loc 2 47 0
 248 00a4 0360     		str	r3, [r0]
 249              		.loc 2 49 0
 250 00a6 5860     		str	r0, [r3, #4]
 251 00a8 1060     		str	r0, [r2]
 252              	.LBE49:
 253              	.LBE48:
 254              		.loc 1 143 0
 255 00aa B068     		ldr	r0, [r6, #8]
 256              	.LVL19:
 257              		.loc 1 135 0
 258 00ac A268     		ldr	r2, [r4, #8]
 259 00ae 8368     		ldr	r3, [r0, #8]
 260              	.LVL20:
 261 00b0 9342     		cmp	r3, r2
 262 00b2 B0D3     		bcc	.L14
 263 00b4 B6E7     		b	.L5
 264              	.LVL21:
 265              	.L3:
 266              	.LBE50:
 267              		.loc 1 184 0
 268 00b6 E36B     		ldr	r3, [r4, #60]
 269 00b8 EB60     		str	r3, [r5, #12]
 270              		.loc 1 183 0
 271 00ba AC60     		str	r4, [r5, #8]
 272              		.loc 1 185 0
 273 00bc E563     		str	r5, [r4, #60]
 274 00be 70BD     		pop	{r4, r5, r6, pc}
 275              	.LVL22:
 276              	.L24:
 277              		.align	2
 278              	.L23:
 279 00c0 00000000 		.word	rlist
 280              		.cfi_endproc
 281              	.LFE120:
 282              		.size	chMtxLockS, .-chMtxLockS
 283 00c4 AFF30080 		.section	.text.chMtxLock,"ax",%progbits
 283      AFF30080 
ARM GAS  /tmp/ccgy2IEu.s 			page 6


 283      AFF30080 
 284              		.align	2
 285              		.p2align 4,,15
 286              		.global	chMtxLock
 287              		.thumb
 288              		.thumb_func
 289              		.type	chMtxLock, %function
 290              	chMtxLock:
 291              	.LFB119:
 292              		.loc 1 103 0
 293              		.cfi_startproc
 294              		@ args = 0, pretend = 0, frame = 0
 295              		@ frame_needed = 0, uses_anonymous_args = 0
 296              	.LVL23:
 297 0000 08B5     		push	{r3, lr}
 298              		.cfi_def_cfa_offset 8
 299              		.cfi_offset 3, -8
 300              		.cfi_offset 14, -4
 301              	.LBB51:
 302              		.loc 1 105 0
 303 0002 4023     		movs	r3, #64
 304              	@ 105 "../../os/kernel/src/chmtx.c" 1
 305 0004 83F31188 		msr     BASEPRI, r3
 306              	@ 0 "" 2
 307              		.thumb
 308              	.LBE51:
 309              		.loc 1 107 0
 310 0008 FFF7FEFF 		bl	chMtxLockS
 311              	.LVL24:
 312              	.LBB52:
 313              		.loc 1 109 0
 314 000c 0023     		movs	r3, #0
 315              	@ 109 "../../os/kernel/src/chmtx.c" 1
 316 000e 83F31188 		msr     BASEPRI, r3
 317              	@ 0 "" 2
 318              		.thumb
 319 0012 08BD     		pop	{r3, pc}
 320              	.LBE52:
 321              		.cfi_endproc
 322              	.LFE119:
 323              		.size	chMtxLock, .-chMtxLock
 324 0014 AFF30080 		.section	.text.chMtxTryLock,"ax",%progbits
 324      AFF30080 
 324      AFF30080 
 325              		.align	2
 326              		.p2align 4,,15
 327              		.global	chMtxTryLock
 328              		.thumb
 329              		.thumb_func
 330              		.type	chMtxTryLock, %function
 331              	chMtxTryLock:
 332              	.LFB121:
 333              		.loc 1 206 0
 334              		.cfi_startproc
 335              		@ args = 0, pretend = 0, frame = 0
 336              		@ frame_needed = 0, uses_anonymous_args = 0
 337              		@ link register save eliminated.
ARM GAS  /tmp/ccgy2IEu.s 			page 7


 338              	.LVL25:
 339              		.loc 1 206 0
 340 0000 0246     		mov	r2, r0
 341              	.LBB53:
 342              		.loc 1 209 0
 343 0002 4023     		movs	r3, #64
 344              	@ 209 "../../os/kernel/src/chmtx.c" 1
 345 0004 83F31188 		msr     BASEPRI, r3
 346              	@ 0 "" 2
 347              	.LVL26:
 348              		.thumb
 349              	.LBE53:
 350              	.LBB54:
 351              	.LBB55:
 352              		.loc 1 239 0
 353 0008 8368     		ldr	r3, [r0, #8]
 354 000a 23B1     		cbz	r3, .L29
 355              		.loc 1 240 0
 356 000c 0020     		movs	r0, #0
 357              	.LVL27:
 358              	.LBE55:
 359              	.LBE54:
 360              	.LBB57:
 361              		.loc 1 213 0
 362 000e 0023     		movs	r3, #0
 363              	@ 213 "../../os/kernel/src/chmtx.c" 1
 364 0010 83F31188 		msr     BASEPRI, r3
 365              	@ 0 "" 2
 366              		.thumb
 367              	.LBE57:
 368              		.loc 1 215 0
 369 0014 7047     		bx	lr
 370              	.LVL28:
 371              	.L29:
 372              	.LBB58:
 373              	.LBB56:
 374              		.loc 1 241 0
 375 0016 054B     		ldr	r3, .L30
 376 0018 9B69     		ldr	r3, [r3, #24]
 377 001a 8360     		str	r3, [r0, #8]
 378              		.loc 1 242 0
 379 001c D96B     		ldr	r1, [r3, #60]
 380 001e C160     		str	r1, [r0, #12]
 381              		.loc 1 243 0
 382 0020 DA63     		str	r2, [r3, #60]
 383              		.loc 1 244 0
 384 0022 0120     		movs	r0, #1
 385              	.LVL29:
 386              	.LBE56:
 387              	.LBE58:
 388              	.LBB59:
 389              		.loc 1 213 0
 390 0024 0023     		movs	r3, #0
 391              	@ 213 "../../os/kernel/src/chmtx.c" 1
 392 0026 83F31188 		msr     BASEPRI, r3
 393              	@ 0 "" 2
 394              		.thumb
ARM GAS  /tmp/ccgy2IEu.s 			page 8


 395              	.LBE59:
 396              		.loc 1 215 0
 397 002a 7047     		bx	lr
 398              	.L31:
 399              		.align	2
 400              	.L30:
 401 002c 00000000 		.word	rlist
 402              		.cfi_endproc
 403              	.LFE121:
 404              		.size	chMtxTryLock, .-chMtxTryLock
 405              		.section	.text.chMtxTryLockS,"ax",%progbits
 406              		.align	2
 407              		.p2align 4,,15
 408              		.global	chMtxTryLockS
 409              		.thumb
 410              		.thumb_func
 411              		.type	chMtxTryLockS, %function
 412              	chMtxTryLockS:
 413              	.LFB122:
 414              		.loc 1 234 0
 415              		.cfi_startproc
 416              		@ args = 0, pretend = 0, frame = 0
 417              		@ frame_needed = 0, uses_anonymous_args = 0
 418              		@ link register save eliminated.
 419              	.LVL30:
 420              		.loc 1 239 0
 421 0000 8268     		ldr	r2, [r0, #8]
 422              		.loc 1 234 0
 423 0002 0346     		mov	r3, r0
 424              		.loc 1 239 0
 425 0004 0AB1     		cbz	r2, .L35
 426              		.loc 1 240 0
 427 0006 0020     		movs	r0, #0
 428              	.LVL31:
 429              		.loc 1 245 0
 430 0008 7047     		bx	lr
 431              	.LVL32:
 432              	.L35:
 433              		.loc 1 241 0
 434 000a 044A     		ldr	r2, .L36
 435 000c 9269     		ldr	r2, [r2, #24]
 436 000e 8260     		str	r2, [r0, #8]
 437              		.loc 1 242 0
 438 0010 D16B     		ldr	r1, [r2, #60]
 439 0012 C160     		str	r1, [r0, #12]
 440              		.loc 1 244 0
 441 0014 0120     		movs	r0, #1
 442              	.LVL33:
 443              		.loc 1 243 0
 444 0016 D363     		str	r3, [r2, #60]
 445              		.loc 1 244 0
 446 0018 7047     		bx	lr
 447              	.L37:
 448 001a 00BF     		.align	2
 449              	.L36:
 450 001c 00000000 		.word	rlist
 451              		.cfi_endproc
ARM GAS  /tmp/ccgy2IEu.s 			page 9


 452              	.LFE122:
 453              		.size	chMtxTryLockS, .-chMtxTryLockS
 454              		.section	.text.chMtxUnlock,"ax",%progbits
 455              		.align	2
 456              		.p2align 4,,15
 457              		.global	chMtxUnlock
 458              		.thumb
 459              		.thumb_func
 460              		.type	chMtxUnlock, %function
 461              	chMtxUnlock:
 462              	.LFB123:
 463              		.loc 1 257 0
 464              		.cfi_startproc
 465              		@ args = 0, pretend = 0, frame = 0
 466              		@ frame_needed = 0, uses_anonymous_args = 0
 467              		.loc 1 258 0
 468 0000 174A     		ldr	r2, .L50
 469              		.loc 1 257 0
 470 0002 38B5     		push	{r3, r4, r5, lr}
 471              		.cfi_def_cfa_offset 16
 472              		.cfi_offset 3, -16
 473              		.cfi_offset 4, -12
 474              		.cfi_offset 5, -8
 475              		.cfi_offset 14, -4
 476              		.loc 1 258 0
 477 0004 9069     		ldr	r0, [r2, #24]
 478              	.LVL34:
 479              	.LBB60:
 480              		.loc 1 261 0
 481 0006 4023     		movs	r3, #64
 482              	@ 261 "../../os/kernel/src/chmtx.c" 1
 483 0008 83F31188 		msr     BASEPRI, r3
 484              	@ 0 "" 2
 485              		.thumb
 486              	.LBE60:
 487              		.loc 1 270 0
 488 000c C46B     		ldr	r4, [r0, #60]
 489              	.LVL35:
 490              		.loc 1 273 0
 491 000e 2568     		ldr	r5, [r4]
 492              		.loc 1 271 0
 493 0010 E368     		ldr	r3, [r4, #12]
 494 0012 C363     		str	r3, [r0, #60]
 495              		.loc 1 273 0
 496 0014 A542     		cmp	r5, r4
 497 0016 1CD0     		beq	.L39
 498              	.LBB61:
 499              		.loc 1 278 0
 500 0018 016C     		ldr	r1, [r0, #64]
 501              	.LVL36:
 502              		.loc 1 280 0
 503 001a 4BB1     		cbz	r3, .L40
 504              	.L42:
 505              		.loc 1 284 0
 506 001c 1A68     		ldr	r2, [r3]
 507 001e 9A42     		cmp	r2, r3
 508 0020 03D0     		beq	.L41
ARM GAS  /tmp/ccgy2IEu.s 			page 10


 509              		.loc 1 284 0 is_stmt 0 discriminator 1
 510 0022 9268     		ldr	r2, [r2, #8]
 511 0024 9142     		cmp	r1, r2
 512 0026 38BF     		it	cc
 513 0028 1146     		movcc	r1, r2
 514              	.LVL37:
 515              	.L41:
 516              		.loc 1 286 0 is_stmt 1
 517 002a DB68     		ldr	r3, [r3, #12]
 518              	.LVL38:
 519              		.loc 1 280 0
 520 002c 002B     		cmp	r3, #0
 521 002e F5D1     		bne	.L42
 522              	.L40:
 523              	.LBB62:
 524              	.LBB63:
 525              		.loc 2 62 0
 526 0030 2B68     		ldr	r3, [r5]
 527              	.LVL39:
 528              	.LBE63:
 529              	.LBE62:
 530              		.loc 1 295 0
 531 0032 EA6B     		ldr	r2, [r5, #60]
 532              		.loc 1 290 0
 533 0034 8160     		str	r1, [r0, #8]
 534              	.LVL40:
 535              	.LBB66:
 536              	.LBB64:
 537              		.loc 2 62 0
 538 0036 2360     		str	r3, [r4]
 539              	.LBE64:
 540              	.LBE66:
 541              		.loc 1 297 0
 542 0038 2846     		mov	r0, r5
 543              	.LVL41:
 544              	.LBB67:
 545              	.LBB65:
 546              		.loc 2 62 0
 547 003a 5C60     		str	r4, [r3, #4]
 548              	.LBE65:
 549              	.LBE67:
 550              		.loc 1 297 0
 551 003c 0021     		movs	r1, #0
 552              	.LVL42:
 553              		.loc 1 294 0
 554 003e A560     		str	r5, [r4, #8]
 555              		.loc 1 295 0
 556 0040 E260     		str	r2, [r4, #12]
 557              		.loc 1 296 0
 558 0042 EC63     		str	r4, [r5, #60]
 559              		.loc 1 297 0
 560 0044 FFF7FEFF 		bl	chSchWakeupS
 561              	.LVL43:
 562              	.LBE61:
 563              	.LBB68:
 564              		.loc 1 301 0
 565 0048 0023     		movs	r3, #0
ARM GAS  /tmp/ccgy2IEu.s 			page 11


 566              	@ 301 "../../os/kernel/src/chmtx.c" 1
 567 004a 83F31188 		msr     BASEPRI, r3
 568              	@ 0 "" 2
 569              		.thumb
 570              	.LBE68:
 571              		.loc 1 303 0
 572 004e 2046     		mov	r0, r4
 573 0050 38BD     		pop	{r3, r4, r5, pc}
 574              	.LVL44:
 575              	.L39:
 576              		.loc 1 300 0
 577 0052 0023     		movs	r3, #0
 578 0054 A360     		str	r3, [r4, #8]
 579              	.LBB69:
 580              		.loc 1 301 0
 581 0056 0023     		movs	r3, #0
 582              	@ 301 "../../os/kernel/src/chmtx.c" 1
 583 0058 83F31188 		msr     BASEPRI, r3
 584              	@ 0 "" 2
 585              		.thumb
 586              	.LBE69:
 587              		.loc 1 303 0
 588 005c 2046     		mov	r0, r4
 589              	.LVL45:
 590 005e 38BD     		pop	{r3, r4, r5, pc}
 591              	.LVL46:
 592              	.L51:
 593              		.align	2
 594              	.L50:
 595 0060 00000000 		.word	rlist
 596              		.cfi_endproc
 597              	.LFE123:
 598              		.size	chMtxUnlock, .-chMtxUnlock
 599 0064 AFF30080 		.section	.text.chMtxUnlockS,"ax",%progbits
 599      AFF30080 
 599      AFF30080 
 600              		.align	2
 601              		.p2align 4,,15
 602              		.global	chMtxUnlockS
 603              		.thumb
 604              		.thumb_func
 605              		.type	chMtxUnlockS, %function
 606              	chMtxUnlockS:
 607              	.LFB124:
 608              		.loc 1 317 0
 609              		.cfi_startproc
 610              		@ args = 0, pretend = 0, frame = 0
 611              		@ frame_needed = 0, uses_anonymous_args = 0
 612 0000 38B5     		push	{r3, r4, r5, lr}
 613              		.cfi_def_cfa_offset 16
 614              		.cfi_offset 3, -16
 615              		.cfi_offset 4, -12
 616              		.cfi_offset 5, -8
 617              		.cfi_offset 14, -4
 618              		.loc 1 318 0
 619 0002 124B     		ldr	r3, .L64
 620 0004 9869     		ldr	r0, [r3, #24]
ARM GAS  /tmp/ccgy2IEu.s 			page 12


 621              	.LVL47:
 622              		.loc 1 331 0
 623 0006 C46B     		ldr	r4, [r0, #60]
 624              	.LVL48:
 625              		.loc 1 334 0
 626 0008 2568     		ldr	r5, [r4]
 627              		.loc 1 332 0
 628 000a E368     		ldr	r3, [r4, #12]
 629 000c C363     		str	r3, [r0, #60]
 630              		.loc 1 334 0
 631 000e A542     		cmp	r5, r4
 632 0010 18D0     		beq	.L53
 633              	.LBB70:
 634              		.loc 1 339 0
 635 0012 016C     		ldr	r1, [r0, #64]
 636              	.LVL49:
 637              		.loc 1 341 0
 638 0014 4BB1     		cbz	r3, .L54
 639              	.L56:
 640              		.loc 1 345 0
 641 0016 1A68     		ldr	r2, [r3]
 642 0018 9A42     		cmp	r2, r3
 643 001a 03D0     		beq	.L55
 644              		.loc 1 345 0 is_stmt 0 discriminator 1
 645 001c 9268     		ldr	r2, [r2, #8]
 646 001e 9142     		cmp	r1, r2
 647 0020 38BF     		it	cc
 648 0022 1146     		movcc	r1, r2
 649              	.LVL50:
 650              	.L55:
 651              		.loc 1 347 0 is_stmt 1
 652 0024 DB68     		ldr	r3, [r3, #12]
 653              	.LVL51:
 654              		.loc 1 341 0
 655 0026 002B     		cmp	r3, #0
 656 0028 F5D1     		bne	.L56
 657              	.L54:
 658              	.LBB71:
 659              	.LBB72:
 660              		.loc 2 62 0
 661 002a 2B68     		ldr	r3, [r5]
 662              	.LVL52:
 663              	.LBE72:
 664              	.LBE71:
 665              		.loc 1 354 0
 666 002c EA6B     		ldr	r2, [r5, #60]
 667              		.loc 1 349 0
 668 002e 8160     		str	r1, [r0, #8]
 669              	.LVL53:
 670              	.LBB75:
 671              	.LBB73:
 672              		.loc 2 62 0
 673 0030 2360     		str	r3, [r4]
 674              	.LBE73:
 675              	.LBE75:
 676              		.loc 1 356 0
 677 0032 2846     		mov	r0, r5
ARM GAS  /tmp/ccgy2IEu.s 			page 13


 678              	.LVL54:
 679              	.LBB76:
 680              	.LBB74:
 681              		.loc 2 62 0
 682 0034 5C60     		str	r4, [r3, #4]
 683              	.LBE74:
 684              	.LBE76:
 685              		.loc 1 353 0
 686 0036 A560     		str	r5, [r4, #8]
 687              		.loc 1 354 0
 688 0038 E260     		str	r2, [r4, #12]
 689              		.loc 1 355 0
 690 003a EC63     		str	r4, [r5, #60]
 691              		.loc 1 356 0
 692 003c FFF7FEFF 		bl	chSchReadyI
 693              	.LVL55:
 694              	.LBE70:
 695              		.loc 1 361 0
 696 0040 2046     		mov	r0, r4
 697 0042 38BD     		pop	{r3, r4, r5, pc}
 698              	.LVL56:
 699              	.L53:
 700              		.loc 1 359 0
 701 0044 0023     		movs	r3, #0
 702 0046 A360     		str	r3, [r4, #8]
 703              		.loc 1 361 0
 704 0048 2046     		mov	r0, r4
 705              	.LVL57:
 706 004a 38BD     		pop	{r3, r4, r5, pc}
 707              	.LVL58:
 708              	.L65:
 709              		.align	2
 710              	.L64:
 711 004c 00000000 		.word	rlist
 712              		.cfi_endproc
 713              	.LFE124:
 714              		.size	chMtxUnlockS, .-chMtxUnlockS
 715              		.section	.text.chMtxUnlockAll,"ax",%progbits
 716              		.align	2
 717              		.p2align 4,,15
 718              		.global	chMtxUnlockAll
 719              		.thumb
 720              		.thumb_func
 721              		.type	chMtxUnlockAll, %function
 722              	chMtxUnlockAll:
 723              	.LFB125:
 724              		.loc 1 374 0
 725              		.cfi_startproc
 726              		@ args = 0, pretend = 0, frame = 0
 727              		@ frame_needed = 0, uses_anonymous_args = 0
 728              		.loc 1 375 0
 729 0000 134A     		ldr	r2, .L77
 730              		.loc 1 374 0
 731 0002 70B5     		push	{r4, r5, r6, lr}
 732              		.cfi_def_cfa_offset 16
 733              		.cfi_offset 4, -16
 734              		.cfi_offset 5, -12
ARM GAS  /tmp/ccgy2IEu.s 			page 14


 735              		.cfi_offset 6, -8
 736              		.cfi_offset 14, -4
 737              	.LBB77:
 738              		.loc 1 377 0
 739 0004 4023     		movs	r3, #64
 740              	.LBE77:
 741              		.loc 1 375 0
 742 0006 9469     		ldr	r4, [r2, #24]
 743              	.LVL59:
 744              	.LBB78:
 745              		.loc 1 377 0
 746              	@ 377 "../../os/kernel/src/chmtx.c" 1
 747 0008 83F31188 		msr     BASEPRI, r3
 748              	@ 0 "" 2
 749              		.thumb
 750              	.LBE78:
 751              		.loc 1 378 0
 752 000c E36B     		ldr	r3, [r4, #60]
 753 000e D3B1     		cbz	r3, .L67
 754              	.LBB79:
 755              		.loc 1 390 0
 756 0010 0026     		movs	r6, #0
 757 0012 0BE0     		b	.L71
 758              	.LVL60:
 759              	.L76:
 760              	.LBB80:
 761              	.LBB81:
 762              	.LBB82:
 763              		.loc 2 62 0
 764 0014 1168     		ldr	r1, [r2]
 765              	.LBE82:
 766              	.LBE81:
 767              		.loc 1 385 0
 768 0016 D56B     		ldr	r5, [r2, #60]
 769              	.LBB85:
 770              	.LBB83:
 771              		.loc 2 62 0
 772 0018 1960     		str	r1, [r3]
 773              	.LBE83:
 774              	.LBE85:
 775              		.loc 1 387 0
 776 001a 1046     		mov	r0, r2
 777              	.LBB86:
 778              	.LBB84:
 779              		.loc 2 62 0
 780 001c 4B60     		str	r3, [r1, #4]
 781              	.LBE84:
 782              	.LBE86:
 783              		.loc 1 384 0
 784 001e 9A60     		str	r2, [r3, #8]
 785              		.loc 1 385 0
 786 0020 DD60     		str	r5, [r3, #12]
 787              		.loc 1 386 0
 788 0022 D363     		str	r3, [r2, #60]
 789              		.loc 1 387 0
 790 0024 FFF7FEFF 		bl	chSchReadyI
 791              	.LVL61:
ARM GAS  /tmp/ccgy2IEu.s 			page 15


 792              	.LBE80:
 793              	.LBE79:
 794              		.loc 1 391 0
 795 0028 E36B     		ldr	r3, [r4, #60]
 796 002a 43B1     		cbz	r3, .L75
 797              	.L71:
 798              	.LVL62:
 799              	.LBB87:
 800              		.loc 1 382 0
 801 002c 1A68     		ldr	r2, [r3]
 802              	.LVL63:
 803              		.loc 1 381 0
 804 002e D968     		ldr	r1, [r3, #12]
 805 0030 E163     		str	r1, [r4, #60]
 806              		.loc 1 382 0
 807 0032 9A42     		cmp	r2, r3
 808 0034 EED1     		bne	.L76
 809              		.loc 1 390 0
 810 0036 9E60     		str	r6, [r3, #8]
 811              	.LBE87:
 812              		.loc 1 391 0
 813 0038 E36B     		ldr	r3, [r4, #60]
 814              	.LVL64:
 815 003a 002B     		cmp	r3, #0
 816 003c F6D1     		bne	.L71
 817              	.LVL65:
 818              	.L75:
 819              		.loc 1 392 0
 820 003e 236C     		ldr	r3, [r4, #64]
 821 0040 A360     		str	r3, [r4, #8]
 822              		.loc 1 393 0
 823 0042 FFF7FEFF 		bl	chSchRescheduleS
 824              	.LVL66:
 825              	.L67:
 826              	.LBB88:
 827              		.loc 1 395 0
 828 0046 0023     		movs	r3, #0
 829              	@ 395 "../../os/kernel/src/chmtx.c" 1
 830 0048 83F31188 		msr     BASEPRI, r3
 831              	@ 0 "" 2
 832              		.thumb
 833 004c 70BD     		pop	{r4, r5, r6, pc}
 834              	.LVL67:
 835              	.L78:
 836 004e 00BF     		.align	2
 837              	.L77:
 838 0050 00000000 		.word	rlist
 839              	.LBE88:
 840              		.cfi_endproc
 841              	.LFE125:
 842              		.size	chMtxUnlockAll, .-chMtxUnlockAll
 843 0054 AFF30080 		.text
 843      AFF30080 
 843      AFF30080 
 844              	.Letext0:
 845              		.file 3 "/usr/include/newlib/machine/_default_types.h"
 846              		.file 4 "/usr/include/newlib/stdint.h"
ARM GAS  /tmp/ccgy2IEu.s 			page 16


 847              		.file 5 "../../os/ports/GCC/ARMCMx/chtypes.h"
 848              		.file 6 "../../os/kernel/include/chlists.h"
 849              		.file 7 "../../os/kernel/include/chthreads.h"
 850              		.file 8 "../../os/ports/GCC/ARMCMx/chcore_v7m.h"
 851              		.file 9 "../../os/kernel/include/chschd.h"
 852              		.file 10 "../../os/kernel/include/chmtx.h"
 853              		.file 11 "../../os/ports/common/ARMCMx/CMSIS/include/core_cm4.h"