ARM GAS  /tmp/ccXkb9tQ.s 			page 1


   1              		.syntax unified
   2              		.cpu cortex-m4
   3              		.fpu softvfp
   4              		.eabi_attribute 20, 1
   5              		.eabi_attribute 21, 1
   6              		.eabi_attribute 23, 3
   7              		.eabi_attribute 24, 1
   8              		.eabi_attribute 25, 1
   9              		.eabi_attribute 26, 1
  10              		.eabi_attribute 30, 2
  11              		.eabi_attribute 34, 1
  12              		.eabi_attribute 18, 4
  13              		.thumb
  14              		.file	"chqueues.c"
  15              		.text
  16              	.Ltext0:
  17              		.cfi_sections	.debug_frame
  18              		.section	.text.qwait,"ax",%progbits
  19              		.align	2
  20              		.p2align 4,,15
  21              		.thumb
  22              		.thumb_func
  23              		.type	qwait, %function
  24              	qwait:
  25              	.LFB118:
  26              		.file 1 "../../os/kernel/src/chqueues.c"
  27              		.loc 1 70 0
  28              		.cfi_startproc
  29              		@ args = 0, pretend = 0, frame = 0
  30              		@ frame_needed = 0, uses_anonymous_args = 0
  31              		@ link register save eliminated.
  32              	.LVL0:
  33 0000 10B4     		push	{r4}
  34              		.cfi_def_cfa_offset 4
  35              		.cfi_offset 4, -4
  36              		.loc 1 70 0
  37 0002 0246     		mov	r2, r0
  38              		.loc 1 72 0
  39 0004 61B1     		cbz	r1, .L2
  40              		.loc 1 74 0
  41 0006 094B     		ldr	r3, .L4
  42 0008 9B69     		ldr	r3, [r3, #24]
  43 000a 5862     		str	r0, [r3, #36]
  44              	.LVL1:
  45              	.LBB12:
  46              	.LBB13:
  47              		.file 2 "../../os/kernel/include/chinline.h"
  48              		.loc 2 55 0
  49 000c 4468     		ldr	r4, [r0, #4]
  50              	.LBE13:
  51              	.LBE12:
  52              		.loc 1 76 0
  53 000e 0D20     		movs	r0, #13
  54              	.LVL2:
  55              	.LBB15:
  56              	.LBB14:
  57              		.loc 2 55 0
ARM GAS  /tmp/ccXkb9tQ.s 			page 2


  58 0010 83E81400 		stmia	r3, {r2, r4}
  59              		.loc 2 56 0
  60 0014 5360     		str	r3, [r2, #4]
  61 0016 2360     		str	r3, [r4]
  62              	.LBE14:
  63              	.LBE15:
  64              		.loc 1 77 0
  65 0018 5DF8044B 		ldr	r4, [sp], #4
  66              		.loc 1 76 0
  67 001c FFF7FEBF 		b	chSchGoSleepTimeoutS
  68              	.LVL3:
  69              	.L2:
  70              		.loc 1 77 0
  71 0020 4FF0FF30 		mov	r0, #-1
  72              	.LVL4:
  73 0024 5DF8044B 		ldr	r4, [sp], #4
  74 0028 7047     		bx	lr
  75              	.L5:
  76 002a 00BF     		.align	2
  77              	.L4:
  78 002c 00000000 		.word	rlist
  79              		.cfi_endproc
  80              	.LFE118:
  81              		.size	qwait, .-qwait
  82              		.section	.text.chIQInit,"ax",%progbits
  83              		.align	2
  84              		.p2align 4,,15
  85              		.global	chIQInit
  86              		.thumb
  87              		.thumb_func
  88              		.type	chIQInit, %function
  89              	chIQInit:
  90              	.LFB119:
  91              		.loc 1 96 0
  92              		.cfi_startproc
  93              		@ args = 4, pretend = 0, frame = 0
  94              		@ frame_needed = 0, uses_anonymous_args = 0
  95              		@ link register save eliminated.
  96              	.LVL5:
  97 0000 30B4     		push	{r4, r5}
  98              		.cfi_def_cfa_offset 8
  99              		.cfi_offset 4, -8
 100              		.cfi_offset 5, -4
 101              		.loc 1 96 0
 102 0002 029C     		ldr	r4, [sp, #8]
 103              		.loc 1 103 0
 104 0004 0462     		str	r4, [r0, #32]
 105              		.loc 1 99 0
 106 0006 0025     		movs	r5, #0
 107              		.loc 1 101 0
 108 0008 0A44     		add	r2, r2, r1
 109              	.LVL6:
 110              		.loc 1 99 0
 111 000a 8560     		str	r5, [r0, #8]
 112              		.loc 1 101 0
 113 000c 0261     		str	r2, [r0, #16]
 114              		.loc 1 98 0
ARM GAS  /tmp/ccXkb9tQ.s 			page 3


 115 000e 4060     		str	r0, [r0, #4]
 116 0010 0060     		str	r0, [r0]
 117              		.loc 1 100 0
 118 0012 4161     		str	r1, [r0, #20]
 119 0014 8161     		str	r1, [r0, #24]
 120 0016 C160     		str	r1, [r0, #12]
 121              		.loc 1 102 0
 122 0018 C361     		str	r3, [r0, #28]
 123              		.loc 1 104 0
 124 001a 30BC     		pop	{r4, r5}
 125              	.LVL7:
 126 001c 7047     		bx	lr
 127              		.cfi_endproc
 128              	.LFE119:
 129              		.size	chIQInit, .-chIQInit
 130 001e 00BF     		.section	.text.chIQResetI,"ax",%progbits
 131              		.align	2
 132              		.p2align 4,,15
 133              		.global	chIQResetI
 134              		.thumb
 135              		.thumb_func
 136              		.type	chIQResetI, %function
 137              	chIQResetI:
 138              	.LFB120:
 139              		.loc 1 117 0
 140              		.cfi_startproc
 141              		@ args = 0, pretend = 0, frame = 0
 142              		@ frame_needed = 0, uses_anonymous_args = 0
 143              	.LVL8:
 144 0000 38B5     		push	{r3, r4, r5, lr}
 145              		.cfi_def_cfa_offset 16
 146              		.cfi_offset 3, -16
 147              		.cfi_offset 4, -12
 148              		.cfi_offset 5, -8
 149              		.cfi_offset 14, -4
 150              		.loc 1 117 0
 151 0002 0446     		mov	r4, r0
 152              		.loc 1 123 0
 153 0004 0068     		ldr	r0, [r0]
 154              	.LVL9:
 155              		.loc 1 121 0
 156 0006 E368     		ldr	r3, [r4, #12]
 157 0008 6361     		str	r3, [r4, #20]
 158              		.loc 1 122 0
 159 000a 0022     		movs	r2, #0
 160              		.loc 1 123 0
 161 000c A042     		cmp	r0, r4
 162              		.loc 1 122 0
 163 000e A260     		str	r2, [r4, #8]
 164              		.loc 1 121 0
 165 0010 A361     		str	r3, [r4, #24]
 166              		.loc 1 123 0
 167 0012 0AD0     		beq	.L7
 168              		.loc 1 124 0
 169 0014 6FF00105 		mvn	r5, #1
 170              	.L10:
 171              	.LVL10:
ARM GAS  /tmp/ccXkb9tQ.s 			page 4


 172              	.LBB16:
 173              	.LBB17:
 174              		.loc 2 62 0
 175 0018 0368     		ldr	r3, [r0]
 176 001a 2360     		str	r3, [r4]
 177 001c 5C60     		str	r4, [r3, #4]
 178              	.LBE17:
 179              	.LBE16:
 180              		.loc 1 124 0
 181 001e FFF7FEFF 		bl	chSchReadyI
 182              	.LVL11:
 183 0022 4562     		str	r5, [r0, #36]
 184              		.loc 1 123 0
 185 0024 2068     		ldr	r0, [r4]
 186 0026 A042     		cmp	r0, r4
 187 0028 F6D1     		bne	.L10
 188              	.LVL12:
 189              	.L7:
 190 002a 38BD     		pop	{r3, r4, r5, pc}
 191              		.cfi_endproc
 192              	.LFE120:
 193              		.size	chIQResetI, .-chIQResetI
 194 002c AFF30080 		.section	.text.chIQPutI,"ax",%progbits
 195              		.align	2
 196              		.p2align 4,,15
 197              		.global	chIQPutI
 198              		.thumb
 199              		.thumb_func
 200              		.type	chIQPutI, %function
 201              	chIQPutI:
 202              	.LFB121:
 203              		.loc 1 140 0
 204              		.cfi_startproc
 205              		@ args = 0, pretend = 0, frame = 0
 206              		@ frame_needed = 0, uses_anonymous_args = 0
 207              	.LVL13:
 208 0000 0346     		mov	r3, r0
 209              		.loc 1 144 0
 210 0002 4269     		ldr	r2, [r0, #20]
 211 0004 8069     		ldr	r0, [r0, #24]
 212              	.LVL14:
 213 0006 8242     		cmp	r2, r0
 214              		.loc 1 140 0
 215 0008 10B5     		push	{r4, lr}
 216              		.cfi_def_cfa_offset 8
 217              		.cfi_offset 4, -8
 218              		.cfi_offset 14, -4
 219              		.loc 1 144 0
 220 000a 9868     		ldr	r0, [r3, #8]
 221 000c 1BD0     		beq	.L20
 222              	.L14:
 223              		.loc 1 148 0
 224 000e 541C     		adds	r4, r2, #1
 225              		.loc 1 147 0
 226 0010 0130     		adds	r0, r0, #1
 227              		.loc 1 148 0
 228 0012 5C61     		str	r4, [r3, #20]
ARM GAS  /tmp/ccXkb9tQ.s 			page 5


 229              		.loc 1 147 0
 230 0014 9860     		str	r0, [r3, #8]
 231              		.loc 1 148 0
 232 0016 1170     		strb	r1, [r2]
 233              		.loc 1 149 0
 234 0018 5969     		ldr	r1, [r3, #20]
 235              	.LVL15:
 236 001a 1A69     		ldr	r2, [r3, #16]
 237              	.LVL16:
 238 001c 9142     		cmp	r1, r2
 239 001e 0BD2     		bcs	.L15
 240              		.loc 1 152 0
 241 0020 1868     		ldr	r0, [r3]
 242 0022 9842     		cmp	r0, r3
 243 0024 0DD0     		beq	.L18
 244              	.LVL17:
 245              	.L21:
 246              	.LBB18:
 247              	.LBB19:
 248              		.loc 2 62 0
 249 0026 0268     		ldr	r2, [r0]
 250 0028 1A60     		str	r2, [r3]
 251 002a 5360     		str	r3, [r2, #4]
 252              	.LBE19:
 253              	.LBE18:
 254              		.loc 1 153 0
 255 002c FFF7FEFF 		bl	chSchReadyI
 256              	.LVL18:
 257 0030 0023     		movs	r3, #0
 258 0032 4362     		str	r3, [r0, #36]
 259              		.loc 1 155 0
 260 0034 1846     		mov	r0, r3
 261 0036 10BD     		pop	{r4, pc}
 262              	.LVL19:
 263              	.L15:
 264              		.loc 1 152 0
 265 0038 1868     		ldr	r0, [r3]
 266              		.loc 1 150 0
 267 003a DA68     		ldr	r2, [r3, #12]
 268 003c 5A61     		str	r2, [r3, #20]
 269              	.LVL20:
 270              		.loc 1 152 0
 271 003e 9842     		cmp	r0, r3
 272 0040 F1D1     		bne	.L21
 273              	.L18:
 274              		.loc 1 155 0
 275 0042 0020     		movs	r0, #0
 276 0044 10BD     		pop	{r4, pc}
 277              	.LVL21:
 278              	.L20:
 279              		.loc 1 144 0 discriminator 1
 280 0046 0028     		cmp	r0, #0
 281 0048 E1D0     		beq	.L14
 282              		.loc 1 145 0
 283 004a 6FF00300 		mvn	r0, #3
 284 004e 10BD     		pop	{r4, pc}
 285              		.cfi_endproc
ARM GAS  /tmp/ccXkb9tQ.s 			page 6


 286              	.LFE121:
 287              		.size	chIQPutI, .-chIQPutI
 288              		.section	.text.chIQGetTimeout,"ax",%progbits
 289              		.align	2
 290              		.p2align 4,,15
 291              		.global	chIQGetTimeout
 292              		.thumb
 293              		.thumb_func
 294              		.type	chIQGetTimeout, %function
 295              	chIQGetTimeout:
 296              	.LFB122:
 297              		.loc 1 178 0
 298              		.cfi_startproc
 299              		@ args = 0, pretend = 0, frame = 0
 300              		@ frame_needed = 0, uses_anonymous_args = 0
 301              	.LVL22:
 302 0000 70B5     		push	{r4, r5, r6, lr}
 303              		.cfi_def_cfa_offset 16
 304              		.cfi_offset 4, -16
 305              		.cfi_offset 5, -12
 306              		.cfi_offset 6, -8
 307              		.cfi_offset 14, -4
 308              	.LBB20:
 309              		.loc 1 181 0
 310 0002 4023     		movs	r3, #64
 311              	.LBE20:
 312              		.loc 1 178 0
 313 0004 0E46     		mov	r6, r1
 314 0006 0446     		mov	r4, r0
 315              	.LBB21:
 316              		.loc 1 181 0
 317              	@ 181 "../../os/kernel/src/chqueues.c" 1
 318 0008 83F31188 		msr     BASEPRI, r3
 319              	@ 0 "" 2
 320              		.thumb
 321              	.LBE21:
 322              		.loc 1 182 0
 323 000c C369     		ldr	r3, [r0, #28]
 324 000e 2BB1     		cbz	r3, .L25
 325              		.loc 1 183 0
 326 0010 9847     		blx	r3
 327              	.LVL23:
 328 0012 03E0     		b	.L25
 329              	.LVL24:
 330              	.L27:
 331              	.LBB22:
 332              		.loc 1 187 0
 333 0014 FFF7FEFF 		bl	qwait
 334              	.LVL25:
 335 0018 0028     		cmp	r0, #0
 336 001a 15DB     		blt	.L32
 337              	.LVL26:
 338              	.L25:
 339              	.LBE22:
 340              		.loc 1 185 0 discriminator 1
 341 001c A568     		ldr	r5, [r4, #8]
 342              	.LBB24:
ARM GAS  /tmp/ccXkb9tQ.s 			page 7


 343              		.loc 1 187 0 discriminator 1
 344 001e 2046     		mov	r0, r4
 345 0020 3146     		mov	r1, r6
 346              	.LBE24:
 347              		.loc 1 185 0 discriminator 1
 348 0022 002D     		cmp	r5, #0
 349 0024 F6D0     		beq	.L27
 350              	.LVL27:
 351              		.loc 1 194 0
 352 0026 A269     		ldr	r2, [r4, #24]
 353              		.loc 1 195 0
 354 0028 2169     		ldr	r1, [r4, #16]
 355              	.LVL28:
 356              		.loc 1 194 0
 357 002a 531C     		adds	r3, r2, #1
 358              		.loc 1 195 0
 359 002c 8B42     		cmp	r3, r1
 360              		.loc 1 193 0
 361 002e 05F1FF35 		add	r5, r5, #-1
 362              		.loc 1 194 0
 363 0032 A361     		str	r3, [r4, #24]
 364              		.loc 1 193 0
 365 0034 A560     		str	r5, [r4, #8]
 366              		.loc 1 196 0
 367 0036 28BF     		it	cs
 368 0038 E368     		ldrcs	r3, [r4, #12]
 369              		.loc 1 194 0
 370 003a 1078     		ldrb	r0, [r2]	@ zero_extendqisi2
 371              	.LVL29:
 372              		.loc 1 196 0
 373 003c 28BF     		it	cs
 374 003e A361     		strcs	r3, [r4, #24]
 375              	.LVL30:
 376              	.LBB25:
 377              		.loc 1 198 0
 378 0040 0023     		movs	r3, #0
 379              	@ 198 "../../os/kernel/src/chqueues.c" 1
 380 0042 83F31188 		msr     BASEPRI, r3
 381              	@ 0 "" 2
 382              		.thumb
 383              	.LBE25:
 384              		.loc 1 200 0
 385 0046 70BD     		pop	{r4, r5, r6, pc}
 386              	.LVL31:
 387              	.L32:
 388              	.LBB26:
 389              	.LBB23:
 390              		.loc 1 188 0
 391 0048 2B46     		mov	r3, r5
 392              	@ 188 "../../os/kernel/src/chqueues.c" 1
 393 004a 83F31188 		msr     BASEPRI, r3
 394              	@ 0 "" 2
 395              		.thumb
 396              	.LBE23:
 397              		.loc 1 189 0
 398 004e 70BD     		pop	{r4, r5, r6, pc}
 399              	.LBE26:
ARM GAS  /tmp/ccXkb9tQ.s 			page 8


 400              		.cfi_endproc
 401              	.LFE122:
 402              		.size	chIQGetTimeout, .-chIQGetTimeout
 403              		.section	.text.chIQReadTimeout,"ax",%progbits
 404              		.align	2
 405              		.p2align 4,,15
 406              		.global	chIQReadTimeout
 407              		.thumb
 408              		.thumb_func
 409              		.type	chIQReadTimeout, %function
 410              	chIQReadTimeout:
 411              	.LFB123:
 412              		.loc 1 227 0
 413              		.cfi_startproc
 414              		@ args = 0, pretend = 0, frame = 0
 415              		@ frame_needed = 0, uses_anonymous_args = 0
 416              	.LVL32:
 417 0000 2DE9F047 		push	{r4, r5, r6, r7, r8, r9, r10, lr}
 418              		.cfi_def_cfa_offset 32
 419              		.cfi_offset 4, -32
 420              		.cfi_offset 5, -28
 421              		.cfi_offset 6, -24
 422              		.cfi_offset 7, -20
 423              		.cfi_offset 8, -16
 424              		.cfi_offset 9, -12
 425              		.cfi_offset 10, -8
 426              		.cfi_offset 14, -4
 427              		.loc 1 227 0
 428 0004 1E46     		mov	r6, r3
 429 0006 0446     		mov	r4, r0
 430              		.loc 1 228 0
 431 0008 D0F81C80 		ldr	r8, [r0, #28]
 432              	.LVL33:
 433              	.LBB27:
 434              		.loc 1 233 0
 435 000c 4023     		movs	r3, #64
 436              	.LVL34:
 437              	@ 233 "../../os/kernel/src/chqueues.c" 1
 438 000e 83F31188 		msr     BASEPRI, r3
 439              	@ 0 "" 2
 440              		.thumb
 441              	.LBE27:
 442              		.loc 1 229 0
 443 0012 4FF00009 		mov	r9, #0
 444 0016 01EB020A 		add	r10, r1, r2
 445 001a 4F1C     		adds	r7, r1, #1
 446              	.LVL35:
 447              	.L40:
 448              		.loc 1 235 0
 449 001c B8F1000F 		cmp	r8, #0
 450 0020 05D0     		beq	.L36
 451              		.loc 1 236 0
 452 0022 2046     		mov	r0, r4
 453              	.LVL36:
 454 0024 C047     		blx	r8
 455              	.LVL37:
 456 0026 02E0     		b	.L36
ARM GAS  /tmp/ccXkb9tQ.s 			page 9


 457              	.LVL38:
 458              	.L38:
 459              		.loc 1 239 0
 460 0028 FFF7FEFF 		bl	qwait
 461              	.LVL39:
 462 002c F0B9     		cbnz	r0, .L44
 463              	.L36:
 464              		.loc 1 238 0 discriminator 1
 465 002e A568     		ldr	r5, [r4, #8]
 466              		.loc 1 239 0 discriminator 1
 467 0030 2046     		mov	r0, r4
 468 0032 3146     		mov	r1, r6
 469              		.loc 1 238 0 discriminator 1
 470 0034 002D     		cmp	r5, #0
 471 0036 F7D0     		beq	.L38
 472              	.LVL40:
 473              		.loc 1 246 0
 474 0038 A369     		ldr	r3, [r4, #24]
 475              		.loc 1 245 0
 476 003a 013D     		subs	r5, r5, #1
 477              		.loc 1 246 0
 478 003c 5A1C     		adds	r2, r3, #1
 479 003e A261     		str	r2, [r4, #24]
 480              		.loc 1 245 0
 481 0040 A560     		str	r5, [r4, #8]
 482              	.LVL41:
 483              		.loc 1 246 0
 484 0042 1B78     		ldrb	r3, [r3]	@ zero_extendqisi2
 485 0044 07F8013C 		strb	r3, [r7, #-1]
 486              		.loc 1 247 0
 487 0048 2369     		ldr	r3, [r4, #16]
 488 004a A269     		ldr	r2, [r4, #24]
 489 004c 9A42     		cmp	r2, r3
 490              		.loc 1 248 0
 491 004e 24BF     		itt	cs
 492 0050 E368     		ldrcs	r3, [r4, #12]
 493 0052 A361     		strcs	r3, [r4, #24]
 494              	.LBB28:
 495              		.loc 1 250 0
 496 0054 0023     		movs	r3, #0
 497              	@ 250 "../../os/kernel/src/chqueues.c" 1
 498 0056 83F31188 		msr     BASEPRI, r3
 499              	@ 0 "" 2
 500              		.thumb
 501              	.LBE28:
 502              		.loc 1 252 0
 503 005a 5745     		cmp	r7, r10
 504              		.loc 1 251 0
 505 005c 09F10109 		add	r9, r9, #1
 506              	.LVL42:
 507              		.loc 1 252 0
 508 0060 07D0     		beq	.L37
 509              	.LBB29:
 510              		.loc 1 255 0
 511 0062 4023     		movs	r3, #64
 512              	@ 255 "../../os/kernel/src/chqueues.c" 1
 513 0064 83F31188 		msr     BASEPRI, r3
ARM GAS  /tmp/ccXkb9tQ.s 			page 10


 514              	@ 0 "" 2
 515              		.thumb
 516 0068 0137     		adds	r7, r7, #1
 517              	.LBE29:
 518              		.loc 1 256 0
 519 006a D7E7     		b	.L40
 520              	.LVL43:
 521              	.L44:
 522              	.LBB30:
 523              		.loc 1 240 0
 524 006c 2B46     		mov	r3, r5
 525              	@ 240 "../../os/kernel/src/chqueues.c" 1
 526 006e 83F31188 		msr     BASEPRI, r3
 527              	@ 0 "" 2
 528              	.LVL44:
 529              		.thumb
 530              	.L37:
 531              	.LBE30:
 532              		.loc 1 257 0
 533 0072 4846     		mov	r0, r9
 534 0074 BDE8F087 		pop	{r4, r5, r6, r7, r8, r9, r10, pc}
 535              		.cfi_endproc
 536              	.LFE123:
 537              		.size	chIQReadTimeout, .-chIQReadTimeout
 538 0078 AFF30080 		.section	.text.chOQInit,"ax",%progbits
 538      AFF30080 
 539              		.align	2
 540              		.p2align 4,,15
 541              		.global	chOQInit
 542              		.thumb
 543              		.thumb_func
 544              		.type	chOQInit, %function
 545              	chOQInit:
 546              	.LFB124:
 547              		.loc 1 276 0
 548              		.cfi_startproc
 549              		@ args = 4, pretend = 0, frame = 0
 550              		@ frame_needed = 0, uses_anonymous_args = 0
 551              		@ link register save eliminated.
 552              	.LVL45:
 553 0000 30B4     		push	{r4, r5}
 554              		.cfi_def_cfa_offset 8
 555              		.cfi_offset 4, -8
 556              		.cfi_offset 5, -4
 557              		.loc 1 276 0
 558 0002 029C     		ldr	r4, [sp, #8]
 559              		.loc 1 283 0
 560 0004 0462     		str	r4, [r0, #32]
 561              		.loc 1 281 0
 562 0006 8D18     		adds	r5, r1, r2
 563 0008 0561     		str	r5, [r0, #16]
 564              		.loc 1 278 0
 565 000a 4060     		str	r0, [r0, #4]
 566 000c 0060     		str	r0, [r0]
 567              		.loc 1 279 0
 568 000e 8260     		str	r2, [r0, #8]
 569              		.loc 1 280 0
ARM GAS  /tmp/ccXkb9tQ.s 			page 11


 570 0010 4161     		str	r1, [r0, #20]
 571 0012 8161     		str	r1, [r0, #24]
 572 0014 C160     		str	r1, [r0, #12]
 573              		.loc 1 282 0
 574 0016 C361     		str	r3, [r0, #28]
 575              		.loc 1 284 0
 576 0018 30BC     		pop	{r4, r5}
 577              	.LVL46:
 578 001a 7047     		bx	lr
 579              		.cfi_endproc
 580              	.LFE124:
 581              		.size	chOQInit, .-chOQInit
 582 001c AFF30080 		.section	.text.chOQResetI,"ax",%progbits
 583              		.align	2
 584              		.p2align 4,,15
 585              		.global	chOQResetI
 586              		.thumb
 587              		.thumb_func
 588              		.type	chOQResetI, %function
 589              	chOQResetI:
 590              	.LFB125:
 591              		.loc 1 297 0
 592              		.cfi_startproc
 593              		@ args = 0, pretend = 0, frame = 0
 594              		@ frame_needed = 0, uses_anonymous_args = 0
 595              	.LVL47:
 596 0000 38B5     		push	{r3, r4, r5, lr}
 597              		.cfi_def_cfa_offset 16
 598              		.cfi_offset 3, -16
 599              		.cfi_offset 4, -12
 600              		.cfi_offset 5, -8
 601              		.cfi_offset 14, -4
 602              		.loc 1 302 0
 603 0002 0269     		ldr	r2, [r0, #16]
 604              		.loc 1 301 0
 605 0004 C368     		ldr	r3, [r0, #12]
 606              		.loc 1 297 0
 607 0006 0446     		mov	r4, r0
 608              		.loc 1 303 0
 609 0008 0068     		ldr	r0, [r0]
 610              	.LVL48:
 611              		.loc 1 301 0
 612 000a 6361     		str	r3, [r4, #20]
 613              		.loc 1 302 0
 614 000c D21A     		subs	r2, r2, r3
 615              		.loc 1 303 0
 616 000e A042     		cmp	r0, r4
 617              		.loc 1 301 0
 618 0010 A361     		str	r3, [r4, #24]
 619              		.loc 1 302 0
 620 0012 A260     		str	r2, [r4, #8]
 621              		.loc 1 303 0
 622 0014 0AD0     		beq	.L46
 623              		.loc 1 304 0
 624 0016 6FF00105 		mvn	r5, #1
 625              	.L49:
 626              	.LVL49:
ARM GAS  /tmp/ccXkb9tQ.s 			page 12


 627              	.LBB31:
 628              	.LBB32:
 629              		.loc 2 62 0
 630 001a 0368     		ldr	r3, [r0]
 631 001c 2360     		str	r3, [r4]
 632 001e 5C60     		str	r4, [r3, #4]
 633              	.LBE32:
 634              	.LBE31:
 635              		.loc 1 304 0
 636 0020 FFF7FEFF 		bl	chSchReadyI
 637              	.LVL50:
 638 0024 4562     		str	r5, [r0, #36]
 639              		.loc 1 303 0
 640 0026 2068     		ldr	r0, [r4]
 641 0028 A042     		cmp	r0, r4
 642 002a F6D1     		bne	.L49
 643              	.LVL51:
 644              	.L46:
 645 002c 38BD     		pop	{r3, r4, r5, pc}
 646              		.cfi_endproc
 647              	.LFE125:
 648              		.size	chOQResetI, .-chOQResetI
 649 002e 00BF     		.section	.text.chOQPutTimeout,"ax",%progbits
 650              		.align	2
 651              		.p2align 4,,15
 652              		.global	chOQPutTimeout
 653              		.thumb
 654              		.thumb_func
 655              		.type	chOQPutTimeout, %function
 656              	chOQPutTimeout:
 657              	.LFB126:
 658              		.loc 1 329 0
 659              		.cfi_startproc
 660              		@ args = 0, pretend = 0, frame = 0
 661              		@ frame_needed = 0, uses_anonymous_args = 0
 662              	.LVL52:
 663 0000 F8B5     		push	{r3, r4, r5, r6, r7, lr}
 664              		.cfi_def_cfa_offset 24
 665              		.cfi_offset 3, -24
 666              		.cfi_offset 4, -20
 667              		.cfi_offset 5, -16
 668              		.cfi_offset 6, -12
 669              		.cfi_offset 7, -8
 670              		.cfi_offset 14, -4
 671              		.loc 1 329 0
 672 0002 0446     		mov	r4, r0
 673 0004 0F46     		mov	r7, r1
 674 0006 1646     		mov	r6, r2
 675              	.LBB33:
 676              		.loc 1 331 0
 677 0008 4023     		movs	r3, #64
 678              	@ 331 "../../os/kernel/src/chqueues.c" 1
 679 000a 83F31188 		msr     BASEPRI, r3
 680              	@ 0 "" 2
 681              		.thumb
 682              	.LBE33:
 683              		.loc 1 332 0
ARM GAS  /tmp/ccXkb9tQ.s 			page 13


 684 000e 03E0     		b	.L51
 685              	.LVL53:
 686              	.L54:
 687              	.LBB34:
 688              		.loc 1 335 0
 689 0010 FFF7FEFF 		bl	qwait
 690              	.LVL54:
 691 0014 0028     		cmp	r0, #0
 692 0016 19DB     		blt	.L60
 693              	.LVL55:
 694              	.L51:
 695              	.LBE34:
 696              		.loc 1 332 0 discriminator 1
 697 0018 A568     		ldr	r5, [r4, #8]
 698              	.LBB36:
 699              		.loc 1 335 0 discriminator 1
 700 001a 2046     		mov	r0, r4
 701 001c 3146     		mov	r1, r6
 702              	.LBE36:
 703              		.loc 1 332 0 discriminator 1
 704 001e 002D     		cmp	r5, #0
 705 0020 F6D0     		beq	.L54
 706              	.LVL56:
 707              		.loc 1 342 0
 708 0022 6369     		ldr	r3, [r4, #20]
 709              		.loc 1 341 0
 710 0024 013D     		subs	r5, r5, #1
 711              		.loc 1 342 0
 712 0026 5A1C     		adds	r2, r3, #1
 713 0028 6261     		str	r2, [r4, #20]
 714              		.loc 1 341 0
 715 002a A560     		str	r5, [r4, #8]
 716              		.loc 1 342 0
 717 002c 1F70     		strb	r7, [r3]
 718              		.loc 1 343 0
 719 002e 2369     		ldr	r3, [r4, #16]
 720 0030 6269     		ldr	r2, [r4, #20]
 721 0032 9A42     		cmp	r2, r3
 722              		.loc 1 344 0
 723 0034 24BF     		itt	cs
 724 0036 E368     		ldrcs	r3, [r4, #12]
 725 0038 6361     		strcs	r3, [r4, #20]
 726              		.loc 1 346 0
 727 003a E369     		ldr	r3, [r4, #28]
 728 003c 0BB1     		cbz	r3, .L56
 729              		.loc 1 347 0
 730 003e 2046     		mov	r0, r4
 731              	.LVL57:
 732 0040 9847     		blx	r3
 733              	.LVL58:
 734              	.L56:
 735              	.LBB37:
 736              		.loc 1 349 0
 737 0042 0023     		movs	r3, #0
 738              	@ 349 "../../os/kernel/src/chqueues.c" 1
 739 0044 83F31188 		msr     BASEPRI, r3
 740              	@ 0 "" 2
ARM GAS  /tmp/ccXkb9tQ.s 			page 14


 741              		.thumb
 742              	.LBE37:
 743              		.loc 1 350 0
 744 0048 1846     		mov	r0, r3
 745              		.loc 1 351 0
 746 004a F8BD     		pop	{r3, r4, r5, r6, r7, pc}
 747              	.LVL59:
 748              	.L60:
 749              	.LBB38:
 750              	.LBB35:
 751              		.loc 1 336 0
 752 004c 2B46     		mov	r3, r5
 753              	@ 336 "../../os/kernel/src/chqueues.c" 1
 754 004e 83F31188 		msr     BASEPRI, r3
 755              	@ 0 "" 2
 756              		.thumb
 757              	.LBE35:
 758              		.loc 1 337 0
 759 0052 F8BD     		pop	{r3, r4, r5, r6, r7, pc}
 760              	.LBE38:
 761              		.cfi_endproc
 762              	.LFE126:
 763              		.size	chOQPutTimeout, .-chOQPutTimeout
 764 0054 AFF30080 		.section	.text.chOQGetI,"ax",%progbits
 764      AFF30080 
 764      AFF30080 
 765              		.align	2
 766              		.p2align 4,,15
 767              		.global	chOQGetI
 768              		.thumb
 769              		.thumb_func
 770              		.type	chOQGetI, %function
 771              	chOQGetI:
 772              	.LFB127:
 773              		.loc 1 363 0
 774              		.cfi_startproc
 775              		@ args = 0, pretend = 0, frame = 0
 776              		@ frame_needed = 0, uses_anonymous_args = 0
 777              	.LVL60:
 778              		.loc 1 368 0
 779 0000 4169     		ldr	r1, [r0, #20]
 780 0002 8269     		ldr	r2, [r0, #24]
 781 0004 9142     		cmp	r1, r2
 782              		.loc 1 363 0
 783 0006 10B5     		push	{r4, lr}
 784              		.cfi_def_cfa_offset 8
 785              		.cfi_offset 4, -8
 786              		.cfi_offset 14, -4
 787              		.loc 1 363 0
 788 0008 0346     		mov	r3, r0
 789              		.loc 1 368 0
 790 000a 8168     		ldr	r1, [r0, #8]
 791 000c 16D0     		beq	.L70
 792              	.L64:
 793              		.loc 1 373 0
 794 000e 1869     		ldr	r0, [r3, #16]
 795              	.LVL61:
ARM GAS  /tmp/ccXkb9tQ.s 			page 15


 796              		.loc 1 371 0
 797 0010 4C1C     		adds	r4, r1, #1
 798              		.loc 1 372 0
 799 0012 511C     		adds	r1, r2, #1
 800              		.loc 1 371 0
 801 0014 9C60     		str	r4, [r3, #8]
 802              		.loc 1 372 0
 803 0016 9961     		str	r1, [r3, #24]
 804              		.loc 1 373 0
 805 0018 8142     		cmp	r1, r0
 806              		.loc 1 372 0
 807 001a 1478     		ldrb	r4, [r2]	@ zero_extendqisi2
 808              	.LVL62:
 809              		.loc 1 373 0
 810 001c 0BD2     		bcs	.L66
 811              	.LVL63:
 812              	.L67:
 813              		.loc 1 376 0
 814 001e 1868     		ldr	r0, [r3]
 815 0020 9842     		cmp	r0, r3
 816 0022 06D0     		beq	.L65
 817              	.LVL64:
 818              	.LBB39:
 819              	.LBB40:
 820              		.loc 2 62 0
 821 0024 0268     		ldr	r2, [r0]
 822 0026 1A60     		str	r2, [r3]
 823 0028 5360     		str	r3, [r2, #4]
 824              	.LBE40:
 825              	.LBE39:
 826              		.loc 1 377 0
 827 002a FFF7FEFF 		bl	chSchReadyI
 828              	.LVL65:
 829 002e 0023     		movs	r3, #0
 830 0030 4362     		str	r3, [r0, #36]
 831              	.LVL66:
 832              	.L65:
 833              		.loc 1 379 0
 834 0032 2046     		mov	r0, r4
 835 0034 10BD     		pop	{r4, pc}
 836              	.LVL67:
 837              	.L66:
 838              		.loc 1 374 0
 839 0036 DA68     		ldr	r2, [r3, #12]
 840              	.LVL68:
 841 0038 9A61     		str	r2, [r3, #24]
 842              	.LVL69:
 843 003a F0E7     		b	.L67
 844              	.LVL70:
 845              	.L70:
 846              		.loc 1 368 0 discriminator 1
 847 003c 0029     		cmp	r1, #0
 848 003e E6D0     		beq	.L64
 849              		.loc 1 369 0
 850 0040 6FF00200 		mvn	r0, #2
 851              	.LVL71:
 852 0044 10BD     		pop	{r4, pc}
ARM GAS  /tmp/ccXkb9tQ.s 			page 16


 853              		.cfi_endproc
 854              	.LFE127:
 855              		.size	chOQGetI, .-chOQGetI
 856 0046 00BFAFF3 		.section	.text.chOQWriteTimeout,"ax",%progbits
 856      0080AFF3 
 856      0080
 857              		.align	2
 858              		.p2align 4,,15
 859              		.global	chOQWriteTimeout
 860              		.thumb
 861              		.thumb_func
 862              		.type	chOQWriteTimeout, %function
 863              	chOQWriteTimeout:
 864              	.LFB128:
 865              		.loc 1 407 0
 866              		.cfi_startproc
 867              		@ args = 0, pretend = 0, frame = 0
 868              		@ frame_needed = 0, uses_anonymous_args = 0
 869              	.LVL72:
 870 0000 2DE9F84F 		push	{r3, r4, r5, r6, r7, r8, r9, r10, fp, lr}
 871              		.cfi_def_cfa_offset 40
 872              		.cfi_offset 3, -40
 873              		.cfi_offset 4, -36
 874              		.cfi_offset 5, -32
 875              		.cfi_offset 6, -28
 876              		.cfi_offset 7, -24
 877              		.cfi_offset 8, -20
 878              		.cfi_offset 9, -16
 879              		.cfi_offset 10, -12
 880              		.cfi_offset 11, -8
 881              		.cfi_offset 14, -4
 882              		.loc 1 407 0
 883 0004 9A46     		mov	r10, r3
 884 0006 0446     		mov	r4, r0
 885 0008 0E46     		mov	r6, r1
 886 000a 1746     		mov	r7, r2
 887              		.loc 1 408 0
 888 000c D0F81C90 		ldr	r9, [r0, #28]
 889              	.LVL73:
 890              	.LBB41:
 891              		.loc 1 413 0
 892 0010 4023     		movs	r3, #64
 893              	.LVL74:
 894              	@ 413 "../../os/kernel/src/chqueues.c" 1
 895 0012 83F31188 		msr     BASEPRI, r3
 896              	@ 0 "" 2
 897              		.thumb
 898              	.LBE41:
 899              		.loc 1 409 0
 900 0016 4FF00008 		mov	r8, #0
 901              	.LVL75:
 902              	.L72:
 903              		.loc 1 415 0 discriminator 1
 904 001a A568     		ldr	r5, [r4, #8]
 905              		.loc 1 422 0 discriminator 1
 906 001c 06F1010B 		add	fp, r6, #1
 907              	.LVL76:
ARM GAS  /tmp/ccXkb9tQ.s 			page 17


 908              		.loc 1 427 0 discriminator 1
 909 0020 2046     		mov	r0, r4
 910              		.loc 1 421 0 discriminator 1
 911 0022 6B1E     		subs	r3, r5, #1
 912              		.loc 1 415 0 discriminator 1
 913 0024 DDB1     		cbz	r5, .L75
 914              	.LVL77:
 915              		.loc 1 422 0
 916 0026 6269     		ldr	r2, [r4, #20]
 917              		.loc 1 421 0
 918 0028 A360     		str	r3, [r4, #8]
 919              		.loc 1 422 0
 920 002a 531C     		adds	r3, r2, #1
 921 002c 6361     		str	r3, [r4, #20]
 922 002e 3378     		ldrb	r3, [r6]	@ zero_extendqisi2
 923 0030 1370     		strb	r3, [r2]
 924              		.loc 1 423 0
 925 0032 2369     		ldr	r3, [r4, #16]
 926 0034 6269     		ldr	r2, [r4, #20]
 927 0036 9A42     		cmp	r2, r3
 928              		.loc 1 424 0
 929 0038 24BF     		itt	cs
 930 003a E368     		ldrcs	r3, [r4, #12]
 931 003c 6361     		strcs	r3, [r4, #20]
 932              		.loc 1 426 0
 933 003e B9F1000F 		cmp	r9, #0
 934 0042 00D0     		beq	.L77
 935              		.loc 1 427 0
 936 0044 C847     		blx	r9
 937              	.LVL78:
 938              	.L77:
 939              	.LBB42:
 940              		.loc 1 429 0
 941 0046 0023     		movs	r3, #0
 942              	@ 429 "../../os/kernel/src/chqueues.c" 1
 943 0048 83F31188 		msr     BASEPRI, r3
 944              	@ 0 "" 2
 945              		.thumb
 946              	.LBE42:
 947              		.loc 1 431 0
 948 004c 013F     		subs	r7, r7, #1
 949              	.LVL79:
 950              		.loc 1 430 0
 951 004e 08F10108 		add	r8, r8, #1
 952              	.LVL80:
 953              		.loc 1 431 0
 954 0052 0DD0     		beq	.L74
 955              	.LBB43:
 956              		.loc 1 433 0
 957 0054 4023     		movs	r3, #64
 958              	@ 433 "../../os/kernel/src/chqueues.c" 1
 959 0056 83F31188 		msr     BASEPRI, r3
 960              	@ 0 "" 2
 961              		.thumb
 962              	.LBE43:
 963              		.loc 1 422 0
 964 005a 5E46     		mov	r6, fp
ARM GAS  /tmp/ccXkb9tQ.s 			page 18


 965              		.loc 1 434 0
 966 005c DDE7     		b	.L72
 967              	.LVL81:
 968              	.L75:
 969              		.loc 1 416 0
 970 005e 2046     		mov	r0, r4
 971              	.LVL82:
 972 0060 5146     		mov	r1, r10
 973 0062 FFF7FEFF 		bl	qwait
 974              	.LVL83:
 975 0066 0028     		cmp	r0, #0
 976 0068 D7D0     		beq	.L72
 977              	.LBB44:
 978              		.loc 1 417 0
 979 006a 2B46     		mov	r3, r5
 980              	@ 417 "../../os/kernel/src/chqueues.c" 1
 981 006c 83F31188 		msr     BASEPRI, r3
 982              	@ 0 "" 2
 983              	.LVL84:
 984              		.thumb
 985              	.L74:
 986              	.LBE44:
 987              		.loc 1 435 0
 988 0070 4046     		mov	r0, r8
 989 0072 BDE8F88F 		pop	{r3, r4, r5, r6, r7, r8, r9, r10, fp, pc}
 990              		.cfi_endproc
 991              	.LFE128:
 992              		.size	chOQWriteTimeout, .-chOQWriteTimeout
 993 0076 00BFAFF3 		.text
 993      0080AFF3 
 993      0080
 994              	.Letext0:
 995              		.file 3 "/usr/lib/gcc/arm-none-eabi/4.8/include/stddef.h"
 996              		.file 4 "/usr/include/newlib/machine/_default_types.h"
 997              		.file 5 "/usr/include/newlib/stdint.h"
 998              		.file 6 "../../os/ports/GCC/ARMCMx/chtypes.h"
 999              		.file 7 "../../os/kernel/include/chlists.h"
 1000              		.file 8 "../../os/kernel/include/chthreads.h"
 1001              		.file 9 "../../os/ports/GCC/ARMCMx/chcore_v7m.h"
 1002              		.file 10 "../../os/kernel/include/chschd.h"
 1003              		.file 11 "../../os/kernel/include/chmtx.h"
 1004              		.file 12 "../../os/kernel/include/chqueues.h"
 1005              		.file 13 "../../os/ports/common/ARMCMx/CMSIS/include/core_cm4.h"
 1006              		.section	.debug_info,"",%progbits
 1007              	.Ldebug_info0:
 1008 0000 B90B0000 		.4byte	0xbb9
 1009 0004 0400     		.2byte	0x4
 1010 0006 00000000 		.4byte	.Ldebug_abbrev0
 1011 000a 04       		.byte	0x4
 1012 000b 01       		.uleb128 0x1
 1013 000c 0F000000 		.4byte	.LASF95
 1014 0010 01       		.byte	0x1
 1015 0011 12040000 		.4byte	.LASF96
 1016 0015 6E020000 		.4byte	.LASF97
 1017 0019 70000000 		.4byte	.Ldebug_ranges0+0x70
 1018 001d 00000000 		.4byte	0
 1019 0021 00000000 		.4byte	.Ldebug_line0
ARM GAS  /tmp/ccXkb9tQ.s 			page 19


 1020 0025 02       		.uleb128 0x2
 1021 0026 04       		.byte	0x4
 1022 0027 05       		.byte	0x5
 1023 0028 696E7400 		.ascii	"int\000"
 1024 002c 03       		.uleb128 0x3
 1025 002d C4000000 		.4byte	.LASF2
 1026 0031 03       		.byte	0x3
 1027 0032 D4       		.byte	0xd4
 1028 0033 37000000 		.4byte	0x37
 1029 0037 04       		.uleb128 0x4
 1030 0038 04       		.byte	0x4
 1031 0039 07       		.byte	0x7
 1032 003a DB010000 		.4byte	.LASF0
 1033 003e 04       		.uleb128 0x4
 1034 003f 01       		.byte	0x1
 1035 0040 06       		.byte	0x6
 1036 0041 58010000 		.4byte	.LASF1
 1037 0045 03       		.uleb128 0x3
 1038 0046 DE000000 		.4byte	.LASF3
 1039 004a 04       		.byte	0x4
 1040 004b 1D       		.byte	0x1d
 1041 004c 50000000 		.4byte	0x50
 1042 0050 04       		.uleb128 0x4
 1043 0051 01       		.byte	0x1
 1044 0052 08       		.byte	0x8
 1045 0053 30030000 		.4byte	.LASF4
 1046 0057 04       		.uleb128 0x4
 1047 0058 02       		.byte	0x2
 1048 0059 05       		.byte	0x5
 1049 005a 50030000 		.4byte	.LASF5
 1050 005e 04       		.uleb128 0x4
 1051 005f 02       		.byte	0x2
 1052 0060 07       		.byte	0x7
 1053 0061 FF010000 		.4byte	.LASF6
 1054 0065 03       		.uleb128 0x3
 1055 0066 EA030000 		.4byte	.LASF7
 1056 006a 04       		.byte	0x4
 1057 006b 3F       		.byte	0x3f
 1058 006c 70000000 		.4byte	0x70
 1059 0070 04       		.uleb128 0x4
 1060 0071 04       		.byte	0x4
 1061 0072 05       		.byte	0x5
 1062 0073 81010000 		.4byte	.LASF8
 1063 0077 03       		.uleb128 0x3
 1064 0078 F4030000 		.4byte	.LASF9
 1065 007c 04       		.byte	0x4
 1066 007d 41       		.byte	0x41
 1067 007e 82000000 		.4byte	0x82
 1068 0082 04       		.uleb128 0x4
 1069 0083 04       		.byte	0x4
 1070 0084 07       		.byte	0x7
 1071 0085 AB030000 		.4byte	.LASF10
 1072 0089 04       		.uleb128 0x4
 1073 008a 08       		.byte	0x8
 1074 008b 05       		.byte	0x5
 1075 008c 4A010000 		.4byte	.LASF11
 1076 0090 04       		.uleb128 0x4
ARM GAS  /tmp/ccXkb9tQ.s 			page 20


 1077 0091 08       		.byte	0x8
 1078 0092 07       		.byte	0x7
 1079 0093 F8000000 		.4byte	.LASF12
 1080 0097 03       		.uleb128 0x3
 1081 0098 5E040000 		.4byte	.LASF13
 1082 009c 05       		.byte	0x5
 1083 009d 2A       		.byte	0x2a
 1084 009e 45000000 		.4byte	0x45
 1085 00a2 03       		.uleb128 0x3
 1086 00a3 28030000 		.4byte	.LASF14
 1087 00a7 05       		.byte	0x5
 1088 00a8 41       		.byte	0x41
 1089 00a9 65000000 		.4byte	0x65
 1090 00ad 03       		.uleb128 0x3
 1091 00ae 8E030000 		.4byte	.LASF15
 1092 00b2 05       		.byte	0x5
 1093 00b3 42       		.byte	0x42
 1094 00b4 77000000 		.4byte	0x77
 1095 00b8 03       		.uleb128 0x3
 1096 00b9 6C010000 		.4byte	.LASF16
 1097 00bd 06       		.byte	0x6
 1098 00be 2B       		.byte	0x2b
 1099 00bf C3000000 		.4byte	0xc3
 1100 00c3 04       		.uleb128 0x4
 1101 00c4 01       		.byte	0x1
 1102 00c5 02       		.byte	0x2
 1103 00c6 22030000 		.4byte	.LASF17
 1104 00ca 03       		.uleb128 0x3
 1105 00cb 25020000 		.4byte	.LASF18
 1106 00cf 06       		.byte	0x6
 1107 00d0 2C       		.byte	0x2c
 1108 00d1 97000000 		.4byte	0x97
 1109 00d5 03       		.uleb128 0x3
 1110 00d6 8A010000 		.4byte	.LASF19
 1111 00da 06       		.byte	0x6
 1112 00db 2D       		.byte	0x2d
 1113 00dc 97000000 		.4byte	0x97
 1114 00e0 03       		.uleb128 0x3
 1115 00e1 F9020000 		.4byte	.LASF20
 1116 00e5 06       		.byte	0x6
 1117 00e6 2E       		.byte	0x2e
 1118 00e7 97000000 		.4byte	0x97
 1119 00eb 03       		.uleb128 0x3
 1120 00ec 12030000 		.4byte	.LASF21
 1121 00f0 06       		.byte	0x6
 1122 00f1 30       		.byte	0x30
 1123 00f2 AD000000 		.4byte	0xad
 1124 00f6 03       		.uleb128 0x3
 1125 00f7 12020000 		.4byte	.LASF22
 1126 00fb 06       		.byte	0x6
 1127 00fc 31       		.byte	0x31
 1128 00fd A2000000 		.4byte	0xa2
 1129 0101 03       		.uleb128 0x3
 1130 0102 39020000 		.4byte	.LASF23
 1131 0106 06       		.byte	0x6
 1132 0107 33       		.byte	0x33
 1133 0108 AD000000 		.4byte	0xad
ARM GAS  /tmp/ccXkb9tQ.s 			page 21


 1134 010c 03       		.uleb128 0x3
 1135 010d D5030000 		.4byte	.LASF24
 1136 0111 06       		.byte	0x6
 1137 0112 35       		.byte	0x35
 1138 0113 AD000000 		.4byte	0xad
 1139 0117 03       		.uleb128 0x3
 1140 0118 7C030000 		.4byte	.LASF25
 1141 011c 07       		.byte	0x7
 1142 011d 2A       		.byte	0x2a
 1143 011e 22010000 		.4byte	0x122
 1144 0122 05       		.uleb128 0x5
 1145 0123 7C030000 		.4byte	.LASF25
 1146 0127 48       		.byte	0x48
 1147 0128 08       		.byte	0x8
 1148 0129 5E       		.byte	0x5e
 1149 012a 13020000 		.4byte	0x213
 1150 012e 06       		.uleb128 0x6
 1151 012f 68030000 		.4byte	.LASF26
 1152 0133 08       		.byte	0x8
 1153 0134 5F       		.byte	0x5f
 1154 0135 34020000 		.4byte	0x234
 1155 0139 00       		.byte	0
 1156 013a 06       		.uleb128 0x6
 1157 013b 0B030000 		.4byte	.LASF27
 1158 013f 08       		.byte	0x8
 1159 0140 61       		.byte	0x61
 1160 0141 34020000 		.4byte	0x234
 1161 0145 04       		.byte	0x4
 1162 0146 06       		.uleb128 0x6
 1163 0147 39010000 		.4byte	.LASF28
 1164 014b 08       		.byte	0x8
 1165 014c 63       		.byte	0x63
 1166 014d EB000000 		.4byte	0xeb
 1167 0151 08       		.byte	0x8
 1168 0152 06       		.uleb128 0x6
 1169 0153 A0040000 		.4byte	.LASF29
 1170 0157 08       		.byte	0x8
 1171 0158 64       		.byte	0x64
 1172 0159 F5020000 		.4byte	0x2f5
 1173 015d 0C       		.byte	0xc
 1174 015e 06       		.uleb128 0x6
 1175 015f B4010000 		.4byte	.LASF30
 1176 0163 08       		.byte	0x8
 1177 0164 66       		.byte	0x66
 1178 0165 34020000 		.4byte	0x234
 1179 0169 10       		.byte	0x10
 1180 016a 06       		.uleb128 0x6
 1181 016b C7020000 		.4byte	.LASF31
 1182 016f 08       		.byte	0x8
 1183 0170 67       		.byte	0x67
 1184 0171 34020000 		.4byte	0x234
 1185 0175 14       		.byte	0x14
 1186 0176 06       		.uleb128 0x6
 1187 0177 6D040000 		.4byte	.LASF32
 1188 017b 08       		.byte	0x8
 1189 017c 6E       		.byte	0x6e
 1190 017d EE030000 		.4byte	0x3ee
ARM GAS  /tmp/ccXkb9tQ.s 			page 22


 1191 0181 18       		.byte	0x18
 1192 0182 06       		.uleb128 0x6
 1193 0183 3E030000 		.4byte	.LASF33
 1194 0187 08       		.byte	0x8
 1195 0188 79       		.byte	0x79
 1196 0189 D5000000 		.4byte	0xd5
 1197 018d 1C       		.byte	0x1c
 1198 018e 06       		.uleb128 0x6
 1199 018f 74030000 		.4byte	.LASF34
 1200 0193 08       		.byte	0x8
 1201 0194 7D       		.byte	0x7d
 1202 0195 CA000000 		.4byte	0xca
 1203 0199 1D       		.byte	0x1d
 1204 019a 06       		.uleb128 0x6
 1205 019b 3E040000 		.4byte	.LASF35
 1206 019f 08       		.byte	0x8
 1207 01a0 82       		.byte	0x82
 1208 01a1 E0000000 		.4byte	0xe0
 1209 01a5 1E       		.byte	0x1e
 1210 01a6 06       		.uleb128 0x6
 1211 01a7 E8010000 		.4byte	.LASF36
 1212 01ab 08       		.byte	0x8
 1213 01ac 8F       		.byte	0x8f
 1214 01ad 16030000 		.4byte	0x316
 1215 01b1 20       		.byte	0x20
 1216 01b2 07       		.uleb128 0x7
 1217 01b3 705F7500 		.ascii	"p_u\000"
 1218 01b7 08       		.byte	0x8
 1219 01b8 B4       		.byte	0xb4
 1220 01b9 B9030000 		.4byte	0x3b9
 1221 01bd 24       		.byte	0x24
 1222 01be 06       		.uleb128 0x6
 1223 01bf A6040000 		.4byte	.LASF37
 1224 01c3 08       		.byte	0x8
 1225 01c4 B9       		.byte	0xb9
 1226 01c5 5A020000 		.4byte	0x25a
 1227 01c9 28       		.byte	0x28
 1228 01ca 06       		.uleb128 0x6
 1229 01cb EF010000 		.4byte	.LASF38
 1230 01cf 08       		.byte	0x8
 1231 01d0 BF       		.byte	0xbf
 1232 01d1 3A020000 		.4byte	0x23a
 1233 01d5 2C       		.byte	0x2c
 1234 01d6 06       		.uleb128 0x6
 1235 01d7 89040000 		.4byte	.LASF39
 1236 01db 08       		.byte	0x8
 1237 01dc C3       		.byte	0xc3
 1238 01dd F6000000 		.4byte	0xf6
 1239 01e1 34       		.byte	0x34
 1240 01e2 06       		.uleb128 0x6
 1241 01e3 83030000 		.4byte	.LASF40
 1242 01e7 08       		.byte	0x8
 1243 01e8 C9       		.byte	0xc9
 1244 01e9 01010000 		.4byte	0x101
 1245 01ed 38       		.byte	0x38
 1246 01ee 06       		.uleb128 0x6
 1247 01ef 46030000 		.4byte	.LASF41
ARM GAS  /tmp/ccXkb9tQ.s 			page 23


 1248 01f3 08       		.byte	0x8
 1249 01f4 D0       		.byte	0xd0
 1250 01f5 00040000 		.4byte	0x400
 1251 01f9 3C       		.byte	0x3c
 1252 01fa 06       		.uleb128 0x6
 1253 01fb DF030000 		.4byte	.LASF42
 1254 01ff 08       		.byte	0x8
 1255 0200 D4       		.byte	0xd4
 1256 0201 EB000000 		.4byte	0xeb
 1257 0205 40       		.byte	0x40
 1258 0206 06       		.uleb128 0x6
 1259 0207 64010000 		.4byte	.LASF43
 1260 020b 08       		.byte	0x8
 1261 020c DA       		.byte	0xda
 1262 020d 77020000 		.4byte	0x277
 1263 0211 44       		.byte	0x44
 1264 0212 00       		.byte	0
 1265 0213 08       		.uleb128 0x8
 1266 0214 08       		.byte	0x8
 1267 0215 07       		.byte	0x7
 1268 0216 61       		.byte	0x61
 1269 0217 34020000 		.4byte	0x234
 1270 021b 06       		.uleb128 0x6
 1271 021c 68030000 		.4byte	.LASF26
 1272 0220 07       		.byte	0x7
 1273 0221 62       		.byte	0x62
 1274 0222 34020000 		.4byte	0x234
 1275 0226 00       		.byte	0
 1276 0227 06       		.uleb128 0x6
 1277 0228 0B030000 		.4byte	.LASF27
 1278 022c 07       		.byte	0x7
 1279 022d 64       		.byte	0x64
 1280 022e 34020000 		.4byte	0x234
 1281 0232 04       		.byte	0x4
 1282 0233 00       		.byte	0
 1283 0234 09       		.uleb128 0x9
 1284 0235 04       		.byte	0x4
 1285 0236 17010000 		.4byte	0x117
 1286 023a 03       		.uleb128 0x3
 1287 023b D5020000 		.4byte	.LASF44
 1288 023f 07       		.byte	0x7
 1289 0240 66       		.byte	0x66
 1290 0241 13020000 		.4byte	0x213
 1291 0245 08       		.uleb128 0x8
 1292 0246 04       		.byte	0x4
 1293 0247 07       		.byte	0x7
 1294 0248 6B       		.byte	0x6b
 1295 0249 5A020000 		.4byte	0x25a
 1296 024d 06       		.uleb128 0x6
 1297 024e 68030000 		.4byte	.LASF26
 1298 0252 07       		.byte	0x7
 1299 0253 6D       		.byte	0x6d
 1300 0254 34020000 		.4byte	0x234
 1301 0258 00       		.byte	0
 1302 0259 00       		.byte	0
 1303 025a 03       		.uleb128 0x3
 1304 025b 2D020000 		.4byte	.LASF45
ARM GAS  /tmp/ccXkb9tQ.s 			page 24


 1305 025f 07       		.byte	0x7
 1306 0260 70       		.byte	0x70
 1307 0261 45020000 		.4byte	0x245
 1308 0265 04       		.uleb128 0x4
 1309 0266 04       		.byte	0x4
 1310 0267 07       		.byte	0x7
 1311 0268 AE020000 		.4byte	.LASF46
 1312 026c 03       		.uleb128 0x3
 1313 026d C4010000 		.4byte	.LASF47
 1314 0271 09       		.byte	0x9
 1315 0272 E5       		.byte	0xe5
 1316 0273 77020000 		.4byte	0x277
 1317 0277 0A       		.uleb128 0xa
 1318 0278 04       		.byte	0x4
 1319 0279 0B       		.uleb128 0xb
 1320 027a 31040000 		.4byte	.LASF48
 1321 027e 24       		.byte	0x24
 1322 027f 09       		.byte	0x9
 1323 0280 0C01     		.2byte	0x10c
 1324 0282 F5020000 		.4byte	0x2f5
 1325 0286 0C       		.uleb128 0xc
 1326 0287 723400   		.ascii	"r4\000"
 1327 028a 09       		.byte	0x9
 1328 028b 1F01     		.2byte	0x11f
 1329 028d 6C020000 		.4byte	0x26c
 1330 0291 00       		.byte	0
 1331 0292 0C       		.uleb128 0xc
 1332 0293 723500   		.ascii	"r5\000"
 1333 0296 09       		.byte	0x9
 1334 0297 2001     		.2byte	0x120
 1335 0299 6C020000 		.4byte	0x26c
 1336 029d 04       		.byte	0x4
 1337 029e 0C       		.uleb128 0xc
 1338 029f 723600   		.ascii	"r6\000"
 1339 02a2 09       		.byte	0x9
 1340 02a3 2101     		.2byte	0x121
 1341 02a5 6C020000 		.4byte	0x26c
 1342 02a9 08       		.byte	0x8
 1343 02aa 0C       		.uleb128 0xc
 1344 02ab 723700   		.ascii	"r7\000"
 1345 02ae 09       		.byte	0x9
 1346 02af 2201     		.2byte	0x122
 1347 02b1 6C020000 		.4byte	0x26c
 1348 02b5 0C       		.byte	0xc
 1349 02b6 0C       		.uleb128 0xc
 1350 02b7 723800   		.ascii	"r8\000"
 1351 02ba 09       		.byte	0x9
 1352 02bb 2301     		.2byte	0x123
 1353 02bd 6C020000 		.4byte	0x26c
 1354 02c1 10       		.byte	0x10
 1355 02c2 0C       		.uleb128 0xc
 1356 02c3 723900   		.ascii	"r9\000"
 1357 02c6 09       		.byte	0x9
 1358 02c7 2401     		.2byte	0x124
 1359 02c9 6C020000 		.4byte	0x26c
 1360 02cd 14       		.byte	0x14
 1361 02ce 0C       		.uleb128 0xc
ARM GAS  /tmp/ccXkb9tQ.s 			page 25


 1362 02cf 72313000 		.ascii	"r10\000"
 1363 02d3 09       		.byte	0x9
 1364 02d4 2501     		.2byte	0x125
 1365 02d6 6C020000 		.4byte	0x26c
 1366 02da 18       		.byte	0x18
 1367 02db 0C       		.uleb128 0xc
 1368 02dc 72313100 		.ascii	"r11\000"
 1369 02e0 09       		.byte	0x9
 1370 02e1 2601     		.2byte	0x126
 1371 02e3 6C020000 		.4byte	0x26c
 1372 02e7 1C       		.byte	0x1c
 1373 02e8 0C       		.uleb128 0xc
 1374 02e9 6C7200   		.ascii	"lr\000"
 1375 02ec 09       		.byte	0x9
 1376 02ed 2701     		.2byte	0x127
 1377 02ef 6C020000 		.4byte	0x26c
 1378 02f3 20       		.byte	0x20
 1379 02f4 00       		.byte	0
 1380 02f5 0B       		.uleb128 0xb
 1381 02f6 0A040000 		.4byte	.LASF49
 1382 02fa 04       		.byte	0x4
 1383 02fb 09       		.byte	0x9
 1384 02fc 3101     		.2byte	0x131
 1385 02fe 10030000 		.4byte	0x310
 1386 0302 0C       		.uleb128 0xc
 1387 0303 72313300 		.ascii	"r13\000"
 1388 0307 09       		.byte	0x9
 1389 0308 3201     		.2byte	0x132
 1390 030a 10030000 		.4byte	0x310
 1391 030e 00       		.byte	0
 1392 030f 00       		.byte	0
 1393 0310 09       		.uleb128 0x9
 1394 0311 04       		.byte	0x4
 1395 0312 79020000 		.4byte	0x279
 1396 0316 0D       		.uleb128 0xd
 1397 0317 0C010000 		.4byte	0x10c
 1398 031b 08       		.uleb128 0x8
 1399 031c 1C       		.byte	0x1c
 1400 031d 0A       		.byte	0xa
 1401 031e 5E       		.byte	0x5e
 1402 031f 6C030000 		.4byte	0x36c
 1403 0323 06       		.uleb128 0x6
 1404 0324 97030000 		.4byte	.LASF50
 1405 0328 0A       		.byte	0xa
 1406 0329 5F       		.byte	0x5f
 1407 032a 3A020000 		.4byte	0x23a
 1408 032e 00       		.byte	0
 1409 032f 06       		.uleb128 0x6
 1410 0330 5A030000 		.4byte	.LASF51
 1411 0334 0A       		.byte	0xa
 1412 0335 60       		.byte	0x60
 1413 0336 EB000000 		.4byte	0xeb
 1414 033a 08       		.byte	0x8
 1415 033b 06       		.uleb128 0x6
 1416 033c CF020000 		.4byte	.LASF52
 1417 0340 0A       		.byte	0xa
 1418 0341 62       		.byte	0x62
ARM GAS  /tmp/ccXkb9tQ.s 			page 26


 1419 0342 F5020000 		.4byte	0x2f5
 1420 0346 0C       		.byte	0xc
 1421 0347 06       		.uleb128 0x6
 1422 0348 BC010000 		.4byte	.LASF53
 1423 034c 0A       		.byte	0xa
 1424 034d 65       		.byte	0x65
 1425 034e 34020000 		.4byte	0x234
 1426 0352 10       		.byte	0x10
 1427 0353 06       		.uleb128 0x6
 1428 0354 F1020000 		.4byte	.LASF54
 1429 0358 0A       		.byte	0xa
 1430 0359 66       		.byte	0x66
 1431 035a 34020000 		.4byte	0x234
 1432 035e 14       		.byte	0x14
 1433 035f 06       		.uleb128 0x6
 1434 0360 E7020000 		.4byte	.LASF55
 1435 0364 0A       		.byte	0xa
 1436 0365 69       		.byte	0x69
 1437 0366 34020000 		.4byte	0x234
 1438 036a 18       		.byte	0x18
 1439 036b 00       		.byte	0
 1440 036c 03       		.uleb128 0x3
 1441 036d 45040000 		.4byte	.LASF56
 1442 0371 0A       		.byte	0xa
 1443 0372 6B       		.byte	0x6b
 1444 0373 1B030000 		.4byte	0x31b
 1445 0377 05       		.uleb128 0x5
 1446 0378 C1020000 		.4byte	.LASF57
 1447 037c 10       		.byte	0x10
 1448 037d 0B       		.byte	0xb
 1449 037e 2C       		.byte	0x2c
 1450 037f A8030000 		.4byte	0x3a8
 1451 0383 06       		.uleb128 0x6
 1452 0384 73010000 		.4byte	.LASF58
 1453 0388 0B       		.byte	0xb
 1454 0389 2D       		.byte	0x2d
 1455 038a 3A020000 		.4byte	0x23a
 1456 038e 00       		.byte	0
 1457 038f 06       		.uleb128 0x6
 1458 0390 98040000 		.4byte	.LASF59
 1459 0394 0B       		.byte	0xb
 1460 0395 2F       		.byte	0x2f
 1461 0396 34020000 		.4byte	0x234
 1462 039a 08       		.byte	0x8
 1463 039b 06       		.uleb128 0x6
 1464 039c CE030000 		.4byte	.LASF60
 1465 03a0 0B       		.byte	0xb
 1466 03a1 31       		.byte	0x31
 1467 03a2 A8030000 		.4byte	0x3a8
 1468 03a6 0C       		.byte	0xc
 1469 03a7 00       		.byte	0
 1470 03a8 09       		.uleb128 0x9
 1471 03a9 04       		.byte	0x4
 1472 03aa 77030000 		.4byte	0x377
 1473 03ae 03       		.uleb128 0x3
 1474 03af C1020000 		.4byte	.LASF57
 1475 03b3 0B       		.byte	0xb
ARM GAS  /tmp/ccXkb9tQ.s 			page 27


 1476 03b4 33       		.byte	0x33
 1477 03b5 77030000 		.4byte	0x377
 1478 03b9 0E       		.uleb128 0xe
 1479 03ba 04       		.byte	0x4
 1480 03bb 08       		.byte	0x8
 1481 03bc 96       		.byte	0x96
 1482 03bd EE030000 		.4byte	0x3ee
 1483 03c1 0F       		.uleb128 0xf
 1484 03c2 CB000000 		.4byte	.LASF61
 1485 03c6 08       		.byte	0x8
 1486 03c7 9D       		.byte	0x9d
 1487 03c8 F6000000 		.4byte	0xf6
 1488 03cc 0F       		.uleb128 0xf
 1489 03cd 23010000 		.4byte	.LASF62
 1490 03d1 08       		.byte	0x8
 1491 03d2 A4       		.byte	0xa4
 1492 03d3 F6000000 		.4byte	0xf6
 1493 03d7 0F       		.uleb128 0xf
 1494 03d8 66040000 		.4byte	.LASF63
 1495 03dc 08       		.byte	0x8
 1496 03dd AB       		.byte	0xab
 1497 03de 77020000 		.4byte	0x277
 1498 03e2 0F       		.uleb128 0xf
 1499 03e3 61030000 		.4byte	.LASF64
 1500 03e7 08       		.byte	0x8
 1501 03e8 B2       		.byte	0xb2
 1502 03e9 01010000 		.4byte	0x101
 1503 03ed 00       		.byte	0
 1504 03ee 09       		.uleb128 0x9
 1505 03ef 04       		.byte	0x4
 1506 03f0 F4030000 		.4byte	0x3f4
 1507 03f4 10       		.uleb128 0x10
 1508 03f5 F9030000 		.4byte	0x3f9
 1509 03f9 04       		.uleb128 0x4
 1510 03fa 01       		.byte	0x1
 1511 03fb 08       		.byte	0x8
 1512 03fc BD030000 		.4byte	.LASF65
 1513 0400 09       		.uleb128 0x9
 1514 0401 04       		.byte	0x4
 1515 0402 AE030000 		.4byte	0x3ae
 1516 0406 03       		.uleb128 0x3
 1517 0407 50020000 		.4byte	.LASF66
 1518 040b 0C       		.byte	0xc
 1519 040c 37       		.byte	0x37
 1520 040d 11040000 		.4byte	0x411
 1521 0411 05       		.uleb128 0x5
 1522 0412 50020000 		.4byte	.LASF66
 1523 0416 24       		.byte	0x24
 1524 0417 0C       		.byte	0xc
 1525 0418 45       		.byte	0x45
 1526 0419 7E040000 		.4byte	0x47e
 1527 041d 06       		.uleb128 0x6
 1528 041e 40010000 		.4byte	.LASF67
 1529 0422 0C       		.byte	0xc
 1530 0423 46       		.byte	0x46
 1531 0424 3A020000 		.4byte	0x23a
 1532 0428 00       		.byte	0
ARM GAS  /tmp/ccXkb9tQ.s 			page 28


 1533 0429 06       		.uleb128 0x6
 1534 042a B7020000 		.4byte	.LASF68
 1535 042e 0C       		.byte	0xc
 1536 042f 47       		.byte	0x47
 1537 0430 2C000000 		.4byte	0x2c
 1538 0434 08       		.byte	0x8
 1539 0435 06       		.uleb128 0x6
 1540 0436 9C010000 		.4byte	.LASF69
 1541 043a 0C       		.byte	0xc
 1542 043b 48       		.byte	0x48
 1543 043c A0040000 		.4byte	0x4a0
 1544 0440 0C       		.byte	0xc
 1545 0441 06       		.uleb128 0x6
 1546 0442 38040000 		.4byte	.LASF70
 1547 0446 0C       		.byte	0xc
 1548 0447 49       		.byte	0x49
 1549 0448 A0040000 		.4byte	0x4a0
 1550 044c 10       		.byte	0x10
 1551 044d 06       		.uleb128 0x6
 1552 044e A5010000 		.4byte	.LASF71
 1553 0452 0C       		.byte	0xc
 1554 0453 4B       		.byte	0x4b
 1555 0454 A0040000 		.4byte	0x4a0
 1556 0458 14       		.byte	0x14
 1557 0459 06       		.uleb128 0x6
 1558 045a 1A030000 		.4byte	.LASF72
 1559 045e 0C       		.byte	0xc
 1560 045f 4C       		.byte	0x4c
 1561 0460 A0040000 		.4byte	0x4a0
 1562 0464 18       		.byte	0x18
 1563 0465 06       		.uleb128 0x6
 1564 0466 4F040000 		.4byte	.LASF73
 1565 046a 0C       		.byte	0xc
 1566 046b 4D       		.byte	0x4d
 1567 046c 7E040000 		.4byte	0x47e
 1568 0470 1C       		.byte	0x1c
 1569 0471 06       		.uleb128 0x6
 1570 0472 AD010000 		.4byte	.LASF74
 1571 0476 0C       		.byte	0xc
 1572 0477 4E       		.byte	0x4e
 1573 0478 77020000 		.4byte	0x277
 1574 047c 20       		.byte	0x20
 1575 047d 00       		.byte	0
 1576 047e 03       		.uleb128 0x3
 1577 047f 01030000 		.4byte	.LASF75
 1578 0483 0C       		.byte	0xc
 1579 0484 3A       		.byte	0x3a
 1580 0485 89040000 		.4byte	0x489
 1581 0489 09       		.uleb128 0x9
 1582 048a 04       		.byte	0x4
 1583 048b 8F040000 		.4byte	0x48f
 1584 048f 11       		.uleb128 0x11
 1585 0490 9A040000 		.4byte	0x49a
 1586 0494 12       		.uleb128 0x12
 1587 0495 9A040000 		.4byte	0x49a
 1588 0499 00       		.byte	0
 1589 049a 09       		.uleb128 0x9
ARM GAS  /tmp/ccXkb9tQ.s 			page 29


 1590 049b 04       		.byte	0x4
 1591 049c 06040000 		.4byte	0x406
 1592 04a0 09       		.uleb128 0x9
 1593 04a1 04       		.byte	0x4
 1594 04a2 97000000 		.4byte	0x97
 1595 04a6 03       		.uleb128 0x3
 1596 04a7 45020000 		.4byte	.LASF76
 1597 04ab 0C       		.byte	0xc
 1598 04ac 82       		.byte	0x82
 1599 04ad 06040000 		.4byte	0x406
 1600 04b1 03       		.uleb128 0x3
 1601 04b2 D2000000 		.4byte	.LASF77
 1602 04b6 0C       		.byte	0xc
 1603 04b7 F5       		.byte	0xf5
 1604 04b8 06040000 		.4byte	0x406
 1605 04bc 09       		.uleb128 0x9
 1606 04bd 04       		.byte	0x4
 1607 04be C2040000 		.4byte	0x4c2
 1608 04c2 10       		.uleb128 0x10
 1609 04c3 97000000 		.4byte	0x97
 1610 04c7 13       		.uleb128 0x13
 1611 04c8 18020000 		.4byte	.LASF98
 1612 04cc 02       		.byte	0x2
 1613 04cd 34       		.byte	0x34
 1614 04ce 03       		.byte	0x3
 1615 04cf E9040000 		.4byte	0x4e9
 1616 04d3 14       		.uleb128 0x14
 1617 04d4 747000   		.ascii	"tp\000"
 1618 04d7 02       		.byte	0x2
 1619 04d8 34       		.byte	0x34
 1620 04d9 34020000 		.4byte	0x234
 1621 04dd 14       		.uleb128 0x14
 1622 04de 74717000 		.ascii	"tqp\000"
 1623 04e2 02       		.byte	0x2
 1624 04e3 34       		.byte	0x34
 1625 04e4 E9040000 		.4byte	0x4e9
 1626 04e8 00       		.byte	0
 1627 04e9 09       		.uleb128 0x9
 1628 04ea 04       		.byte	0x4
 1629 04eb 3A020000 		.4byte	0x23a
 1630 04ef 15       		.uleb128 0x15
 1631 04f0 C2030000 		.4byte	.LASF99
 1632 04f4 02       		.byte	0x2
 1633 04f5 3B       		.byte	0x3b
 1634 04f6 34020000 		.4byte	0x234
 1635 04fa 03       		.byte	0x3
 1636 04fb 15050000 		.4byte	0x515
 1637 04ff 14       		.uleb128 0x14
 1638 0500 74717000 		.ascii	"tqp\000"
 1639 0504 02       		.byte	0x2
 1640 0505 3B       		.byte	0x3b
 1641 0506 E9040000 		.4byte	0x4e9
 1642 050a 16       		.uleb128 0x16
 1643 050b 747000   		.ascii	"tp\000"
 1644 050e 02       		.byte	0x2
 1645 050f 3C       		.byte	0x3c
 1646 0510 34020000 		.4byte	0x234
ARM GAS  /tmp/ccXkb9tQ.s 			page 30


 1647 0514 00       		.byte	0
 1648 0515 17       		.uleb128 0x17
 1649 0516 7B010000 		.4byte	.LASF100
 1650 051a 01       		.byte	0x1
 1651 051b 46       		.byte	0x46
 1652 051c F6000000 		.4byte	0xf6
 1653 0520 00000000 		.4byte	.LFB118
 1654 0524 30000000 		.4byte	.LFE118-.LFB118
 1655 0528 01       		.uleb128 0x1
 1656 0529 9C       		.byte	0x9c
 1657 052a 88050000 		.4byte	0x588
 1658 052e 18       		.uleb128 0x18
 1659 052f 717000   		.ascii	"qp\000"
 1660 0532 01       		.byte	0x1
 1661 0533 46       		.byte	0x46
 1662 0534 9A040000 		.4byte	0x49a
 1663 0538 00000000 		.4byte	.LLST0
 1664 053c 19       		.uleb128 0x19
 1665 053d E2020000 		.4byte	.LASF78
 1666 0541 01       		.byte	0x1
 1667 0542 46       		.byte	0x46
 1668 0543 0C010000 		.4byte	0x10c
 1669 0547 42000000 		.4byte	.LLST1
 1670 054b 1A       		.uleb128 0x1a
 1671 054c C7040000 		.4byte	0x4c7
 1672 0550 0C000000 		.4byte	.LBB12
 1673 0554 00000000 		.4byte	.Ldebug_ranges0+0
 1674 0558 01       		.byte	0x1
 1675 0559 4B       		.byte	0x4b
 1676 055a 71050000 		.4byte	0x571
 1677 055e 1B       		.uleb128 0x1b
 1678 055f DD040000 		.4byte	0x4dd
 1679 0563 6E000000 		.4byte	.LLST2
 1680 0567 1B       		.uleb128 0x1b
 1681 0568 D3040000 		.4byte	0x4d3
 1682 056c 9A000000 		.4byte	.LLST3
 1683 0570 00       		.byte	0
 1684 0571 1C       		.uleb128 0x1c
 1685 0572 20000000 		.4byte	.LVL3
 1686 0576 910B0000 		.4byte	0xb91
 1687 057a 1D       		.uleb128 0x1d
 1688 057b 01       		.uleb128 0x1
 1689 057c 51       		.byte	0x51
 1690 057d 03       		.uleb128 0x3
 1691 057e F3       		.byte	0xf3
 1692 057f 01       		.uleb128 0x1
 1693 0580 51       		.byte	0x51
 1694 0581 1D       		.uleb128 0x1d
 1695 0582 01       		.uleb128 0x1
 1696 0583 50       		.byte	0x50
 1697 0584 01       		.uleb128 0x1
 1698 0585 3D       		.byte	0x3d
 1699 0586 00       		.byte	0
 1700 0587 00       		.byte	0
 1701 0588 1E       		.uleb128 0x1e
 1702 0589 8F040000 		.4byte	.LASF82
 1703 058d 01       		.byte	0x1
ARM GAS  /tmp/ccXkb9tQ.s 			page 31


 1704 058e 5F       		.byte	0x5f
 1705 058f 00000000 		.4byte	.LFB119
 1706 0593 1E000000 		.4byte	.LFE119-.LFB119
 1707 0597 01       		.uleb128 0x1
 1708 0598 9C       		.byte	0x9c
 1709 0599 E2050000 		.4byte	0x5e2
 1710 059d 1F       		.uleb128 0x1f
 1711 059e 69717000 		.ascii	"iqp\000"
 1712 05a2 01       		.byte	0x1
 1713 05a3 5F       		.byte	0x5f
 1714 05a4 E2050000 		.4byte	0x5e2
 1715 05a8 01       		.uleb128 0x1
 1716 05a9 50       		.byte	0x50
 1717 05aa 1F       		.uleb128 0x1f
 1718 05ab 627000   		.ascii	"bp\000"
 1719 05ae 01       		.byte	0x1
 1720 05af 5F       		.byte	0x5f
 1721 05b0 A0040000 		.4byte	0x4a0
 1722 05b4 01       		.uleb128 0x1
 1723 05b5 51       		.byte	0x51
 1724 05b6 19       		.uleb128 0x19
 1725 05b7 FA010000 		.4byte	.LASF79
 1726 05bb 01       		.byte	0x1
 1727 05bc 5F       		.byte	0x5f
 1728 05bd 2C000000 		.4byte	0x2c
 1729 05c1 AD000000 		.4byte	.LLST4
 1730 05c5 20       		.uleb128 0x20
 1731 05c6 6F030000 		.4byte	.LASF80
 1732 05ca 01       		.byte	0x1
 1733 05cb 5F       		.byte	0x5f
 1734 05cc 7E040000 		.4byte	0x47e
 1735 05d0 01       		.uleb128 0x1
 1736 05d1 53       		.byte	0x53
 1737 05d2 19       		.uleb128 0x19
 1738 05d3 CD010000 		.4byte	.LASF81
 1739 05d7 01       		.byte	0x1
 1740 05d8 60       		.byte	0x60
 1741 05d9 77020000 		.4byte	0x277
 1742 05dd CE000000 		.4byte	.LLST5
 1743 05e1 00       		.byte	0
 1744 05e2 09       		.uleb128 0x9
 1745 05e3 04       		.byte	0x4
 1746 05e4 A6040000 		.4byte	0x4a6
 1747 05e8 1E       		.uleb128 0x1e
 1748 05e9 0F010000 		.4byte	.LASF83
 1749 05ed 01       		.byte	0x1
 1750 05ee 75       		.byte	0x75
 1751 05ef 00000000 		.4byte	.LFB120
 1752 05f3 2C000000 		.4byte	.LFE120-.LFB120
 1753 05f7 01       		.uleb128 0x1
 1754 05f8 9C       		.byte	0x9c
 1755 05f9 46060000 		.4byte	0x646
 1756 05fd 18       		.uleb128 0x18
 1757 05fe 69717000 		.ascii	"iqp\000"
 1758 0602 01       		.byte	0x1
 1759 0603 75       		.byte	0x75
 1760 0604 E2050000 		.4byte	0x5e2
ARM GAS  /tmp/ccXkb9tQ.s 			page 32


 1761 0608 EE000000 		.4byte	.LLST6
 1762 060c 21       		.uleb128 0x21
 1763 060d EF040000 		.4byte	0x4ef
 1764 0611 18000000 		.4byte	.LBB16
 1765 0615 06000000 		.4byte	.LBE16-.LBB16
 1766 0619 01       		.byte	0x1
 1767 061a 7C       		.byte	0x7c
 1768 061b 3C060000 		.4byte	0x63c
 1769 061f 1B       		.uleb128 0x1b
 1770 0620 FF040000 		.4byte	0x4ff
 1771 0624 0C010000 		.4byte	.LLST7
 1772 0628 22       		.uleb128 0x22
 1773 0629 18000000 		.4byte	.LBB17
 1774 062d 06000000 		.4byte	.LBE17-.LBB17
 1775 0631 23       		.uleb128 0x23
 1776 0632 0A050000 		.4byte	0x50a
 1777 0636 1F010000 		.4byte	.LLST8
 1778 063a 00       		.byte	0
 1779 063b 00       		.byte	0
 1780 063c 24       		.uleb128 0x24
 1781 063d 22000000 		.4byte	.LVL11
 1782 0641 AB0B0000 		.4byte	0xbab
 1783 0645 00       		.byte	0
 1784 0646 25       		.uleb128 0x25
 1785 0647 D2010000 		.4byte	.LASF84
 1786 064b 01       		.byte	0x1
 1787 064c 8C       		.byte	0x8c
 1788 064d F6000000 		.4byte	0xf6
 1789 0651 00000000 		.4byte	.LFB121
 1790 0655 50000000 		.4byte	.LFE121-.LFB121
 1791 0659 01       		.uleb128 0x1
 1792 065a 9C       		.byte	0x9c
 1793 065b B5060000 		.4byte	0x6b5
 1794 065f 18       		.uleb128 0x18
 1795 0660 69717000 		.ascii	"iqp\000"
 1796 0664 01       		.byte	0x1
 1797 0665 8C       		.byte	0x8c
 1798 0666 E2050000 		.4byte	0x5e2
 1799 066a 32010000 		.4byte	.LLST9
 1800 066e 18       		.uleb128 0x18
 1801 066f 6200     		.ascii	"b\000"
 1802 0671 01       		.byte	0x1
 1803 0672 8C       		.byte	0x8c
 1804 0673 97000000 		.4byte	0x97
 1805 0677 69010000 		.4byte	.LLST10
 1806 067b 21       		.uleb128 0x21
 1807 067c EF040000 		.4byte	0x4ef
 1808 0680 26000000 		.4byte	.LBB18
 1809 0684 06000000 		.4byte	.LBE18-.LBB18
 1810 0688 01       		.byte	0x1
 1811 0689 99       		.byte	0x99
 1812 068a AB060000 		.4byte	0x6ab
 1813 068e 1B       		.uleb128 0x1b
 1814 068f FF040000 		.4byte	0x4ff
 1815 0693 C7010000 		.4byte	.LLST11
 1816 0697 22       		.uleb128 0x22
 1817 0698 26000000 		.4byte	.LBB19
ARM GAS  /tmp/ccXkb9tQ.s 			page 33


 1818 069c 06000000 		.4byte	.LBE19-.LBB19
 1819 06a0 23       		.uleb128 0x23
 1820 06a1 0A050000 		.4byte	0x50a
 1821 06a5 E8010000 		.4byte	.LLST12
 1822 06a9 00       		.byte	0
 1823 06aa 00       		.byte	0
 1824 06ab 24       		.uleb128 0x24
 1825 06ac 30000000 		.4byte	.LVL18
 1826 06b0 AB0B0000 		.4byte	0xbab
 1827 06b4 00       		.byte	0
 1828 06b5 25       		.uleb128 0x25
 1829 06b6 B0040000 		.4byte	.LASF85
 1830 06ba 01       		.byte	0x1
 1831 06bb B2       		.byte	0xb2
 1832 06bc F6000000 		.4byte	0xf6
 1833 06c0 00000000 		.4byte	.LFB122
 1834 06c4 50000000 		.4byte	.LFE122-.LFB122
 1835 06c8 01       		.uleb128 0x1
 1836 06c9 9C       		.byte	0x9c
 1837 06ca 75070000 		.4byte	0x775
 1838 06ce 18       		.uleb128 0x18
 1839 06cf 69717000 		.ascii	"iqp\000"
 1840 06d3 01       		.byte	0x1
 1841 06d4 B2       		.byte	0xb2
 1842 06d5 E2050000 		.4byte	0x5e2
 1843 06d9 FB010000 		.4byte	.LLST13
 1844 06dd 19       		.uleb128 0x19
 1845 06de E2020000 		.4byte	.LASF78
 1846 06e2 01       		.byte	0x1
 1847 06e3 B2       		.byte	0xb2
 1848 06e4 0C010000 		.4byte	0x10c
 1849 06e8 45020000 		.4byte	.LLST14
 1850 06ec 26       		.uleb128 0x26
 1851 06ed 6200     		.ascii	"b\000"
 1852 06ef 01       		.byte	0x1
 1853 06f0 B3       		.byte	0xb3
 1854 06f1 97000000 		.4byte	0x97
 1855 06f5 8F020000 		.4byte	.LLST15
 1856 06f9 27       		.uleb128 0x27
 1857 06fa 18000000 		.4byte	.Ldebug_ranges0+0x18
 1858 06fe 10070000 		.4byte	0x710
 1859 0702 28       		.uleb128 0x28
 1860 0703 746D7000 		.ascii	"tmp\000"
 1861 0707 01       		.byte	0x1
 1862 0708 B5       		.byte	0xb5
 1863 0709 AD000000 		.4byte	0xad
 1864 070d 01       		.uleb128 0x1
 1865 070e 53       		.byte	0x53
 1866 070f 00       		.byte	0
 1867 0710 27       		.uleb128 0x27
 1868 0711 30000000 		.4byte	.Ldebug_ranges0+0x30
 1869 0715 4D070000 		.4byte	0x74d
 1870 0719 26       		.uleb128 0x26
 1871 071a 6D736700 		.ascii	"msg\000"
 1872 071e 01       		.byte	0x1
 1873 071f BA       		.byte	0xba
 1874 0720 F6000000 		.4byte	0xf6
ARM GAS  /tmp/ccXkb9tQ.s 			page 34


 1875 0724 AE020000 		.4byte	.LLST16
 1876 0728 29       		.uleb128 0x29
 1877 0729 48000000 		.4byte	.LBB23
 1878 072d 06000000 		.4byte	.LBE23-.LBB23
 1879 0731 43070000 		.4byte	0x743
 1880 0735 28       		.uleb128 0x28
 1881 0736 746D7000 		.ascii	"tmp\000"
 1882 073a 01       		.byte	0x1
 1883 073b BC       		.byte	0xbc
 1884 073c AD000000 		.4byte	0xad
 1885 0740 01       		.uleb128 0x1
 1886 0741 53       		.byte	0x53
 1887 0742 00       		.byte	0
 1888 0743 24       		.uleb128 0x24
 1889 0744 18000000 		.4byte	.LVL25
 1890 0748 15050000 		.4byte	0x515
 1891 074c 00       		.byte	0
 1892 074d 29       		.uleb128 0x29
 1893 074e 40000000 		.4byte	.LBB25
 1894 0752 06000000 		.4byte	.LBE25-.LBB25
 1895 0756 68070000 		.4byte	0x768
 1896 075a 28       		.uleb128 0x28
 1897 075b 746D7000 		.ascii	"tmp\000"
 1898 075f 01       		.byte	0x1
 1899 0760 C6       		.byte	0xc6
 1900 0761 AD000000 		.4byte	0xad
 1901 0765 01       		.uleb128 0x1
 1902 0766 53       		.byte	0x53
 1903 0767 00       		.byte	0
 1904 0768 2A       		.uleb128 0x2a
 1905 0769 12000000 		.4byte	.LVL23
 1906 076d 1D       		.uleb128 0x1d
 1907 076e 01       		.uleb128 0x1
 1908 076f 50       		.byte	0x50
 1909 0770 02       		.uleb128 0x2
 1910 0771 74       		.byte	0x74
 1911 0772 00       		.sleb128 0
 1912 0773 00       		.byte	0
 1913 0774 00       		.byte	0
 1914 0775 25       		.uleb128 0x25
 1915 0776 E8000000 		.4byte	.LASF86
 1916 077a 01       		.byte	0x1
 1917 077b E2       		.byte	0xe2
 1918 077c 2C000000 		.4byte	0x2c
 1919 0780 00000000 		.4byte	.LFB123
 1920 0784 78000000 		.4byte	.LFE123-.LFB123
 1921 0788 01       		.uleb128 0x1
 1922 0789 9C       		.byte	0x9c
 1923 078a 67080000 		.4byte	0x867
 1924 078e 18       		.uleb128 0x18
 1925 078f 69717000 		.ascii	"iqp\000"
 1926 0793 01       		.byte	0x1
 1927 0794 E2       		.byte	0xe2
 1928 0795 E2050000 		.4byte	0x5e2
 1929 0799 CC020000 		.4byte	.LLST17
 1930 079d 18       		.uleb128 0x18
 1931 079e 627000   		.ascii	"bp\000"
ARM GAS  /tmp/ccXkb9tQ.s 			page 35


 1932 07a1 01       		.byte	0x1
 1933 07a2 E2       		.byte	0xe2
 1934 07a3 A0040000 		.4byte	0x4a0
 1935 07a7 16030000 		.4byte	.LLST18
 1936 07ab 18       		.uleb128 0x18
 1937 07ac 6E00     		.ascii	"n\000"
 1938 07ae 01       		.byte	0x1
 1939 07af E3       		.byte	0xe3
 1940 07b0 2C000000 		.4byte	0x2c
 1941 07b4 6F030000 		.4byte	.LLST19
 1942 07b8 19       		.uleb128 0x19
 1943 07b9 E2020000 		.4byte	.LASF78
 1944 07bd 01       		.byte	0x1
 1945 07be E3       		.byte	0xe3
 1946 07bf 0C010000 		.4byte	0x10c
 1947 07c3 93030000 		.4byte	.LLST20
 1948 07c7 28       		.uleb128 0x28
 1949 07c8 6E667900 		.ascii	"nfy\000"
 1950 07cc 01       		.byte	0x1
 1951 07cd E4       		.byte	0xe4
 1952 07ce 7E040000 		.4byte	0x47e
 1953 07d2 01       		.uleb128 0x1
 1954 07d3 58       		.byte	0x58
 1955 07d4 26       		.uleb128 0x26
 1956 07d5 7200     		.ascii	"r\000"
 1957 07d7 01       		.byte	0x1
 1958 07d8 E5       		.byte	0xe5
 1959 07d9 2C000000 		.4byte	0x2c
 1960 07dd DD030000 		.4byte	.LLST21
 1961 07e1 29       		.uleb128 0x29
 1962 07e2 0C000000 		.4byte	.LBB27
 1963 07e6 06000000 		.4byte	.LBE27-.LBB27
 1964 07ea FC070000 		.4byte	0x7fc
 1965 07ee 28       		.uleb128 0x28
 1966 07ef 746D7000 		.ascii	"tmp\000"
 1967 07f3 01       		.byte	0x1
 1968 07f4 E9       		.byte	0xe9
 1969 07f5 AD000000 		.4byte	0xad
 1970 07f9 01       		.uleb128 0x1
 1971 07fa 53       		.byte	0x53
 1972 07fb 00       		.byte	0
 1973 07fc 29       		.uleb128 0x29
 1974 07fd 54000000 		.4byte	.LBB28
 1975 0801 06000000 		.4byte	.LBE28-.LBB28
 1976 0805 17080000 		.4byte	0x817
 1977 0809 28       		.uleb128 0x28
 1978 080a 746D7000 		.ascii	"tmp\000"
 1979 080e 01       		.byte	0x1
 1980 080f FA       		.byte	0xfa
 1981 0810 AD000000 		.4byte	0xad
 1982 0814 01       		.uleb128 0x1
 1983 0815 53       		.byte	0x53
 1984 0816 00       		.byte	0
 1985 0817 29       		.uleb128 0x29
 1986 0818 62000000 		.4byte	.LBB29
 1987 081c 08000000 		.4byte	.LBE29-.LBB29
 1988 0820 32080000 		.4byte	0x832
ARM GAS  /tmp/ccXkb9tQ.s 			page 36


 1989 0824 28       		.uleb128 0x28
 1990 0825 746D7000 		.ascii	"tmp\000"
 1991 0829 01       		.byte	0x1
 1992 082a FF       		.byte	0xff
 1993 082b AD000000 		.4byte	0xad
 1994 082f 01       		.uleb128 0x1
 1995 0830 53       		.byte	0x53
 1996 0831 00       		.byte	0
 1997 0832 29       		.uleb128 0x29
 1998 0833 6C000000 		.4byte	.LBB30
 1999 0837 06000000 		.4byte	.LBE30-.LBB30
 2000 083b 4D080000 		.4byte	0x84d
 2001 083f 28       		.uleb128 0x28
 2002 0840 746D7000 		.ascii	"tmp\000"
 2003 0844 01       		.byte	0x1
 2004 0845 F0       		.byte	0xf0
 2005 0846 AD000000 		.4byte	0xad
 2006 084a 01       		.uleb128 0x1
 2007 084b 53       		.byte	0x53
 2008 084c 00       		.byte	0
 2009 084d 2B       		.uleb128 0x2b
 2010 084e 26000000 		.4byte	.LVL37
 2011 0852 5D080000 		.4byte	0x85d
 2012 0856 1D       		.uleb128 0x1d
 2013 0857 01       		.uleb128 0x1
 2014 0858 50       		.byte	0x50
 2015 0859 02       		.uleb128 0x2
 2016 085a 74       		.byte	0x74
 2017 085b 00       		.sleb128 0
 2018 085c 00       		.byte	0
 2019 085d 24       		.uleb128 0x24
 2020 085e 2C000000 		.4byte	.LVL39
 2021 0862 15050000 		.4byte	0x515
 2022 0866 00       		.byte	0
 2023 0867 2C       		.uleb128 0x2c
 2024 0868 1A010000 		.4byte	.LASF87
 2025 086c 01       		.byte	0x1
 2026 086d 1301     		.2byte	0x113
 2027 086f 00000000 		.4byte	.LFB124
 2028 0873 1C000000 		.4byte	.LFE124-.LFB124
 2029 0877 01       		.uleb128 0x1
 2030 0878 9C       		.byte	0x9c
 2031 0879 C5080000 		.4byte	0x8c5
 2032 087d 2D       		.uleb128 0x2d
 2033 087e 6F717000 		.ascii	"oqp\000"
 2034 0882 01       		.byte	0x1
 2035 0883 1301     		.2byte	0x113
 2036 0885 C5080000 		.4byte	0x8c5
 2037 0889 01       		.uleb128 0x1
 2038 088a 50       		.byte	0x50
 2039 088b 2D       		.uleb128 0x2d
 2040 088c 627000   		.ascii	"bp\000"
 2041 088f 01       		.byte	0x1
 2042 0890 1301     		.2byte	0x113
 2043 0892 A0040000 		.4byte	0x4a0
 2044 0896 01       		.uleb128 0x1
 2045 0897 51       		.byte	0x51
ARM GAS  /tmp/ccXkb9tQ.s 			page 37


 2046 0898 2E       		.uleb128 0x2e
 2047 0899 FA010000 		.4byte	.LASF79
 2048 089d 01       		.byte	0x1
 2049 089e 1301     		.2byte	0x113
 2050 08a0 2C000000 		.4byte	0x2c
 2051 08a4 01       		.uleb128 0x1
 2052 08a5 52       		.byte	0x52
 2053 08a6 2E       		.uleb128 0x2e
 2054 08a7 BF000000 		.4byte	.LASF88
 2055 08ab 01       		.byte	0x1
 2056 08ac 1301     		.2byte	0x113
 2057 08ae 7E040000 		.4byte	0x47e
 2058 08b2 01       		.uleb128 0x1
 2059 08b3 53       		.byte	0x53
 2060 08b4 2F       		.uleb128 0x2f
 2061 08b5 CD010000 		.4byte	.LASF81
 2062 08b9 01       		.byte	0x1
 2063 08ba 1401     		.2byte	0x114
 2064 08bc 77020000 		.4byte	0x277
 2065 08c0 FC030000 		.4byte	.LLST22
 2066 08c4 00       		.byte	0
 2067 08c5 09       		.uleb128 0x9
 2068 08c6 04       		.byte	0x4
 2069 08c7 B1040000 		.4byte	0x4b1
 2070 08cb 2C       		.uleb128 0x2c
 2071 08cc FF030000 		.4byte	.LASF89
 2072 08d0 01       		.byte	0x1
 2073 08d1 2901     		.2byte	0x129
 2074 08d3 00000000 		.4byte	.LFB125
 2075 08d7 2E000000 		.4byte	.LFE125-.LFB125
 2076 08db 01       		.uleb128 0x1
 2077 08dc 9C       		.byte	0x9c
 2078 08dd 2C090000 		.4byte	0x92c
 2079 08e1 30       		.uleb128 0x30
 2080 08e2 6F717000 		.ascii	"oqp\000"
 2081 08e6 01       		.byte	0x1
 2082 08e7 2901     		.2byte	0x129
 2083 08e9 C5080000 		.4byte	0x8c5
 2084 08ed 1C040000 		.4byte	.LLST23
 2085 08f1 31       		.uleb128 0x31
 2086 08f2 EF040000 		.4byte	0x4ef
 2087 08f6 1A000000 		.4byte	.LBB31
 2088 08fa 06000000 		.4byte	.LBE31-.LBB31
 2089 08fe 01       		.byte	0x1
 2090 08ff 3001     		.2byte	0x130
 2091 0901 22090000 		.4byte	0x922
 2092 0905 1B       		.uleb128 0x1b
 2093 0906 FF040000 		.4byte	0x4ff
 2094 090a 3A040000 		.4byte	.LLST24
 2095 090e 22       		.uleb128 0x22
 2096 090f 1A000000 		.4byte	.LBB32
 2097 0913 06000000 		.4byte	.LBE32-.LBB32
 2098 0917 23       		.uleb128 0x23
 2099 0918 0A050000 		.4byte	0x50a
 2100 091c 4D040000 		.4byte	.LLST25
 2101 0920 00       		.byte	0
 2102 0921 00       		.byte	0
ARM GAS  /tmp/ccXkb9tQ.s 			page 38


 2103 0922 24       		.uleb128 0x24
 2104 0923 24000000 		.4byte	.LVL50
 2105 0927 AB0B0000 		.4byte	0xbab
 2106 092b 00       		.byte	0
 2107 092c 32       		.uleb128 0x32
 2108 092d 00000000 		.4byte	.LASF90
 2109 0931 01       		.byte	0x1
 2110 0932 4901     		.2byte	0x149
 2111 0934 F6000000 		.4byte	0xf6
 2112 0938 00000000 		.4byte	.LFB126
 2113 093c 54000000 		.4byte	.LFE126-.LFB126
 2114 0940 01       		.uleb128 0x1
 2115 0941 9C       		.byte	0x9c
 2116 0942 F8090000 		.4byte	0x9f8
 2117 0946 30       		.uleb128 0x30
 2118 0947 6F717000 		.ascii	"oqp\000"
 2119 094b 01       		.byte	0x1
 2120 094c 4901     		.2byte	0x149
 2121 094e C5080000 		.4byte	0x8c5
 2122 0952 60040000 		.4byte	.LLST26
 2123 0956 30       		.uleb128 0x30
 2124 0957 6200     		.ascii	"b\000"
 2125 0959 01       		.byte	0x1
 2126 095a 4901     		.2byte	0x149
 2127 095c 97000000 		.4byte	0x97
 2128 0960 94040000 		.4byte	.LLST27
 2129 0964 2F       		.uleb128 0x2f
 2130 0965 E2020000 		.4byte	.LASF78
 2131 0969 01       		.byte	0x1
 2132 096a 4901     		.2byte	0x149
 2133 096c 0C010000 		.4byte	0x10c
 2134 0970 B5040000 		.4byte	.LLST28
 2135 0974 29       		.uleb128 0x29
 2136 0975 08000000 		.4byte	.LBB33
 2137 0979 06000000 		.4byte	.LBE33-.LBB33
 2138 097d 90090000 		.4byte	0x990
 2139 0981 33       		.uleb128 0x33
 2140 0982 746D7000 		.ascii	"tmp\000"
 2141 0986 01       		.byte	0x1
 2142 0987 4B01     		.2byte	0x14b
 2143 0989 AD000000 		.4byte	0xad
 2144 098d 01       		.uleb128 0x1
 2145 098e 53       		.byte	0x53
 2146 098f 00       		.byte	0
 2147 0990 27       		.uleb128 0x27
 2148 0991 50000000 		.4byte	.Ldebug_ranges0+0x50
 2149 0995 CF090000 		.4byte	0x9cf
 2150 0999 34       		.uleb128 0x34
 2151 099a 6D736700 		.ascii	"msg\000"
 2152 099e 01       		.byte	0x1
 2153 099f 4D01     		.2byte	0x14d
 2154 09a1 F6000000 		.4byte	0xf6
 2155 09a5 F4040000 		.4byte	.LLST29
 2156 09a9 29       		.uleb128 0x29
 2157 09aa 4C000000 		.4byte	.LBB35
 2158 09ae 06000000 		.4byte	.LBE35-.LBB35
 2159 09b2 C5090000 		.4byte	0x9c5
ARM GAS  /tmp/ccXkb9tQ.s 			page 39


 2160 09b6 33       		.uleb128 0x33
 2161 09b7 746D7000 		.ascii	"tmp\000"
 2162 09bb 01       		.byte	0x1
 2163 09bc 5001     		.2byte	0x150
 2164 09be AD000000 		.4byte	0xad
 2165 09c2 01       		.uleb128 0x1
 2166 09c3 53       		.byte	0x53
 2167 09c4 00       		.byte	0
 2168 09c5 24       		.uleb128 0x24
 2169 09c6 14000000 		.4byte	.LVL54
 2170 09ca 15050000 		.4byte	0x515
 2171 09ce 00       		.byte	0
 2172 09cf 29       		.uleb128 0x29
 2173 09d0 42000000 		.4byte	.LBB37
 2174 09d4 06000000 		.4byte	.LBE37-.LBB37
 2175 09d8 EB090000 		.4byte	0x9eb
 2176 09dc 33       		.uleb128 0x33
 2177 09dd 746D7000 		.ascii	"tmp\000"
 2178 09e1 01       		.byte	0x1
 2179 09e2 5D01     		.2byte	0x15d
 2180 09e4 AD000000 		.4byte	0xad
 2181 09e8 01       		.uleb128 0x1
 2182 09e9 53       		.byte	0x53
 2183 09ea 00       		.byte	0
 2184 09eb 2A       		.uleb128 0x2a
 2185 09ec 42000000 		.4byte	.LVL58
 2186 09f0 1D       		.uleb128 0x1d
 2187 09f1 01       		.uleb128 0x1
 2188 09f2 50       		.byte	0x50
 2189 09f3 02       		.uleb128 0x2
 2190 09f4 74       		.byte	0x74
 2191 09f5 00       		.sleb128 0
 2192 09f6 00       		.byte	0
 2193 09f7 00       		.byte	0
 2194 09f8 32       		.uleb128 0x32
 2195 09f9 93010000 		.4byte	.LASF91
 2196 09fd 01       		.byte	0x1
 2197 09fe 6B01     		.2byte	0x16b
 2198 0a00 F6000000 		.4byte	0xf6
 2199 0a04 00000000 		.4byte	.LFB127
 2200 0a08 46000000 		.4byte	.LFE127-.LFB127
 2201 0a0c 01       		.uleb128 0x1
 2202 0a0d 9C       		.byte	0x9c
 2203 0a0e 6B0A0000 		.4byte	0xa6b
 2204 0a12 30       		.uleb128 0x30
 2205 0a13 6F717000 		.ascii	"oqp\000"
 2206 0a17 01       		.byte	0x1
 2207 0a18 6B01     		.2byte	0x16b
 2208 0a1a C5080000 		.4byte	0x8c5
 2209 0a1e 12050000 		.4byte	.LLST30
 2210 0a22 34       		.uleb128 0x34
 2211 0a23 6200     		.ascii	"b\000"
 2212 0a25 01       		.byte	0x1
 2213 0a26 6C01     		.2byte	0x16c
 2214 0a28 97000000 		.4byte	0x97
 2215 0a2c 5F050000 		.4byte	.LLST31
 2216 0a30 31       		.uleb128 0x31
ARM GAS  /tmp/ccXkb9tQ.s 			page 40


 2217 0a31 EF040000 		.4byte	0x4ef
 2218 0a35 24000000 		.4byte	.LBB39
 2219 0a39 06000000 		.4byte	.LBE39-.LBB39
 2220 0a3d 01       		.byte	0x1
 2221 0a3e 7901     		.2byte	0x179
 2222 0a40 610A0000 		.4byte	0xa61
 2223 0a44 1B       		.uleb128 0x1b
 2224 0a45 FF040000 		.4byte	0x4ff
 2225 0a49 A1050000 		.4byte	.LLST32
 2226 0a4d 22       		.uleb128 0x22
 2227 0a4e 24000000 		.4byte	.LBB40
 2228 0a52 06000000 		.4byte	.LBE40-.LBB40
 2229 0a56 23       		.uleb128 0x23
 2230 0a57 0A050000 		.4byte	0x50a
 2231 0a5b C2050000 		.4byte	.LLST33
 2232 0a5f 00       		.byte	0
 2233 0a60 00       		.byte	0
 2234 0a61 24       		.uleb128 0x24
 2235 0a62 2E000000 		.4byte	.LVL65
 2236 0a66 AB0B0000 		.4byte	0xbab
 2237 0a6a 00       		.byte	0
 2238 0a6b 32       		.uleb128 0x32
 2239 0a6c 5D020000 		.4byte	.LASF92
 2240 0a70 01       		.byte	0x1
 2241 0a71 9601     		.2byte	0x196
 2242 0a73 2C000000 		.4byte	0x2c
 2243 0a77 00000000 		.4byte	.LFB128
 2244 0a7b 76000000 		.4byte	.LFE128-.LFB128
 2245 0a7f 01       		.uleb128 0x1
 2246 0a80 9C       		.byte	0x9c
 2247 0a81 750B0000 		.4byte	0xb75
 2248 0a85 30       		.uleb128 0x30
 2249 0a86 6F717000 		.ascii	"oqp\000"
 2250 0a8a 01       		.byte	0x1
 2251 0a8b 9601     		.2byte	0x196
 2252 0a8d C5080000 		.4byte	0x8c5
 2253 0a91 D5050000 		.4byte	.LLST34
 2254 0a95 30       		.uleb128 0x30
 2255 0a96 627000   		.ascii	"bp\000"
 2256 0a99 01       		.byte	0x1
 2257 0a9a 9601     		.2byte	0x196
 2258 0a9c BC040000 		.4byte	0x4bc
 2259 0aa0 1F060000 		.4byte	.LLST35
 2260 0aa4 30       		.uleb128 0x30
 2261 0aa5 6E00     		.ascii	"n\000"
 2262 0aa7 01       		.byte	0x1
 2263 0aa8 9701     		.2byte	0x197
 2264 0aaa 2C000000 		.4byte	0x2c
 2265 0aae 48060000 		.4byte	.LLST36
 2266 0ab2 2F       		.uleb128 0x2f
 2267 0ab3 E2020000 		.4byte	.LASF78
 2268 0ab7 01       		.byte	0x1
 2269 0ab8 9701     		.2byte	0x197
 2270 0aba 0C010000 		.4byte	0x10c
 2271 0abe 7E060000 		.4byte	.LLST37
 2272 0ac2 33       		.uleb128 0x33
 2273 0ac3 6E667900 		.ascii	"nfy\000"
ARM GAS  /tmp/ccXkb9tQ.s 			page 41


 2274 0ac7 01       		.byte	0x1
 2275 0ac8 9801     		.2byte	0x198
 2276 0aca 7E040000 		.4byte	0x47e
 2277 0ace 01       		.uleb128 0x1
 2278 0acf 59       		.byte	0x59
 2279 0ad0 34       		.uleb128 0x34
 2280 0ad1 7700     		.ascii	"w\000"
 2281 0ad3 01       		.byte	0x1
 2282 0ad4 9901     		.2byte	0x199
 2283 0ad6 2C000000 		.4byte	0x2c
 2284 0ada 9C060000 		.4byte	.LLST38
 2285 0ade 29       		.uleb128 0x29
 2286 0adf 10000000 		.4byte	.LBB41
 2287 0ae3 06000000 		.4byte	.LBE41-.LBB41
 2288 0ae7 FA0A0000 		.4byte	0xafa
 2289 0aeb 33       		.uleb128 0x33
 2290 0aec 746D7000 		.ascii	"tmp\000"
 2291 0af0 01       		.byte	0x1
 2292 0af1 9D01     		.2byte	0x19d
 2293 0af3 AD000000 		.4byte	0xad
 2294 0af7 01       		.uleb128 0x1
 2295 0af8 53       		.byte	0x53
 2296 0af9 00       		.byte	0
 2297 0afa 29       		.uleb128 0x29
 2298 0afb 46000000 		.4byte	.LBB42
 2299 0aff 06000000 		.4byte	.LBE42-.LBB42
 2300 0b03 160B0000 		.4byte	0xb16
 2301 0b07 33       		.uleb128 0x33
 2302 0b08 746D7000 		.ascii	"tmp\000"
 2303 0b0c 01       		.byte	0x1
 2304 0b0d AD01     		.2byte	0x1ad
 2305 0b0f AD000000 		.4byte	0xad
 2306 0b13 01       		.uleb128 0x1
 2307 0b14 53       		.byte	0x53
 2308 0b15 00       		.byte	0
 2309 0b16 29       		.uleb128 0x29
 2310 0b17 54000000 		.4byte	.LBB43
 2311 0b1b 06000000 		.4byte	.LBE43-.LBB43
 2312 0b1f 320B0000 		.4byte	0xb32
 2313 0b23 33       		.uleb128 0x33
 2314 0b24 746D7000 		.ascii	"tmp\000"
 2315 0b28 01       		.byte	0x1
 2316 0b29 B101     		.2byte	0x1b1
 2317 0b2b AD000000 		.4byte	0xad
 2318 0b2f 01       		.uleb128 0x1
 2319 0b30 53       		.byte	0x53
 2320 0b31 00       		.byte	0
 2321 0b32 29       		.uleb128 0x29
 2322 0b33 6A000000 		.4byte	.LBB44
 2323 0b37 06000000 		.4byte	.LBE44-.LBB44
 2324 0b3b 4E0B0000 		.4byte	0xb4e
 2325 0b3f 33       		.uleb128 0x33
 2326 0b40 746D7000 		.ascii	"tmp\000"
 2327 0b44 01       		.byte	0x1
 2328 0b45 A101     		.2byte	0x1a1
 2329 0b47 AD000000 		.4byte	0xad
 2330 0b4b 01       		.uleb128 0x1
ARM GAS  /tmp/ccXkb9tQ.s 			page 42


 2331 0b4c 53       		.byte	0x53
 2332 0b4d 00       		.byte	0
 2333 0b4e 2B       		.uleb128 0x2b
 2334 0b4f 46000000 		.4byte	.LVL78
 2335 0b53 5E0B0000 		.4byte	0xb5e
 2336 0b57 1D       		.uleb128 0x1d
 2337 0b58 01       		.uleb128 0x1
 2338 0b59 50       		.byte	0x50
 2339 0b5a 02       		.uleb128 0x2
 2340 0b5b 74       		.byte	0x74
 2341 0b5c 00       		.sleb128 0
 2342 0b5d 00       		.byte	0
 2343 0b5e 35       		.uleb128 0x35
 2344 0b5f 66000000 		.4byte	.LVL83
 2345 0b63 15050000 		.4byte	0x515
 2346 0b67 1D       		.uleb128 0x1d
 2347 0b68 01       		.uleb128 0x1
 2348 0b69 51       		.byte	0x51
 2349 0b6a 02       		.uleb128 0x2
 2350 0b6b 7A       		.byte	0x7a
 2351 0b6c 00       		.sleb128 0
 2352 0b6d 1D       		.uleb128 0x1d
 2353 0b6e 01       		.uleb128 0x1
 2354 0b6f 50       		.byte	0x50
 2355 0b70 02       		.uleb128 0x2
 2356 0b71 74       		.byte	0x74
 2357 0b72 00       		.sleb128 0
 2358 0b73 00       		.byte	0
 2359 0b74 00       		.byte	0
 2360 0b75 36       		.uleb128 0x36
 2361 0b76 2C010000 		.4byte	.LASF93
 2362 0b7a 0D       		.byte	0xd
 2363 0b7b 9806     		.2byte	0x698
 2364 0b7d 810B0000 		.4byte	0xb81
 2365 0b81 0D       		.uleb128 0xd
 2366 0b82 A2000000 		.4byte	0xa2
 2367 0b86 37       		.uleb128 0x37
 2368 0b87 58040000 		.4byte	.LASF94
 2369 0b8b 0A       		.byte	0xa
 2370 0b8c 6F       		.byte	0x6f
 2371 0b8d 6C030000 		.4byte	0x36c
 2372 0b91 38       		.uleb128 0x38
 2373 0b92 74040000 		.4byte	.LASF101
 2374 0b96 0A       		.byte	0xa
 2375 0b97 96       		.byte	0x96
 2376 0b98 F6000000 		.4byte	0xf6
 2377 0b9c AB0B0000 		.4byte	0xbab
 2378 0ba0 12       		.uleb128 0x12
 2379 0ba1 D5000000 		.4byte	0xd5
 2380 0ba5 12       		.uleb128 0x12
 2381 0ba6 0C010000 		.4byte	0x10c
 2382 0baa 00       		.byte	0
 2383 0bab 39       		.uleb128 0x39
 2384 0bac 9F030000 		.4byte	.LASF102
 2385 0bb0 0A       		.byte	0xa
 2386 0bb1 90       		.byte	0x90
 2387 0bb2 34020000 		.4byte	0x234
ARM GAS  /tmp/ccXkb9tQ.s 			page 43


 2388 0bb6 12       		.uleb128 0x12
 2389 0bb7 34020000 		.4byte	0x234
 2390 0bbb 00       		.byte	0
 2391 0bbc 00       		.byte	0
 2392              		.section	.debug_abbrev,"",%progbits
 2393              	.Ldebug_abbrev0:
 2394 0000 01       		.uleb128 0x1
 2395 0001 11       		.uleb128 0x11
 2396 0002 01       		.byte	0x1
 2397 0003 25       		.uleb128 0x25
 2398 0004 0E       		.uleb128 0xe
 2399 0005 13       		.uleb128 0x13
 2400 0006 0B       		.uleb128 0xb
 2401 0007 03       		.uleb128 0x3
 2402 0008 0E       		.uleb128 0xe
 2403 0009 1B       		.uleb128 0x1b
 2404 000a 0E       		.uleb128 0xe
 2405 000b 55       		.uleb128 0x55
 2406 000c 17       		.uleb128 0x17
 2407 000d 11       		.uleb128 0x11
 2408 000e 01       		.uleb128 0x1
 2409 000f 10       		.uleb128 0x10
 2410 0010 17       		.uleb128 0x17
 2411 0011 00       		.byte	0
 2412 0012 00       		.byte	0
 2413 0013 02       		.uleb128 0x2
 2414 0014 24       		.uleb128 0x24
 2415 0015 00       		.byte	0
 2416 0016 0B       		.uleb128 0xb
 2417 0017 0B       		.uleb128 0xb
 2418 0018 3E       		.uleb128 0x3e
 2419 0019 0B       		.uleb128 0xb
 2420 001a 03       		.uleb128 0x3
 2421 001b 08       		.uleb128 0x8
 2422 001c 00       		.byte	0
 2423 001d 00       		.byte	0
 2424 001e 03       		.uleb128 0x3
 2425 001f 16       		.uleb128 0x16
 2426 0020 00       		.byte	0
 2427 0021 03       		.uleb128 0x3
 2428 0022 0E       		.uleb128 0xe
 2429 0023 3A       		.uleb128 0x3a
 2430 0024 0B       		.uleb128 0xb
 2431 0025 3B       		.uleb128 0x3b
 2432 0026 0B       		.uleb128 0xb
 2433 0027 49       		.uleb128 0x49
 2434 0028 13       		.uleb128 0x13
 2435 0029 00       		.byte	0
 2436 002a 00       		.byte	0
 2437 002b 04       		.uleb128 0x4
 2438 002c 24       		.uleb128 0x24
 2439 002d 00       		.byte	0
 2440 002e 0B       		.uleb128 0xb
 2441 002f 0B       		.uleb128 0xb
 2442 0030 3E       		.uleb128 0x3e
 2443 0031 0B       		.uleb128 0xb
 2444 0032 03       		.uleb128 0x3
ARM GAS  /tmp/ccXkb9tQ.s 			page 44


 2445 0033 0E       		.uleb128 0xe
 2446 0034 00       		.byte	0
 2447 0035 00       		.byte	0
 2448 0036 05       		.uleb128 0x5
 2449 0037 13       		.uleb128 0x13
 2450 0038 01       		.byte	0x1
 2451 0039 03       		.uleb128 0x3
 2452 003a 0E       		.uleb128 0xe
 2453 003b 0B       		.uleb128 0xb
 2454 003c 0B       		.uleb128 0xb
 2455 003d 3A       		.uleb128 0x3a
 2456 003e 0B       		.uleb128 0xb
 2457 003f 3B       		.uleb128 0x3b
 2458 0040 0B       		.uleb128 0xb
 2459 0041 01       		.uleb128 0x1
 2460 0042 13       		.uleb128 0x13
 2461 0043 00       		.byte	0
 2462 0044 00       		.byte	0
 2463 0045 06       		.uleb128 0x6
 2464 0046 0D       		.uleb128 0xd
 2465 0047 00       		.byte	0
 2466 0048 03       		.uleb128 0x3
 2467 0049 0E       		.uleb128 0xe
 2468 004a 3A       		.uleb128 0x3a
 2469 004b 0B       		.uleb128 0xb
 2470 004c 3B       		.uleb128 0x3b
 2471 004d 0B       		.uleb128 0xb
 2472 004e 49       		.uleb128 0x49
 2473 004f 13       		.uleb128 0x13
 2474 0050 38       		.uleb128 0x38
 2475 0051 0B       		.uleb128 0xb
 2476 0052 00       		.byte	0
 2477 0053 00       		.byte	0
 2478 0054 07       		.uleb128 0x7
 2479 0055 0D       		.uleb128 0xd
 2480 0056 00       		.byte	0
 2481 0057 03       		.uleb128 0x3
 2482 0058 08       		.uleb128 0x8
 2483 0059 3A       		.uleb128 0x3a
 2484 005a 0B       		.uleb128 0xb
 2485 005b 3B       		.uleb128 0x3b
 2486 005c 0B       		.uleb128 0xb
 2487 005d 49       		.uleb128 0x49
 2488 005e 13       		.uleb128 0x13
 2489 005f 38       		.uleb128 0x38
 2490 0060 0B       		.uleb128 0xb
 2491 0061 00       		.byte	0
 2492 0062 00       		.byte	0
 2493 0063 08       		.uleb128 0x8
 2494 0064 13       		.uleb128 0x13
 2495 0065 01       		.byte	0x1
 2496 0066 0B       		.uleb128 0xb
 2497 0067 0B       		.uleb128 0xb
 2498 0068 3A       		.uleb128 0x3a
 2499 0069 0B       		.uleb128 0xb
 2500 006a 3B       		.uleb128 0x3b
 2501 006b 0B       		.uleb128 0xb
ARM GAS  /tmp/ccXkb9tQ.s 			page 45


 2502 006c 01       		.uleb128 0x1
 2503 006d 13       		.uleb128 0x13
 2504 006e 00       		.byte	0
 2505 006f 00       		.byte	0
 2506 0070 09       		.uleb128 0x9
 2507 0071 0F       		.uleb128 0xf
 2508 0072 00       		.byte	0
 2509 0073 0B       		.uleb128 0xb
 2510 0074 0B       		.uleb128 0xb
 2511 0075 49       		.uleb128 0x49
 2512 0076 13       		.uleb128 0x13
 2513 0077 00       		.byte	0
 2514 0078 00       		.byte	0
 2515 0079 0A       		.uleb128 0xa
 2516 007a 0F       		.uleb128 0xf
 2517 007b 00       		.byte	0
 2518 007c 0B       		.uleb128 0xb
 2519 007d 0B       		.uleb128 0xb
 2520 007e 00       		.byte	0
 2521 007f 00       		.byte	0
 2522 0080 0B       		.uleb128 0xb
 2523 0081 13       		.uleb128 0x13
 2524 0082 01       		.byte	0x1
 2525 0083 03       		.uleb128 0x3
 2526 0084 0E       		.uleb128 0xe
 2527 0085 0B       		.uleb128 0xb
 2528 0086 0B       		.uleb128 0xb
 2529 0087 3A       		.uleb128 0x3a
 2530 0088 0B       		.uleb128 0xb
 2531 0089 3B       		.uleb128 0x3b
 2532 008a 05       		.uleb128 0x5
 2533 008b 01       		.uleb128 0x1
 2534 008c 13       		.uleb128 0x13
 2535 008d 00       		.byte	0
 2536 008e 00       		.byte	0
 2537 008f 0C       		.uleb128 0xc
 2538 0090 0D       		.uleb128 0xd
 2539 0091 00       		.byte	0
 2540 0092 03       		.uleb128 0x3
 2541 0093 08       		.uleb128 0x8
 2542 0094 3A       		.uleb128 0x3a
 2543 0095 0B       		.uleb128 0xb
 2544 0096 3B       		.uleb128 0x3b
 2545 0097 05       		.uleb128 0x5
 2546 0098 49       		.uleb128 0x49
 2547 0099 13       		.uleb128 0x13
 2548 009a 38       		.uleb128 0x38
 2549 009b 0B       		.uleb128 0xb
 2550 009c 00       		.byte	0
 2551 009d 00       		.byte	0
 2552 009e 0D       		.uleb128 0xd
 2553 009f 35       		.uleb128 0x35
 2554 00a0 00       		.byte	0
 2555 00a1 49       		.uleb128 0x49
 2556 00a2 13       		.uleb128 0x13
 2557 00a3 00       		.byte	0
 2558 00a4 00       		.byte	0
ARM GAS  /tmp/ccXkb9tQ.s 			page 46


 2559 00a5 0E       		.uleb128 0xe
 2560 00a6 17       		.uleb128 0x17
 2561 00a7 01       		.byte	0x1
 2562 00a8 0B       		.uleb128 0xb
 2563 00a9 0B       		.uleb128 0xb
 2564 00aa 3A       		.uleb128 0x3a
 2565 00ab 0B       		.uleb128 0xb
 2566 00ac 3B       		.uleb128 0x3b
 2567 00ad 0B       		.uleb128 0xb
 2568 00ae 01       		.uleb128 0x1
 2569 00af 13       		.uleb128 0x13
 2570 00b0 00       		.byte	0
 2571 00b1 00       		.byte	0
 2572 00b2 0F       		.uleb128 0xf
 2573 00b3 0D       		.uleb128 0xd
 2574 00b4 00       		.byte	0
 2575 00b5 03       		.uleb128 0x3
 2576 00b6 0E       		.uleb128 0xe
 2577 00b7 3A       		.uleb128 0x3a
 2578 00b8 0B       		.uleb128 0xb
 2579 00b9 3B       		.uleb128 0x3b
 2580 00ba 0B       		.uleb128 0xb
 2581 00bb 49       		.uleb128 0x49
 2582 00bc 13       		.uleb128 0x13
 2583 00bd 00       		.byte	0
 2584 00be 00       		.byte	0
 2585 00bf 10       		.uleb128 0x10
 2586 00c0 26       		.uleb128 0x26
 2587 00c1 00       		.byte	0
 2588 00c2 49       		.uleb128 0x49
 2589 00c3 13       		.uleb128 0x13
 2590 00c4 00       		.byte	0
 2591 00c5 00       		.byte	0
 2592 00c6 11       		.uleb128 0x11
 2593 00c7 15       		.uleb128 0x15
 2594 00c8 01       		.byte	0x1
 2595 00c9 27       		.uleb128 0x27
 2596 00ca 19       		.uleb128 0x19
 2597 00cb 01       		.uleb128 0x1
 2598 00cc 13       		.uleb128 0x13
 2599 00cd 00       		.byte	0
 2600 00ce 00       		.byte	0
 2601 00cf 12       		.uleb128 0x12
 2602 00d0 05       		.uleb128 0x5
 2603 00d1 00       		.byte	0
 2604 00d2 49       		.uleb128 0x49
 2605 00d3 13       		.uleb128 0x13
 2606 00d4 00       		.byte	0
 2607 00d5 00       		.byte	0
 2608 00d6 13       		.uleb128 0x13
 2609 00d7 2E       		.uleb128 0x2e
 2610 00d8 01       		.byte	0x1
 2611 00d9 03       		.uleb128 0x3
 2612 00da 0E       		.uleb128 0xe
 2613 00db 3A       		.uleb128 0x3a
 2614 00dc 0B       		.uleb128 0xb
 2615 00dd 3B       		.uleb128 0x3b
ARM GAS  /tmp/ccXkb9tQ.s 			page 47


 2616 00de 0B       		.uleb128 0xb
 2617 00df 27       		.uleb128 0x27
 2618 00e0 19       		.uleb128 0x19
 2619 00e1 20       		.uleb128 0x20
 2620 00e2 0B       		.uleb128 0xb
 2621 00e3 01       		.uleb128 0x1
 2622 00e4 13       		.uleb128 0x13
 2623 00e5 00       		.byte	0
 2624 00e6 00       		.byte	0
 2625 00e7 14       		.uleb128 0x14
 2626 00e8 05       		.uleb128 0x5
 2627 00e9 00       		.byte	0
 2628 00ea 03       		.uleb128 0x3
 2629 00eb 08       		.uleb128 0x8
 2630 00ec 3A       		.uleb128 0x3a
 2631 00ed 0B       		.uleb128 0xb
 2632 00ee 3B       		.uleb128 0x3b
 2633 00ef 0B       		.uleb128 0xb
 2634 00f0 49       		.uleb128 0x49
 2635 00f1 13       		.uleb128 0x13
 2636 00f2 00       		.byte	0
 2637 00f3 00       		.byte	0
 2638 00f4 15       		.uleb128 0x15
 2639 00f5 2E       		.uleb128 0x2e
 2640 00f6 01       		.byte	0x1
 2641 00f7 03       		.uleb128 0x3
 2642 00f8 0E       		.uleb128 0xe
 2643 00f9 3A       		.uleb128 0x3a
 2644 00fa 0B       		.uleb128 0xb
 2645 00fb 3B       		.uleb128 0x3b
 2646 00fc 0B       		.uleb128 0xb
 2647 00fd 27       		.uleb128 0x27
 2648 00fe 19       		.uleb128 0x19
 2649 00ff 49       		.uleb128 0x49
 2650 0100 13       		.uleb128 0x13
 2651 0101 20       		.uleb128 0x20
 2652 0102 0B       		.uleb128 0xb
 2653 0103 01       		.uleb128 0x1
 2654 0104 13       		.uleb128 0x13
 2655 0105 00       		.byte	0
 2656 0106 00       		.byte	0
 2657 0107 16       		.uleb128 0x16
 2658 0108 34       		.uleb128 0x34
 2659 0109 00       		.byte	0
 2660 010a 03       		.uleb128 0x3
 2661 010b 08       		.uleb128 0x8
 2662 010c 3A       		.uleb128 0x3a
 2663 010d 0B       		.uleb128 0xb
 2664 010e 3B       		.uleb128 0x3b
 2665 010f 0B       		.uleb128 0xb
 2666 0110 49       		.uleb128 0x49
 2667 0111 13       		.uleb128 0x13
 2668 0112 00       		.byte	0
 2669 0113 00       		.byte	0
 2670 0114 17       		.uleb128 0x17
 2671 0115 2E       		.uleb128 0x2e
 2672 0116 01       		.byte	0x1
ARM GAS  /tmp/ccXkb9tQ.s 			page 48


 2673 0117 03       		.uleb128 0x3
 2674 0118 0E       		.uleb128 0xe
 2675 0119 3A       		.uleb128 0x3a
 2676 011a 0B       		.uleb128 0xb
 2677 011b 3B       		.uleb128 0x3b
 2678 011c 0B       		.uleb128 0xb
 2679 011d 27       		.uleb128 0x27
 2680 011e 19       		.uleb128 0x19
 2681 011f 49       		.uleb128 0x49
 2682 0120 13       		.uleb128 0x13
 2683 0121 11       		.uleb128 0x11
 2684 0122 01       		.uleb128 0x1
 2685 0123 12       		.uleb128 0x12
 2686 0124 06       		.uleb128 0x6
 2687 0125 40       		.uleb128 0x40
 2688 0126 18       		.uleb128 0x18
 2689 0127 9742     		.uleb128 0x2117
 2690 0129 19       		.uleb128 0x19
 2691 012a 01       		.uleb128 0x1
 2692 012b 13       		.uleb128 0x13
 2693 012c 00       		.byte	0
 2694 012d 00       		.byte	0
 2695 012e 18       		.uleb128 0x18
 2696 012f 05       		.uleb128 0x5
 2697 0130 00       		.byte	0
 2698 0131 03       		.uleb128 0x3
 2699 0132 08       		.uleb128 0x8
 2700 0133 3A       		.uleb128 0x3a
 2701 0134 0B       		.uleb128 0xb
 2702 0135 3B       		.uleb128 0x3b
 2703 0136 0B       		.uleb128 0xb
 2704 0137 49       		.uleb128 0x49
 2705 0138 13       		.uleb128 0x13
 2706 0139 02       		.uleb128 0x2
 2707 013a 17       		.uleb128 0x17
 2708 013b 00       		.byte	0
 2709 013c 00       		.byte	0
 2710 013d 19       		.uleb128 0x19
 2711 013e 05       		.uleb128 0x5
 2712 013f 00       		.byte	0
 2713 0140 03       		.uleb128 0x3
 2714 0141 0E       		.uleb128 0xe
 2715 0142 3A       		.uleb128 0x3a
 2716 0143 0B       		.uleb128 0xb
 2717 0144 3B       		.uleb128 0x3b
 2718 0145 0B       		.uleb128 0xb
 2719 0146 49       		.uleb128 0x49
 2720 0147 13       		.uleb128 0x13
 2721 0148 02       		.uleb128 0x2
 2722 0149 17       		.uleb128 0x17
 2723 014a 00       		.byte	0
 2724 014b 00       		.byte	0
 2725 014c 1A       		.uleb128 0x1a
 2726 014d 1D       		.uleb128 0x1d
 2727 014e 01       		.byte	0x1
 2728 014f 31       		.uleb128 0x31
 2729 0150 13       		.uleb128 0x13
ARM GAS  /tmp/ccXkb9tQ.s 			page 49


 2730 0151 52       		.uleb128 0x52
 2731 0152 01       		.uleb128 0x1
 2732 0153 55       		.uleb128 0x55
 2733 0154 17       		.uleb128 0x17
 2734 0155 58       		.uleb128 0x58
 2735 0156 0B       		.uleb128 0xb
 2736 0157 59       		.uleb128 0x59
 2737 0158 0B       		.uleb128 0xb
 2738 0159 01       		.uleb128 0x1
 2739 015a 13       		.uleb128 0x13
 2740 015b 00       		.byte	0
 2741 015c 00       		.byte	0
 2742 015d 1B       		.uleb128 0x1b
 2743 015e 05       		.uleb128 0x5
 2744 015f 00       		.byte	0
 2745 0160 31       		.uleb128 0x31
 2746 0161 13       		.uleb128 0x13
 2747 0162 02       		.uleb128 0x2
 2748 0163 17       		.uleb128 0x17
 2749 0164 00       		.byte	0
 2750 0165 00       		.byte	0
 2751 0166 1C       		.uleb128 0x1c
 2752 0167 898201   		.uleb128 0x4109
 2753 016a 01       		.byte	0x1
 2754 016b 11       		.uleb128 0x11
 2755 016c 01       		.uleb128 0x1
 2756 016d 9542     		.uleb128 0x2115
 2757 016f 19       		.uleb128 0x19
 2758 0170 31       		.uleb128 0x31
 2759 0171 13       		.uleb128 0x13
 2760 0172 00       		.byte	0
 2761 0173 00       		.byte	0
 2762 0174 1D       		.uleb128 0x1d
 2763 0175 8A8201   		.uleb128 0x410a
 2764 0178 00       		.byte	0
 2765 0179 02       		.uleb128 0x2
 2766 017a 18       		.uleb128 0x18
 2767 017b 9142     		.uleb128 0x2111
 2768 017d 18       		.uleb128 0x18
 2769 017e 00       		.byte	0
 2770 017f 00       		.byte	0
 2771 0180 1E       		.uleb128 0x1e
 2772 0181 2E       		.uleb128 0x2e
 2773 0182 01       		.byte	0x1
 2774 0183 3F       		.uleb128 0x3f
 2775 0184 19       		.uleb128 0x19
 2776 0185 03       		.uleb128 0x3
 2777 0186 0E       		.uleb128 0xe
 2778 0187 3A       		.uleb128 0x3a
 2779 0188 0B       		.uleb128 0xb
 2780 0189 3B       		.uleb128 0x3b
 2781 018a 0B       		.uleb128 0xb
 2782 018b 27       		.uleb128 0x27
 2783 018c 19       		.uleb128 0x19
 2784 018d 11       		.uleb128 0x11
 2785 018e 01       		.uleb128 0x1
 2786 018f 12       		.uleb128 0x12
ARM GAS  /tmp/ccXkb9tQ.s 			page 50


 2787 0190 06       		.uleb128 0x6
 2788 0191 40       		.uleb128 0x40
 2789 0192 18       		.uleb128 0x18
 2790 0193 9742     		.uleb128 0x2117
 2791 0195 19       		.uleb128 0x19
 2792 0196 01       		.uleb128 0x1
 2793 0197 13       		.uleb128 0x13
 2794 0198 00       		.byte	0
 2795 0199 00       		.byte	0
 2796 019a 1F       		.uleb128 0x1f
 2797 019b 05       		.uleb128 0x5
 2798 019c 00       		.byte	0
 2799 019d 03       		.uleb128 0x3
 2800 019e 08       		.uleb128 0x8
 2801 019f 3A       		.uleb128 0x3a
 2802 01a0 0B       		.uleb128 0xb
 2803 01a1 3B       		.uleb128 0x3b
 2804 01a2 0B       		.uleb128 0xb
 2805 01a3 49       		.uleb128 0x49
 2806 01a4 13       		.uleb128 0x13
 2807 01a5 02       		.uleb128 0x2
 2808 01a6 18       		.uleb128 0x18
 2809 01a7 00       		.byte	0
 2810 01a8 00       		.byte	0
 2811 01a9 20       		.uleb128 0x20
 2812 01aa 05       		.uleb128 0x5
 2813 01ab 00       		.byte	0
 2814 01ac 03       		.uleb128 0x3
 2815 01ad 0E       		.uleb128 0xe
 2816 01ae 3A       		.uleb128 0x3a
 2817 01af 0B       		.uleb128 0xb
 2818 01b0 3B       		.uleb128 0x3b
 2819 01b1 0B       		.uleb128 0xb
 2820 01b2 49       		.uleb128 0x49
 2821 01b3 13       		.uleb128 0x13
 2822 01b4 02       		.uleb128 0x2
 2823 01b5 18       		.uleb128 0x18
 2824 01b6 00       		.byte	0
 2825 01b7 00       		.byte	0
 2826 01b8 21       		.uleb128 0x21
 2827 01b9 1D       		.uleb128 0x1d
 2828 01ba 01       		.byte	0x1
 2829 01bb 31       		.uleb128 0x31
 2830 01bc 13       		.uleb128 0x13
 2831 01bd 11       		.uleb128 0x11
 2832 01be 01       		.uleb128 0x1
 2833 01bf 12       		.uleb128 0x12
 2834 01c0 06       		.uleb128 0x6
 2835 01c1 58       		.uleb128 0x58
 2836 01c2 0B       		.uleb128 0xb
 2837 01c3 59       		.uleb128 0x59
 2838 01c4 0B       		.uleb128 0xb
 2839 01c5 01       		.uleb128 0x1
 2840 01c6 13       		.uleb128 0x13
 2841 01c7 00       		.byte	0
 2842 01c8 00       		.byte	0
 2843 01c9 22       		.uleb128 0x22
ARM GAS  /tmp/ccXkb9tQ.s 			page 51


 2844 01ca 0B       		.uleb128 0xb
 2845 01cb 01       		.byte	0x1
 2846 01cc 11       		.uleb128 0x11
 2847 01cd 01       		.uleb128 0x1
 2848 01ce 12       		.uleb128 0x12
 2849 01cf 06       		.uleb128 0x6
 2850 01d0 00       		.byte	0
 2851 01d1 00       		.byte	0
 2852 01d2 23       		.uleb128 0x23
 2853 01d3 34       		.uleb128 0x34
 2854 01d4 00       		.byte	0
 2855 01d5 31       		.uleb128 0x31
 2856 01d6 13       		.uleb128 0x13
 2857 01d7 02       		.uleb128 0x2
 2858 01d8 17       		.uleb128 0x17
 2859 01d9 00       		.byte	0
 2860 01da 00       		.byte	0
 2861 01db 24       		.uleb128 0x24
 2862 01dc 898201   		.uleb128 0x4109
 2863 01df 00       		.byte	0
 2864 01e0 11       		.uleb128 0x11
 2865 01e1 01       		.uleb128 0x1
 2866 01e2 31       		.uleb128 0x31
 2867 01e3 13       		.uleb128 0x13
 2868 01e4 00       		.byte	0
 2869 01e5 00       		.byte	0
 2870 01e6 25       		.uleb128 0x25
 2871 01e7 2E       		.uleb128 0x2e
 2872 01e8 01       		.byte	0x1
 2873 01e9 3F       		.uleb128 0x3f
 2874 01ea 19       		.uleb128 0x19
 2875 01eb 03       		.uleb128 0x3
 2876 01ec 0E       		.uleb128 0xe
 2877 01ed 3A       		.uleb128 0x3a
 2878 01ee 0B       		.uleb128 0xb
 2879 01ef 3B       		.uleb128 0x3b
 2880 01f0 0B       		.uleb128 0xb
 2881 01f1 27       		.uleb128 0x27
 2882 01f2 19       		.uleb128 0x19
 2883 01f3 49       		.uleb128 0x49
 2884 01f4 13       		.uleb128 0x13
 2885 01f5 11       		.uleb128 0x11
 2886 01f6 01       		.uleb128 0x1
 2887 01f7 12       		.uleb128 0x12
 2888 01f8 06       		.uleb128 0x6
 2889 01f9 40       		.uleb128 0x40
 2890 01fa 18       		.uleb128 0x18
 2891 01fb 9742     		.uleb128 0x2117
 2892 01fd 19       		.uleb128 0x19
 2893 01fe 01       		.uleb128 0x1
 2894 01ff 13       		.uleb128 0x13
 2895 0200 00       		.byte	0
 2896 0201 00       		.byte	0
 2897 0202 26       		.uleb128 0x26
 2898 0203 34       		.uleb128 0x34
 2899 0204 00       		.byte	0
 2900 0205 03       		.uleb128 0x3
ARM GAS  /tmp/ccXkb9tQ.s 			page 52


 2901 0206 08       		.uleb128 0x8
 2902 0207 3A       		.uleb128 0x3a
 2903 0208 0B       		.uleb128 0xb
 2904 0209 3B       		.uleb128 0x3b
 2905 020a 0B       		.uleb128 0xb
 2906 020b 49       		.uleb128 0x49
 2907 020c 13       		.uleb128 0x13
 2908 020d 02       		.uleb128 0x2
 2909 020e 17       		.uleb128 0x17
 2910 020f 00       		.byte	0
 2911 0210 00       		.byte	0
 2912 0211 27       		.uleb128 0x27
 2913 0212 0B       		.uleb128 0xb
 2914 0213 01       		.byte	0x1
 2915 0214 55       		.uleb128 0x55
 2916 0215 17       		.uleb128 0x17
 2917 0216 01       		.uleb128 0x1
 2918 0217 13       		.uleb128 0x13
 2919 0218 00       		.byte	0
 2920 0219 00       		.byte	0
 2921 021a 28       		.uleb128 0x28
 2922 021b 34       		.uleb128 0x34
 2923 021c 00       		.byte	0
 2924 021d 03       		.uleb128 0x3
 2925 021e 08       		.uleb128 0x8
 2926 021f 3A       		.uleb128 0x3a
 2927 0220 0B       		.uleb128 0xb
 2928 0221 3B       		.uleb128 0x3b
 2929 0222 0B       		.uleb128 0xb
 2930 0223 49       		.uleb128 0x49
 2931 0224 13       		.uleb128 0x13
 2932 0225 02       		.uleb128 0x2
 2933 0226 18       		.uleb128 0x18
 2934 0227 00       		.byte	0
 2935 0228 00       		.byte	0
 2936 0229 29       		.uleb128 0x29
 2937 022a 0B       		.uleb128 0xb
 2938 022b 01       		.byte	0x1
 2939 022c 11       		.uleb128 0x11
 2940 022d 01       		.uleb128 0x1
 2941 022e 12       		.uleb128 0x12
 2942 022f 06       		.uleb128 0x6
 2943 0230 01       		.uleb128 0x1
 2944 0231 13       		.uleb128 0x13
 2945 0232 00       		.byte	0
 2946 0233 00       		.byte	0
 2947 0234 2A       		.uleb128 0x2a
 2948 0235 898201   		.uleb128 0x4109
 2949 0238 01       		.byte	0x1
 2950 0239 11       		.uleb128 0x11
 2951 023a 01       		.uleb128 0x1
 2952 023b 00       		.byte	0
 2953 023c 00       		.byte	0
 2954 023d 2B       		.uleb128 0x2b
 2955 023e 898201   		.uleb128 0x4109
 2956 0241 01       		.byte	0x1
 2957 0242 11       		.uleb128 0x11
ARM GAS  /tmp/ccXkb9tQ.s 			page 53


 2958 0243 01       		.uleb128 0x1
 2959 0244 01       		.uleb128 0x1
 2960 0245 13       		.uleb128 0x13
 2961 0246 00       		.byte	0
 2962 0247 00       		.byte	0
 2963 0248 2C       		.uleb128 0x2c
 2964 0249 2E       		.uleb128 0x2e
 2965 024a 01       		.byte	0x1
 2966 024b 3F       		.uleb128 0x3f
 2967 024c 19       		.uleb128 0x19
 2968 024d 03       		.uleb128 0x3
 2969 024e 0E       		.uleb128 0xe
 2970 024f 3A       		.uleb128 0x3a
 2971 0250 0B       		.uleb128 0xb
 2972 0251 3B       		.uleb128 0x3b
 2973 0252 05       		.uleb128 0x5
 2974 0253 27       		.uleb128 0x27
 2975 0254 19       		.uleb128 0x19
 2976 0255 11       		.uleb128 0x11
 2977 0256 01       		.uleb128 0x1
 2978 0257 12       		.uleb128 0x12
 2979 0258 06       		.uleb128 0x6
 2980 0259 40       		.uleb128 0x40
 2981 025a 18       		.uleb128 0x18
 2982 025b 9742     		.uleb128 0x2117
 2983 025d 19       		.uleb128 0x19
 2984 025e 01       		.uleb128 0x1
 2985 025f 13       		.uleb128 0x13
 2986 0260 00       		.byte	0
 2987 0261 00       		.byte	0
 2988 0262 2D       		.uleb128 0x2d
 2989 0263 05       		.uleb128 0x5
 2990 0264 00       		.byte	0
 2991 0265 03       		.uleb128 0x3
 2992 0266 08       		.uleb128 0x8
 2993 0267 3A       		.uleb128 0x3a
 2994 0268 0B       		.uleb128 0xb
 2995 0269 3B       		.uleb128 0x3b
 2996 026a 05       		.uleb128 0x5
 2997 026b 49       		.uleb128 0x49
 2998 026c 13       		.uleb128 0x13
 2999 026d 02       		.uleb128 0x2
 3000 026e 18       		.uleb128 0x18
 3001 026f 00       		.byte	0
 3002 0270 00       		.byte	0
 3003 0271 2E       		.uleb128 0x2e
 3004 0272 05       		.uleb128 0x5
 3005 0273 00       		.byte	0
 3006 0274 03       		.uleb128 0x3
 3007 0275 0E       		.uleb128 0xe
 3008 0276 3A       		.uleb128 0x3a
 3009 0277 0B       		.uleb128 0xb
 3010 0278 3B       		.uleb128 0x3b
 3011 0279 05       		.uleb128 0x5
 3012 027a 49       		.uleb128 0x49
 3013 027b 13       		.uleb128 0x13
 3014 027c 02       		.uleb128 0x2
ARM GAS  /tmp/ccXkb9tQ.s 			page 54


 3015 027d 18       		.uleb128 0x18
 3016 027e 00       		.byte	0
 3017 027f 00       		.byte	0
 3018 0280 2F       		.uleb128 0x2f
 3019 0281 05       		.uleb128 0x5
 3020 0282 00       		.byte	0
 3021 0283 03       		.uleb128 0x3
 3022 0284 0E       		.uleb128 0xe
 3023 0285 3A       		.uleb128 0x3a
 3024 0286 0B       		.uleb128 0xb
 3025 0287 3B       		.uleb128 0x3b
 3026 0288 05       		.uleb128 0x5
 3027 0289 49       		.uleb128 0x49
 3028 028a 13       		.uleb128 0x13
 3029 028b 02       		.uleb128 0x2
 3030 028c 17       		.uleb128 0x17
 3031 028d 00       		.byte	0
 3032 028e 00       		.byte	0
 3033 028f 30       		.uleb128 0x30
 3034 0290 05       		.uleb128 0x5
 3035 0291 00       		.byte	0
 3036 0292 03       		.uleb128 0x3
 3037 0293 08       		.uleb128 0x8
 3038 0294 3A       		.uleb128 0x3a
 3039 0295 0B       		.uleb128 0xb
 3040 0296 3B       		.uleb128 0x3b
 3041 0297 05       		.uleb128 0x5
 3042 0298 49       		.uleb128 0x49
 3043 0299 13       		.uleb128 0x13
 3044 029a 02       		.uleb128 0x2
 3045 029b 17       		.uleb128 0x17
 3046 029c 00       		.byte	0
 3047 029d 00       		.byte	0
 3048 029e 31       		.uleb128 0x31
 3049 029f 1D       		.uleb128 0x1d
 3050 02a0 01       		.byte	0x1
 3051 02a1 31       		.uleb128 0x31
 3052 02a2 13       		.uleb128 0x13
 3053 02a3 11       		.uleb128 0x11
 3054 02a4 01       		.uleb128 0x1
 3055 02a5 12       		.uleb128 0x12
 3056 02a6 06       		.uleb128 0x6
 3057 02a7 58       		.uleb128 0x58
 3058 02a8 0B       		.uleb128 0xb
 3059 02a9 59       		.uleb128 0x59
 3060 02aa 05       		.uleb128 0x5
 3061 02ab 01       		.uleb128 0x1
 3062 02ac 13       		.uleb128 0x13
 3063 02ad 00       		.byte	0
 3064 02ae 00       		.byte	0
 3065 02af 32       		.uleb128 0x32
 3066 02b0 2E       		.uleb128 0x2e
 3067 02b1 01       		.byte	0x1
 3068 02b2 3F       		.uleb128 0x3f
 3069 02b3 19       		.uleb128 0x19
 3070 02b4 03       		.uleb128 0x3
 3071 02b5 0E       		.uleb128 0xe
ARM GAS  /tmp/ccXkb9tQ.s 			page 55


 3072 02b6 3A       		.uleb128 0x3a
 3073 02b7 0B       		.uleb128 0xb
 3074 02b8 3B       		.uleb128 0x3b
 3075 02b9 05       		.uleb128 0x5
 3076 02ba 27       		.uleb128 0x27
 3077 02bb 19       		.uleb128 0x19
 3078 02bc 49       		.uleb128 0x49
 3079 02bd 13       		.uleb128 0x13
 3080 02be 11       		.uleb128 0x11
 3081 02bf 01       		.uleb128 0x1
 3082 02c0 12       		.uleb128 0x12
 3083 02c1 06       		.uleb128 0x6
 3084 02c2 40       		.uleb128 0x40
 3085 02c3 18       		.uleb128 0x18
 3086 02c4 9742     		.uleb128 0x2117
 3087 02c6 19       		.uleb128 0x19
 3088 02c7 01       		.uleb128 0x1
 3089 02c8 13       		.uleb128 0x13
 3090 02c9 00       		.byte	0
 3091 02ca 00       		.byte	0
 3092 02cb 33       		.uleb128 0x33
 3093 02cc 34       		.uleb128 0x34
 3094 02cd 00       		.byte	0
 3095 02ce 03       		.uleb128 0x3
 3096 02cf 08       		.uleb128 0x8
 3097 02d0 3A       		.uleb128 0x3a
 3098 02d1 0B       		.uleb128 0xb
 3099 02d2 3B       		.uleb128 0x3b
 3100 02d3 05       		.uleb128 0x5
 3101 02d4 49       		.uleb128 0x49
 3102 02d5 13       		.uleb128 0x13
 3103 02d6 02       		.uleb128 0x2
 3104 02d7 18       		.uleb128 0x18
 3105 02d8 00       		.byte	0
 3106 02d9 00       		.byte	0
 3107 02da 34       		.uleb128 0x34
 3108 02db 34       		.uleb128 0x34
 3109 02dc 00       		.byte	0
 3110 02dd 03       		.uleb128 0x3
 3111 02de 08       		.uleb128 0x8
 3112 02df 3A       		.uleb128 0x3a
 3113 02e0 0B       		.uleb128 0xb
 3114 02e1 3B       		.uleb128 0x3b
 3115 02e2 05       		.uleb128 0x5
 3116 02e3 49       		.uleb128 0x49
 3117 02e4 13       		.uleb128 0x13
 3118 02e5 02       		.uleb128 0x2
 3119 02e6 17       		.uleb128 0x17
 3120 02e7 00       		.byte	0
 3121 02e8 00       		.byte	0
 3122 02e9 35       		.uleb128 0x35
 3123 02ea 898201   		.uleb128 0x4109
 3124 02ed 01       		.byte	0x1
 3125 02ee 11       		.uleb128 0x11
 3126 02ef 01       		.uleb128 0x1
 3127 02f0 31       		.uleb128 0x31
 3128 02f1 13       		.uleb128 0x13
ARM GAS  /tmp/ccXkb9tQ.s 			page 56


 3129 02f2 00       		.byte	0
 3130 02f3 00       		.byte	0
 3131 02f4 36       		.uleb128 0x36
 3132 02f5 34       		.uleb128 0x34
 3133 02f6 00       		.byte	0
 3134 02f7 03       		.uleb128 0x3
 3135 02f8 0E       		.uleb128 0xe
 3136 02f9 3A       		.uleb128 0x3a
 3137 02fa 0B       		.uleb128 0xb
 3138 02fb 3B       		.uleb128 0x3b
 3139 02fc 05       		.uleb128 0x5
 3140 02fd 49       		.uleb128 0x49
 3141 02fe 13       		.uleb128 0x13
 3142 02ff 3F       		.uleb128 0x3f
 3143 0300 19       		.uleb128 0x19
 3144 0301 3C       		.uleb128 0x3c
 3145 0302 19       		.uleb128 0x19
 3146 0303 00       		.byte	0
 3147 0304 00       		.byte	0
 3148 0305 37       		.uleb128 0x37
 3149 0306 34       		.uleb128 0x34
 3150 0307 00       		.byte	0
 3151 0308 03       		.uleb128 0x3
 3152 0309 0E       		.uleb128 0xe
 3153 030a 3A       		.uleb128 0x3a
 3154 030b 0B       		.uleb128 0xb
 3155 030c 3B       		.uleb128 0x3b
 3156 030d 0B       		.uleb128 0xb
 3157 030e 49       		.uleb128 0x49
 3158 030f 13       		.uleb128 0x13
 3159 0310 3F       		.uleb128 0x3f
 3160 0311 19       		.uleb128 0x19
 3161 0312 3C       		.uleb128 0x3c
 3162 0313 19       		.uleb128 0x19
 3163 0314 00       		.byte	0
 3164 0315 00       		.byte	0
 3165 0316 38       		.uleb128 0x38
 3166 0317 2E       		.uleb128 0x2e
 3167 0318 01       		.byte	0x1
 3168 0319 3F       		.uleb128 0x3f
 3169 031a 19       		.uleb128 0x19
 3170 031b 03       		.uleb128 0x3
 3171 031c 0E       		.uleb128 0xe
 3172 031d 3A       		.uleb128 0x3a
 3173 031e 0B       		.uleb128 0xb
 3174 031f 3B       		.uleb128 0x3b
 3175 0320 0B       		.uleb128 0xb
 3176 0321 27       		.uleb128 0x27
 3177 0322 19       		.uleb128 0x19
 3178 0323 49       		.uleb128 0x49
 3179 0324 13       		.uleb128 0x13
 3180 0325 3C       		.uleb128 0x3c
 3181 0326 19       		.uleb128 0x19
 3182 0327 01       		.uleb128 0x1
 3183 0328 13       		.uleb128 0x13
 3184 0329 00       		.byte	0
 3185 032a 00       		.byte	0
ARM GAS  /tmp/ccXkb9tQ.s 			page 57


 3186 032b 39       		.uleb128 0x39
 3187 032c 2E       		.uleb128 0x2e
 3188 032d 01       		.byte	0x1
 3189 032e 3F       		.uleb128 0x3f
 3190 032f 19       		.uleb128 0x19
 3191 0330 03       		.uleb128 0x3
 3192 0331 0E       		.uleb128 0xe
 3193 0332 3A       		.uleb128 0x3a
 3194 0333 0B       		.uleb128 0xb
 3195 0334 3B       		.uleb128 0x3b
 3196 0335 0B       		.uleb128 0xb
 3197 0336 27       		.uleb128 0x27
 3198 0337 19       		.uleb128 0x19
 3199 0338 49       		.uleb128 0x49
 3200 0339 13       		.uleb128 0x13
 3201 033a 3C       		.uleb128 0x3c
 3202 033b 19       		.uleb128 0x19
 3203 033c 00       		.byte	0
 3204 033d 00       		.byte	0
 3205 033e 00       		.byte	0
 3206              		.section	.debug_loc,"",%progbits
 3207              	.Ldebug_loc0:
 3208              	.LLST0:
 3209 0000 00000000 		.4byte	.LVL0
 3210 0004 10000000 		.4byte	.LVL2
 3211 0008 0100     		.2byte	0x1
 3212 000a 50       		.byte	0x50
 3213 000b 10000000 		.4byte	.LVL2
 3214 000f 1F000000 		.4byte	.LVL3-1
 3215 0013 0100     		.2byte	0x1
 3216 0015 52       		.byte	0x52
 3217 0016 1F000000 		.4byte	.LVL3-1
 3218 001a 20000000 		.4byte	.LVL3
 3219 001e 0400     		.2byte	0x4
 3220 0020 F3       		.byte	0xf3
 3221 0021 01       		.uleb128 0x1
 3222 0022 50       		.byte	0x50
 3223 0023 9F       		.byte	0x9f
 3224 0024 20000000 		.4byte	.LVL3
 3225 0028 24000000 		.4byte	.LVL4
 3226 002c 0100     		.2byte	0x1
 3227 002e 50       		.byte	0x50
 3228 002f 24000000 		.4byte	.LVL4
 3229 0033 30000000 		.4byte	.LFE118
 3230 0037 0100     		.2byte	0x1
 3231 0039 52       		.byte	0x52
 3232 003a 00000000 		.4byte	0
 3233 003e 00000000 		.4byte	0
 3234              	.LLST1:
 3235 0042 00000000 		.4byte	.LVL0
 3236 0046 1F000000 		.4byte	.LVL3-1
 3237 004a 0100     		.2byte	0x1
 3238 004c 51       		.byte	0x51
 3239 004d 1F000000 		.4byte	.LVL3-1
 3240 0051 20000000 		.4byte	.LVL3
 3241 0055 0400     		.2byte	0x4
 3242 0057 F3       		.byte	0xf3
ARM GAS  /tmp/ccXkb9tQ.s 			page 58


 3243 0058 01       		.uleb128 0x1
 3244 0059 51       		.byte	0x51
 3245 005a 9F       		.byte	0x9f
 3246 005b 20000000 		.4byte	.LVL3
 3247 005f 30000000 		.4byte	.LFE118
 3248 0063 0100     		.2byte	0x1
 3249 0065 51       		.byte	0x51
 3250 0066 00000000 		.4byte	0
 3251 006a 00000000 		.4byte	0
 3252              	.LLST2:
 3253 006e 0C000000 		.4byte	.LVL1
 3254 0072 10000000 		.4byte	.LVL2
 3255 0076 0100     		.2byte	0x1
 3256 0078 50       		.byte	0x50
 3257 0079 10000000 		.4byte	.LVL2
 3258 007d 1F000000 		.4byte	.LVL3-1
 3259 0081 0100     		.2byte	0x1
 3260 0083 52       		.byte	0x52
 3261 0084 1F000000 		.4byte	.LVL3-1
 3262 0088 20000000 		.4byte	.LVL3
 3263 008c 0400     		.2byte	0x4
 3264 008e F3       		.byte	0xf3
 3265 008f 01       		.uleb128 0x1
 3266 0090 50       		.byte	0x50
 3267 0091 9F       		.byte	0x9f
 3268 0092 00000000 		.4byte	0
 3269 0096 00000000 		.4byte	0
 3270              	.LLST3:
 3271 009a 0C000000 		.4byte	.LVL1
 3272 009e 1F000000 		.4byte	.LVL3-1
 3273 00a2 0100     		.2byte	0x1
 3274 00a4 53       		.byte	0x53
 3275 00a5 00000000 		.4byte	0
 3276 00a9 00000000 		.4byte	0
 3277              	.LLST4:
 3278 00ad 00000000 		.4byte	.LVL5
 3279 00b1 0A000000 		.4byte	.LVL6
 3280 00b5 0100     		.2byte	0x1
 3281 00b7 52       		.byte	0x52
 3282 00b8 0A000000 		.4byte	.LVL6
 3283 00bc 1E000000 		.4byte	.LFE119
 3284 00c0 0400     		.2byte	0x4
 3285 00c2 F3       		.byte	0xf3
 3286 00c3 01       		.uleb128 0x1
 3287 00c4 52       		.byte	0x52
 3288 00c5 9F       		.byte	0x9f
 3289 00c6 00000000 		.4byte	0
 3290 00ca 00000000 		.4byte	0
 3291              	.LLST5:
 3292 00ce 00000000 		.4byte	.LVL5
 3293 00d2 1C000000 		.4byte	.LVL7
 3294 00d6 0200     		.2byte	0x2
 3295 00d8 91       		.byte	0x91
 3296 00d9 00       		.sleb128 0
 3297 00da 1C000000 		.4byte	.LVL7
 3298 00de 1E000000 		.4byte	.LFE119
 3299 00e2 0200     		.2byte	0x2
ARM GAS  /tmp/ccXkb9tQ.s 			page 59


 3300 00e4 7D       		.byte	0x7d
 3301 00e5 00       		.sleb128 0
 3302 00e6 00000000 		.4byte	0
 3303 00ea 00000000 		.4byte	0
 3304              	.LLST6:
 3305 00ee 00000000 		.4byte	.LVL8
 3306 00f2 06000000 		.4byte	.LVL9
 3307 00f6 0100     		.2byte	0x1
 3308 00f8 50       		.byte	0x50
 3309 00f9 06000000 		.4byte	.LVL9
 3310 00fd 2C000000 		.4byte	.LFE120
 3311 0101 0100     		.2byte	0x1
 3312 0103 54       		.byte	0x54
 3313 0104 00000000 		.4byte	0
 3314 0108 00000000 		.4byte	0
 3315              	.LLST7:
 3316 010c 18000000 		.4byte	.LVL10
 3317 0110 2A000000 		.4byte	.LVL12
 3318 0114 0100     		.2byte	0x1
 3319 0116 54       		.byte	0x54
 3320 0117 00000000 		.4byte	0
 3321 011b 00000000 		.4byte	0
 3322              	.LLST8:
 3323 011f 18000000 		.4byte	.LVL10
 3324 0123 21000000 		.4byte	.LVL11-1
 3325 0127 0100     		.2byte	0x1
 3326 0129 50       		.byte	0x50
 3327 012a 00000000 		.4byte	0
 3328 012e 00000000 		.4byte	0
 3329              	.LLST9:
 3330 0132 00000000 		.4byte	.LVL13
 3331 0136 06000000 		.4byte	.LVL14
 3332 013a 0100     		.2byte	0x1
 3333 013c 50       		.byte	0x50
 3334 013d 06000000 		.4byte	.LVL14
 3335 0141 2F000000 		.4byte	.LVL18-1
 3336 0145 0100     		.2byte	0x1
 3337 0147 53       		.byte	0x53
 3338 0148 2F000000 		.4byte	.LVL18-1
 3339 014c 38000000 		.4byte	.LVL19
 3340 0150 0400     		.2byte	0x4
 3341 0152 F3       		.byte	0xf3
 3342 0153 01       		.uleb128 0x1
 3343 0154 50       		.byte	0x50
 3344 0155 9F       		.byte	0x9f
 3345 0156 38000000 		.4byte	.LVL19
 3346 015a 50000000 		.4byte	.LFE121
 3347 015e 0100     		.2byte	0x1
 3348 0160 53       		.byte	0x53
 3349 0161 00000000 		.4byte	0
 3350 0165 00000000 		.4byte	0
 3351              	.LLST10:
 3352 0169 00000000 		.4byte	.LVL13
 3353 016d 1A000000 		.4byte	.LVL15
 3354 0171 0100     		.2byte	0x1
 3355 0173 51       		.byte	0x51
 3356 0174 1A000000 		.4byte	.LVL15
ARM GAS  /tmp/ccXkb9tQ.s 			page 60


 3357 0178 1C000000 		.4byte	.LVL16
 3358 017c 0200     		.2byte	0x2
 3359 017e 72       		.byte	0x72
 3360 017f 00       		.sleb128 0
 3361 0180 1C000000 		.4byte	.LVL16
 3362 0184 26000000 		.4byte	.LVL17
 3363 0188 0200     		.2byte	0x2
 3364 018a 74       		.byte	0x74
 3365 018b 7F       		.sleb128 -1
 3366 018c 26000000 		.4byte	.LVL17
 3367 0190 38000000 		.4byte	.LVL19
 3368 0194 0400     		.2byte	0x4
 3369 0196 F3       		.byte	0xf3
 3370 0197 01       		.uleb128 0x1
 3371 0198 51       		.byte	0x51
 3372 0199 9F       		.byte	0x9f
 3373 019a 38000000 		.4byte	.LVL19
 3374 019e 3E000000 		.4byte	.LVL20
 3375 01a2 0200     		.2byte	0x2
 3376 01a4 74       		.byte	0x74
 3377 01a5 7F       		.sleb128 -1
 3378 01a6 3E000000 		.4byte	.LVL20
 3379 01aa 46000000 		.4byte	.LVL21
 3380 01ae 0400     		.2byte	0x4
 3381 01b0 F3       		.byte	0xf3
 3382 01b1 01       		.uleb128 0x1
 3383 01b2 51       		.byte	0x51
 3384 01b3 9F       		.byte	0x9f
 3385 01b4 46000000 		.4byte	.LVL21
 3386 01b8 50000000 		.4byte	.LFE121
 3387 01bc 0100     		.2byte	0x1
 3388 01be 51       		.byte	0x51
 3389 01bf 00000000 		.4byte	0
 3390 01c3 00000000 		.4byte	0
 3391              	.LLST11:
 3392 01c7 26000000 		.4byte	.LVL17
 3393 01cb 2F000000 		.4byte	.LVL18-1
 3394 01cf 0100     		.2byte	0x1
 3395 01d1 53       		.byte	0x53
 3396 01d2 2F000000 		.4byte	.LVL18-1
 3397 01d6 38000000 		.4byte	.LVL19
 3398 01da 0400     		.2byte	0x4
 3399 01dc F3       		.byte	0xf3
 3400 01dd 01       		.uleb128 0x1
 3401 01de 50       		.byte	0x50
 3402 01df 9F       		.byte	0x9f
 3403 01e0 00000000 		.4byte	0
 3404 01e4 00000000 		.4byte	0
 3405              	.LLST12:
 3406 01e8 26000000 		.4byte	.LVL17
 3407 01ec 2F000000 		.4byte	.LVL18-1
 3408 01f0 0100     		.2byte	0x1
 3409 01f2 50       		.byte	0x50
 3410 01f3 00000000 		.4byte	0
 3411 01f7 00000000 		.4byte	0
 3412              	.LLST13:
 3413 01fb 00000000 		.4byte	.LVL22
ARM GAS  /tmp/ccXkb9tQ.s 			page 61


 3414 01ff 11000000 		.4byte	.LVL23-1
 3415 0203 0100     		.2byte	0x1
 3416 0205 50       		.byte	0x50
 3417 0206 11000000 		.4byte	.LVL23-1
 3418 020a 14000000 		.4byte	.LVL24
 3419 020e 0100     		.2byte	0x1
 3420 0210 54       		.byte	0x54
 3421 0211 14000000 		.4byte	.LVL24
 3422 0215 17000000 		.4byte	.LVL25-1
 3423 0219 0100     		.2byte	0x1
 3424 021b 50       		.byte	0x50
 3425 021c 17000000 		.4byte	.LVL25-1
 3426 0220 26000000 		.4byte	.LVL27
 3427 0224 0100     		.2byte	0x1
 3428 0226 54       		.byte	0x54
 3429 0227 26000000 		.4byte	.LVL27
 3430 022b 3C000000 		.4byte	.LVL29
 3431 022f 0100     		.2byte	0x1
 3432 0231 50       		.byte	0x50
 3433 0232 3C000000 		.4byte	.LVL29
 3434 0236 50000000 		.4byte	.LFE122
 3435 023a 0100     		.2byte	0x1
 3436 023c 54       		.byte	0x54
 3437 023d 00000000 		.4byte	0
 3438 0241 00000000 		.4byte	0
 3439              	.LLST14:
 3440 0245 00000000 		.4byte	.LVL22
 3441 0249 11000000 		.4byte	.LVL23-1
 3442 024d 0100     		.2byte	0x1
 3443 024f 51       		.byte	0x51
 3444 0250 11000000 		.4byte	.LVL23-1
 3445 0254 14000000 		.4byte	.LVL24
 3446 0258 0100     		.2byte	0x1
 3447 025a 56       		.byte	0x56
 3448 025b 14000000 		.4byte	.LVL24
 3449 025f 17000000 		.4byte	.LVL25-1
 3450 0263 0100     		.2byte	0x1
 3451 0265 51       		.byte	0x51
 3452 0266 17000000 		.4byte	.LVL25-1
 3453 026a 26000000 		.4byte	.LVL27
 3454 026e 0100     		.2byte	0x1
 3455 0270 56       		.byte	0x56
 3456 0271 26000000 		.4byte	.LVL27
 3457 0275 2A000000 		.4byte	.LVL28
 3458 0279 0100     		.2byte	0x1
 3459 027b 51       		.byte	0x51
 3460 027c 2A000000 		.4byte	.LVL28
 3461 0280 50000000 		.4byte	.LFE122
 3462 0284 0100     		.2byte	0x1
 3463 0286 56       		.byte	0x56
 3464 0287 00000000 		.4byte	0
 3465 028b 00000000 		.4byte	0
 3466              	.LLST15:
 3467 028f 3C000000 		.4byte	.LVL29
 3468 0293 40000000 		.4byte	.LVL30
 3469 0297 0200     		.2byte	0x2
 3470 0299 72       		.byte	0x72
ARM GAS  /tmp/ccXkb9tQ.s 			page 62


 3471 029a 00       		.sleb128 0
 3472 029b 40000000 		.4byte	.LVL30
 3473 029f 48000000 		.4byte	.LVL31
 3474 02a3 0100     		.2byte	0x1
 3475 02a5 50       		.byte	0x50
 3476 02a6 00000000 		.4byte	0
 3477 02aa 00000000 		.4byte	0
 3478              	.LLST16:
 3479 02ae 18000000 		.4byte	.LVL25
 3480 02b2 1C000000 		.4byte	.LVL26
 3481 02b6 0100     		.2byte	0x1
 3482 02b8 50       		.byte	0x50
 3483 02b9 48000000 		.4byte	.LVL31
 3484 02bd 50000000 		.4byte	.LFE122
 3485 02c1 0100     		.2byte	0x1
 3486 02c3 50       		.byte	0x50
 3487 02c4 00000000 		.4byte	0
 3488 02c8 00000000 		.4byte	0
 3489              	.LLST17:
 3490 02cc 00000000 		.4byte	.LVL32
 3491 02d0 24000000 		.4byte	.LVL36
 3492 02d4 0100     		.2byte	0x1
 3493 02d6 50       		.byte	0x50
 3494 02d7 24000000 		.4byte	.LVL36
 3495 02db 28000000 		.4byte	.LVL38
 3496 02df 0100     		.2byte	0x1
 3497 02e1 54       		.byte	0x54
 3498 02e2 28000000 		.4byte	.LVL38
 3499 02e6 2B000000 		.4byte	.LVL39-1
 3500 02ea 0100     		.2byte	0x1
 3501 02ec 50       		.byte	0x50
 3502 02ed 2B000000 		.4byte	.LVL39-1
 3503 02f1 38000000 		.4byte	.LVL40
 3504 02f5 0100     		.2byte	0x1
 3505 02f7 54       		.byte	0x54
 3506 02f8 38000000 		.4byte	.LVL40
 3507 02fc 6C000000 		.4byte	.LVL43
 3508 0300 0100     		.2byte	0x1
 3509 0302 50       		.byte	0x50
 3510 0303 6C000000 		.4byte	.LVL43
 3511 0307 78000000 		.4byte	.LFE123
 3512 030b 0100     		.2byte	0x1
 3513 030d 54       		.byte	0x54
 3514 030e 00000000 		.4byte	0
 3515 0312 00000000 		.4byte	0
 3516              	.LLST18:
 3517 0316 00000000 		.4byte	.LVL32
 3518 031a 1C000000 		.4byte	.LVL35
 3519 031e 0100     		.2byte	0x1
 3520 0320 51       		.byte	0x51
 3521 0321 1C000000 		.4byte	.LVL35
 3522 0325 42000000 		.4byte	.LVL41
 3523 0329 0700     		.2byte	0x7
 3524 032b F3       		.byte	0xf3
 3525 032c 01       		.uleb128 0x1
 3526 032d 51       		.byte	0x51
 3527 032e 79       		.byte	0x79
ARM GAS  /tmp/ccXkb9tQ.s 			page 63


 3528 032f 00       		.sleb128 0
 3529 0330 22       		.byte	0x22
 3530 0331 9F       		.byte	0x9f
 3531 0332 42000000 		.4byte	.LVL41
 3532 0336 60000000 		.4byte	.LVL42
 3533 033a 0900     		.2byte	0x9
 3534 033c F3       		.byte	0xf3
 3535 033d 01       		.uleb128 0x1
 3536 033e 51       		.byte	0x51
 3537 033f 79       		.byte	0x79
 3538 0340 00       		.sleb128 0
 3539 0341 22       		.byte	0x22
 3540 0342 23       		.byte	0x23
 3541 0343 01       		.uleb128 0x1
 3542 0344 9F       		.byte	0x9f
 3543 0345 60000000 		.4byte	.LVL42
 3544 0349 6C000000 		.4byte	.LVL43
 3545 034d 0700     		.2byte	0x7
 3546 034f 79       		.byte	0x79
 3547 0350 00       		.sleb128 0
 3548 0351 F3       		.byte	0xf3
 3549 0352 01       		.uleb128 0x1
 3550 0353 51       		.byte	0x51
 3551 0354 22       		.byte	0x22
 3552 0355 9F       		.byte	0x9f
 3553 0356 6C000000 		.4byte	.LVL43
 3554 035a 72000000 		.4byte	.LVL44
 3555 035e 0700     		.2byte	0x7
 3556 0360 F3       		.byte	0xf3
 3557 0361 01       		.uleb128 0x1
 3558 0362 51       		.byte	0x51
 3559 0363 79       		.byte	0x79
 3560 0364 00       		.sleb128 0
 3561 0365 22       		.byte	0x22
 3562 0366 9F       		.byte	0x9f
 3563 0367 00000000 		.4byte	0
 3564 036b 00000000 		.4byte	0
 3565              	.LLST19:
 3566 036f 00000000 		.4byte	.LVL32
 3567 0373 1C000000 		.4byte	.LVL35
 3568 0377 0100     		.2byte	0x1
 3569 0379 52       		.byte	0x52
 3570 037a 1C000000 		.4byte	.LVL35
 3571 037e 72000000 		.4byte	.LVL44
 3572 0382 0700     		.2byte	0x7
 3573 0384 F3       		.byte	0xf3
 3574 0385 01       		.uleb128 0x1
 3575 0386 52       		.byte	0x52
 3576 0387 79       		.byte	0x79
 3577 0388 00       		.sleb128 0
 3578 0389 1C       		.byte	0x1c
 3579 038a 9F       		.byte	0x9f
 3580 038b 00000000 		.4byte	0
 3581 038f 00000000 		.4byte	0
 3582              	.LLST20:
 3583 0393 00000000 		.4byte	.LVL32
 3584 0397 0E000000 		.4byte	.LVL34
ARM GAS  /tmp/ccXkb9tQ.s 			page 64


 3585 039b 0100     		.2byte	0x1
 3586 039d 53       		.byte	0x53
 3587 039e 0E000000 		.4byte	.LVL34
 3588 03a2 28000000 		.4byte	.LVL38
 3589 03a6 0100     		.2byte	0x1
 3590 03a8 56       		.byte	0x56
 3591 03a9 28000000 		.4byte	.LVL38
 3592 03ad 2B000000 		.4byte	.LVL39-1
 3593 03b1 0100     		.2byte	0x1
 3594 03b3 51       		.byte	0x51
 3595 03b4 2B000000 		.4byte	.LVL39-1
 3596 03b8 38000000 		.4byte	.LVL40
 3597 03bc 0100     		.2byte	0x1
 3598 03be 56       		.byte	0x56
 3599 03bf 38000000 		.4byte	.LVL40
 3600 03c3 6C000000 		.4byte	.LVL43
 3601 03c7 0100     		.2byte	0x1
 3602 03c9 51       		.byte	0x51
 3603 03ca 6C000000 		.4byte	.LVL43
 3604 03ce 78000000 		.4byte	.LFE123
 3605 03d2 0100     		.2byte	0x1
 3606 03d4 56       		.byte	0x56
 3607 03d5 00000000 		.4byte	0
 3608 03d9 00000000 		.4byte	0
 3609              	.LLST21:
 3610 03dd 0C000000 		.4byte	.LVL33
 3611 03e1 1C000000 		.4byte	.LVL35
 3612 03e5 0200     		.2byte	0x2
 3613 03e7 30       		.byte	0x30
 3614 03e8 9F       		.byte	0x9f
 3615 03e9 1C000000 		.4byte	.LVL35
 3616 03ed 78000000 		.4byte	.LFE123
 3617 03f1 0100     		.2byte	0x1
 3618 03f3 59       		.byte	0x59
 3619 03f4 00000000 		.4byte	0
 3620 03f8 00000000 		.4byte	0
 3621              	.LLST22:
 3622 03fc 00000000 		.4byte	.LVL45
 3623 0400 1A000000 		.4byte	.LVL46
 3624 0404 0200     		.2byte	0x2
 3625 0406 91       		.byte	0x91
 3626 0407 00       		.sleb128 0
 3627 0408 1A000000 		.4byte	.LVL46
 3628 040c 1C000000 		.4byte	.LFE124
 3629 0410 0200     		.2byte	0x2
 3630 0412 7D       		.byte	0x7d
 3631 0413 00       		.sleb128 0
 3632 0414 00000000 		.4byte	0
 3633 0418 00000000 		.4byte	0
 3634              	.LLST23:
 3635 041c 00000000 		.4byte	.LVL47
 3636 0420 0A000000 		.4byte	.LVL48
 3637 0424 0100     		.2byte	0x1
 3638 0426 50       		.byte	0x50
 3639 0427 0A000000 		.4byte	.LVL48
 3640 042b 2E000000 		.4byte	.LFE125
 3641 042f 0100     		.2byte	0x1
ARM GAS  /tmp/ccXkb9tQ.s 			page 65


 3642 0431 54       		.byte	0x54
 3643 0432 00000000 		.4byte	0
 3644 0436 00000000 		.4byte	0
 3645              	.LLST24:
 3646 043a 1A000000 		.4byte	.LVL49
 3647 043e 2C000000 		.4byte	.LVL51
 3648 0442 0100     		.2byte	0x1
 3649 0444 54       		.byte	0x54
 3650 0445 00000000 		.4byte	0
 3651 0449 00000000 		.4byte	0
 3652              	.LLST25:
 3653 044d 1A000000 		.4byte	.LVL49
 3654 0451 23000000 		.4byte	.LVL50-1
 3655 0455 0100     		.2byte	0x1
 3656 0457 50       		.byte	0x50
 3657 0458 00000000 		.4byte	0
 3658 045c 00000000 		.4byte	0
 3659              	.LLST26:
 3660 0460 00000000 		.4byte	.LVL52
 3661 0464 13000000 		.4byte	.LVL54-1
 3662 0468 0100     		.2byte	0x1
 3663 046a 50       		.byte	0x50
 3664 046b 13000000 		.4byte	.LVL54-1
 3665 046f 22000000 		.4byte	.LVL56
 3666 0473 0100     		.2byte	0x1
 3667 0475 54       		.byte	0x54
 3668 0476 22000000 		.4byte	.LVL56
 3669 047a 40000000 		.4byte	.LVL57
 3670 047e 0100     		.2byte	0x1
 3671 0480 50       		.byte	0x50
 3672 0481 40000000 		.4byte	.LVL57
 3673 0485 54000000 		.4byte	.LFE126
 3674 0489 0100     		.2byte	0x1
 3675 048b 54       		.byte	0x54
 3676 048c 00000000 		.4byte	0
 3677 0490 00000000 		.4byte	0
 3678              	.LLST27:
 3679 0494 00000000 		.4byte	.LVL52
 3680 0498 10000000 		.4byte	.LVL53
 3681 049c 0100     		.2byte	0x1
 3682 049e 51       		.byte	0x51
 3683 049f 10000000 		.4byte	.LVL53
 3684 04a3 54000000 		.4byte	.LFE126
 3685 04a7 0400     		.2byte	0x4
 3686 04a9 F3       		.byte	0xf3
 3687 04aa 01       		.uleb128 0x1
 3688 04ab 51       		.byte	0x51
 3689 04ac 9F       		.byte	0x9f
 3690 04ad 00000000 		.4byte	0
 3691 04b1 00000000 		.4byte	0
 3692              	.LLST28:
 3693 04b5 00000000 		.4byte	.LVL52
 3694 04b9 10000000 		.4byte	.LVL53
 3695 04bd 0100     		.2byte	0x1
 3696 04bf 52       		.byte	0x52
 3697 04c0 10000000 		.4byte	.LVL53
 3698 04c4 13000000 		.4byte	.LVL54-1
ARM GAS  /tmp/ccXkb9tQ.s 			page 66


 3699 04c8 0100     		.2byte	0x1
 3700 04ca 51       		.byte	0x51
 3701 04cb 13000000 		.4byte	.LVL54-1
 3702 04cf 22000000 		.4byte	.LVL56
 3703 04d3 0100     		.2byte	0x1
 3704 04d5 56       		.byte	0x56
 3705 04d6 22000000 		.4byte	.LVL56
 3706 04da 41000000 		.4byte	.LVL58-1
 3707 04de 0100     		.2byte	0x1
 3708 04e0 51       		.byte	0x51
 3709 04e1 41000000 		.4byte	.LVL58-1
 3710 04e5 54000000 		.4byte	.LFE126
 3711 04e9 0100     		.2byte	0x1
 3712 04eb 56       		.byte	0x56
 3713 04ec 00000000 		.4byte	0
 3714 04f0 00000000 		.4byte	0
 3715              	.LLST29:
 3716 04f4 14000000 		.4byte	.LVL54
 3717 04f8 18000000 		.4byte	.LVL55
 3718 04fc 0100     		.2byte	0x1
 3719 04fe 50       		.byte	0x50
 3720 04ff 4C000000 		.4byte	.LVL59
 3721 0503 54000000 		.4byte	.LFE126
 3722 0507 0100     		.2byte	0x1
 3723 0509 50       		.byte	0x50
 3724 050a 00000000 		.4byte	0
 3725 050e 00000000 		.4byte	0
 3726              	.LLST30:
 3727 0512 00000000 		.4byte	.LVL60
 3728 0516 10000000 		.4byte	.LVL61
 3729 051a 0100     		.2byte	0x1
 3730 051c 50       		.byte	0x50
 3731 051d 10000000 		.4byte	.LVL61
 3732 0521 2D000000 		.4byte	.LVL65-1
 3733 0525 0100     		.2byte	0x1
 3734 0527 53       		.byte	0x53
 3735 0528 2D000000 		.4byte	.LVL65-1
 3736 052c 36000000 		.4byte	.LVL67
 3737 0530 0400     		.2byte	0x4
 3738 0532 F3       		.byte	0xf3
 3739 0533 01       		.uleb128 0x1
 3740 0534 50       		.byte	0x50
 3741 0535 9F       		.byte	0x9f
 3742 0536 36000000 		.4byte	.LVL67
 3743 053a 3C000000 		.4byte	.LVL70
 3744 053e 0100     		.2byte	0x1
 3745 0540 53       		.byte	0x53
 3746 0541 3C000000 		.4byte	.LVL70
 3747 0545 44000000 		.4byte	.LVL71
 3748 0549 0100     		.2byte	0x1
 3749 054b 50       		.byte	0x50
 3750 054c 44000000 		.4byte	.LVL71
 3751 0550 46000000 		.4byte	.LFE127
 3752 0554 0100     		.2byte	0x1
 3753 0556 53       		.byte	0x53
 3754 0557 00000000 		.4byte	0
 3755 055b 00000000 		.4byte	0
ARM GAS  /tmp/ccXkb9tQ.s 			page 67


 3756              	.LLST31:
 3757 055f 1C000000 		.4byte	.LVL62
 3758 0563 1E000000 		.4byte	.LVL63
 3759 0567 0200     		.2byte	0x2
 3760 0569 72       		.byte	0x72
 3761 056a 00       		.sleb128 0
 3762 056b 1E000000 		.4byte	.LVL63
 3763 056f 36000000 		.4byte	.LVL67
 3764 0573 0100     		.2byte	0x1
 3765 0575 54       		.byte	0x54
 3766 0576 36000000 		.4byte	.LVL67
 3767 057a 38000000 		.4byte	.LVL68
 3768 057e 0200     		.2byte	0x2
 3769 0580 72       		.byte	0x72
 3770 0581 00       		.sleb128 0
 3771 0582 38000000 		.4byte	.LVL68
 3772 0586 3A000000 		.4byte	.LVL69
 3773 058a 0200     		.2byte	0x2
 3774 058c 71       		.byte	0x71
 3775 058d 7F       		.sleb128 -1
 3776 058e 3A000000 		.4byte	.LVL69
 3777 0592 3C000000 		.4byte	.LVL70
 3778 0596 0100     		.2byte	0x1
 3779 0598 54       		.byte	0x54
 3780 0599 00000000 		.4byte	0
 3781 059d 00000000 		.4byte	0
 3782              	.LLST32:
 3783 05a1 24000000 		.4byte	.LVL64
 3784 05a5 2D000000 		.4byte	.LVL65-1
 3785 05a9 0100     		.2byte	0x1
 3786 05ab 53       		.byte	0x53
 3787 05ac 2D000000 		.4byte	.LVL65-1
 3788 05b0 32000000 		.4byte	.LVL66
 3789 05b4 0400     		.2byte	0x4
 3790 05b6 F3       		.byte	0xf3
 3791 05b7 01       		.uleb128 0x1
 3792 05b8 50       		.byte	0x50
 3793 05b9 9F       		.byte	0x9f
 3794 05ba 00000000 		.4byte	0
 3795 05be 00000000 		.4byte	0
 3796              	.LLST33:
 3797 05c2 24000000 		.4byte	.LVL64
 3798 05c6 2D000000 		.4byte	.LVL65-1
 3799 05ca 0100     		.2byte	0x1
 3800 05cc 50       		.byte	0x50
 3801 05cd 00000000 		.4byte	0
 3802 05d1 00000000 		.4byte	0
 3803              	.LLST34:
 3804 05d5 00000000 		.4byte	.LVL72
 3805 05d9 1A000000 		.4byte	.LVL75
 3806 05dd 0100     		.2byte	0x1
 3807 05df 50       		.byte	0x50
 3808 05e0 1A000000 		.4byte	.LVL75
 3809 05e4 26000000 		.4byte	.LVL77
 3810 05e8 0100     		.2byte	0x1
 3811 05ea 54       		.byte	0x54
 3812 05eb 26000000 		.4byte	.LVL77
ARM GAS  /tmp/ccXkb9tQ.s 			page 68


 3813 05ef 45000000 		.4byte	.LVL78-1
 3814 05f3 0100     		.2byte	0x1
 3815 05f5 50       		.byte	0x50
 3816 05f6 45000000 		.4byte	.LVL78-1
 3817 05fa 5E000000 		.4byte	.LVL81
 3818 05fe 0100     		.2byte	0x1
 3819 0600 54       		.byte	0x54
 3820 0601 5E000000 		.4byte	.LVL81
 3821 0605 60000000 		.4byte	.LVL82
 3822 0609 0100     		.2byte	0x1
 3823 060b 50       		.byte	0x50
 3824 060c 60000000 		.4byte	.LVL82
 3825 0610 76000000 		.4byte	.LFE128
 3826 0614 0100     		.2byte	0x1
 3827 0616 54       		.byte	0x54
 3828 0617 00000000 		.4byte	0
 3829 061b 00000000 		.4byte	0
 3830              	.LLST35:
 3831 061f 00000000 		.4byte	.LVL72
 3832 0623 1A000000 		.4byte	.LVL75
 3833 0627 0100     		.2byte	0x1
 3834 0629 51       		.byte	0x51
 3835 062a 1A000000 		.4byte	.LVL75
 3836 062e 20000000 		.4byte	.LVL76
 3837 0632 0100     		.2byte	0x1
 3838 0634 56       		.byte	0x56
 3839 0635 20000000 		.4byte	.LVL76
 3840 0639 76000000 		.4byte	.LFE128
 3841 063d 0100     		.2byte	0x1
 3842 063f 5B       		.byte	0x5b
 3843 0640 00000000 		.4byte	0
 3844 0644 00000000 		.4byte	0
 3845              	.LLST36:
 3846 0648 00000000 		.4byte	.LVL72
 3847 064c 1A000000 		.4byte	.LVL75
 3848 0650 0100     		.2byte	0x1
 3849 0652 52       		.byte	0x52
 3850 0653 1A000000 		.4byte	.LVL75
 3851 0657 4E000000 		.4byte	.LVL79
 3852 065b 0100     		.2byte	0x1
 3853 065d 57       		.byte	0x57
 3854 065e 4E000000 		.4byte	.LVL79
 3855 0662 52000000 		.4byte	.LVL80
 3856 0666 0300     		.2byte	0x3
 3857 0668 77       		.byte	0x77
 3858 0669 01       		.sleb128 1
 3859 066a 9F       		.byte	0x9f
 3860 066b 5E000000 		.4byte	.LVL81
 3861 066f 70000000 		.4byte	.LVL84
 3862 0673 0100     		.2byte	0x1
 3863 0675 57       		.byte	0x57
 3864 0676 00000000 		.4byte	0
 3865 067a 00000000 		.4byte	0
 3866              	.LLST37:
 3867 067e 00000000 		.4byte	.LVL72
 3868 0682 12000000 		.4byte	.LVL74
 3869 0686 0100     		.2byte	0x1
ARM GAS  /tmp/ccXkb9tQ.s 			page 69


 3870 0688 53       		.byte	0x53
 3871 0689 12000000 		.4byte	.LVL74
 3872 068d 76000000 		.4byte	.LFE128
 3873 0691 0100     		.2byte	0x1
 3874 0693 5A       		.byte	0x5a
 3875 0694 00000000 		.4byte	0
 3876 0698 00000000 		.4byte	0
 3877              	.LLST38:
 3878 069c 10000000 		.4byte	.LVL73
 3879 06a0 1A000000 		.4byte	.LVL75
 3880 06a4 0200     		.2byte	0x2
 3881 06a6 30       		.byte	0x30
 3882 06a7 9F       		.byte	0x9f
 3883 06a8 1A000000 		.4byte	.LVL75
 3884 06ac 76000000 		.4byte	.LFE128
 3885 06b0 0100     		.2byte	0x1
 3886 06b2 58       		.byte	0x58
 3887 06b3 00000000 		.4byte	0
 3888 06b7 00000000 		.4byte	0
 3889              		.section	.debug_aranges,"",%progbits
 3890 0000 6C000000 		.4byte	0x6c
 3891 0004 0200     		.2byte	0x2
 3892 0006 00000000 		.4byte	.Ldebug_info0
 3893 000a 04       		.byte	0x4
 3894 000b 00       		.byte	0
 3895 000c 0000     		.2byte	0
 3896 000e 0000     		.2byte	0
 3897 0010 00000000 		.4byte	.LFB118
 3898 0014 30000000 		.4byte	.LFE118-.LFB118
 3899 0018 00000000 		.4byte	.LFB119
 3900 001c 1E000000 		.4byte	.LFE119-.LFB119
 3901 0020 00000000 		.4byte	.LFB120
 3902 0024 2C000000 		.4byte	.LFE120-.LFB120
 3903 0028 00000000 		.4byte	.LFB121
 3904 002c 50000000 		.4byte	.LFE121-.LFB121
 3905 0030 00000000 		.4byte	.LFB122
 3906 0034 50000000 		.4byte	.LFE122-.LFB122
 3907 0038 00000000 		.4byte	.LFB123
 3908 003c 78000000 		.4byte	.LFE123-.LFB123
 3909 0040 00000000 		.4byte	.LFB124
 3910 0044 1C000000 		.4byte	.LFE124-.LFB124
 3911 0048 00000000 		.4byte	.LFB125
 3912 004c 2E000000 		.4byte	.LFE125-.LFB125
 3913 0050 00000000 		.4byte	.LFB126
 3914 0054 54000000 		.4byte	.LFE126-.LFB126
 3915 0058 00000000 		.4byte	.LFB127
 3916 005c 46000000 		.4byte	.LFE127-.LFB127
 3917 0060 00000000 		.4byte	.LFB128
 3918 0064 76000000 		.4byte	.LFE128-.LFB128
 3919 0068 00000000 		.4byte	0
 3920 006c 00000000 		.4byte	0
 3921              		.section	.debug_ranges,"",%progbits
 3922              	.Ldebug_ranges0:
 3923 0000 0C000000 		.4byte	.LBB12
 3924 0004 0E000000 		.4byte	.LBE12
 3925 0008 10000000 		.4byte	.LBB15
 3926 000c 18000000 		.4byte	.LBE15
ARM GAS  /tmp/ccXkb9tQ.s 			page 70


 3927 0010 00000000 		.4byte	0
 3928 0014 00000000 		.4byte	0
 3929 0018 02000000 		.4byte	.LBB20
 3930 001c 04000000 		.4byte	.LBE20
 3931 0020 08000000 		.4byte	.LBB21
 3932 0024 0C000000 		.4byte	.LBE21
 3933 0028 00000000 		.4byte	0
 3934 002c 00000000 		.4byte	0
 3935 0030 14000000 		.4byte	.LBB22
 3936 0034 1C000000 		.4byte	.LBE22
 3937 0038 1E000000 		.4byte	.LBB24
 3938 003c 22000000 		.4byte	.LBE24
 3939 0040 48000000 		.4byte	.LBB26
 3940 0044 50000000 		.4byte	.LBE26
 3941 0048 00000000 		.4byte	0
 3942 004c 00000000 		.4byte	0
 3943 0050 10000000 		.4byte	.LBB34
 3944 0054 18000000 		.4byte	.LBE34
 3945 0058 1A000000 		.4byte	.LBB36
 3946 005c 1E000000 		.4byte	.LBE36
 3947 0060 4C000000 		.4byte	.LBB38
 3948 0064 54000000 		.4byte	.LBE38
 3949 0068 00000000 		.4byte	0
 3950 006c 00000000 		.4byte	0
 3951 0070 00000000 		.4byte	.LFB118
 3952 0074 30000000 		.4byte	.LFE118
 3953 0078 00000000 		.4byte	.LFB119
 3954 007c 1E000000 		.4byte	.LFE119
 3955 0080 00000000 		.4byte	.LFB120
 3956 0084 2C000000 		.4byte	.LFE120
 3957 0088 00000000 		.4byte	.LFB121
 3958 008c 50000000 		.4byte	.LFE121
 3959 0090 00000000 		.4byte	.LFB122
 3960 0094 50000000 		.4byte	.LFE122
 3961 0098 00000000 		.4byte	.LFB123
 3962 009c 78000000 		.4byte	.LFE123
 3963 00a0 00000000 		.4byte	.LFB124
 3964 00a4 1C000000 		.4byte	.LFE124
 3965 00a8 00000000 		.4byte	.LFB125
 3966 00ac 2E000000 		.4byte	.LFE125
 3967 00b0 00000000 		.4byte	.LFB126
 3968 00b4 54000000 		.4byte	.LFE126
 3969 00b8 00000000 		.4byte	.LFB127
 3970 00bc 46000000 		.4byte	.LFE127
 3971 00c0 00000000 		.4byte	.LFB128
 3972 00c4 76000000 		.4byte	.LFE128
 3973 00c8 00000000 		.4byte	0
 3974 00cc 00000000 		.4byte	0
 3975              		.section	.debug_line,"",%progbits
 3976              	.Ldebug_line0:
 3977 0000 92030000 		.section	.debug_str,"MS",%progbits,1
 3977      02008F01 
 3977      00000201 
 3977      FB0E0D00 
 3977      01010101 
 3978              	.LASF90:
 3979 0000 63684F51 		.ascii	"chOQPutTimeout\000"
ARM GAS  /tmp/ccXkb9tQ.s 			page 71


 3979      50757454 
 3979      696D656F 
 3979      757400
 3980              	.LASF95:
 3981 000f 474E5520 		.ascii	"GNU C 4.8.3 20140820 (release) -mcpu=cortex-m4 -mno"
 3981      4320342E 
 3981      382E3320 
 3981      32303134 
 3981      30383230 
 3982 0042 2D746875 		.ascii	"-thumb-interwork -mthumb -ggdb -O2 -fomit-frame-poi"
 3982      6D622D69 
 3982      6E746572 
 3982      776F726B 
 3982      202D6D74 
 3983 0075 6E746572 		.ascii	"nter -falign-functions=16 -ffunction-sections -fdat"
 3983      202D6661 
 3983      6C69676E 
 3983      2D66756E 
 3983      6374696F 
 3984 00a8 612D7365 		.ascii	"a-sections -fno-common\000"
 3984      6374696F 
 3984      6E73202D 
 3984      666E6F2D 
 3984      636F6D6D 
 3985              	.LASF88:
 3986 00bf 6F6E6679 		.ascii	"onfy\000"
 3986      00
 3987              	.LASF2:
 3988 00c4 73697A65 		.ascii	"size_t\000"
 3988      5F7400
 3989              	.LASF61:
 3990 00cb 7264796D 		.ascii	"rdymsg\000"
 3990      736700
 3991              	.LASF77:
 3992 00d2 4F757470 		.ascii	"OutputQueue\000"
 3992      75745175 
 3992      65756500 
 3993              	.LASF3:
 3994 00de 5F5F7569 		.ascii	"__uint8_t\000"
 3994      6E74385F 
 3994      7400
 3995              	.LASF86:
 3996 00e8 63684951 		.ascii	"chIQReadTimeout\000"
 3996      52656164 
 3996      54696D65 
 3996      6F757400 
 3997              	.LASF12:
 3998 00f8 6C6F6E67 		.ascii	"long long unsigned int\000"
 3998      206C6F6E 
 3998      6720756E 
 3998      7369676E 
 3998      65642069 
 3999              	.LASF83:
 4000 010f 63684951 		.ascii	"chIQResetI\000"
 4000      52657365 
 4000      744900
 4001              	.LASF87:
ARM GAS  /tmp/ccXkb9tQ.s 			page 72


 4002 011a 63684F51 		.ascii	"chOQInit\000"
 4002      496E6974 
 4002      00
 4003              	.LASF62:
 4004 0123 65786974 		.ascii	"exitcode\000"
 4004      636F6465 
 4004      00
 4005              	.LASF93:
 4006 012c 49544D5F 		.ascii	"ITM_RxBuffer\000"
 4006      52784275 
 4006      66666572 
 4006      00
 4007              	.LASF28:
 4008 0139 705F7072 		.ascii	"p_prio\000"
 4008      696F00
 4009              	.LASF67:
 4010 0140 715F7761 		.ascii	"q_waiting\000"
 4010      6974696E 
 4010      6700
 4011              	.LASF11:
 4012 014a 6C6F6E67 		.ascii	"long long int\000"
 4012      206C6F6E 
 4012      6720696E 
 4012      7400
 4013              	.LASF1:
 4014 0158 7369676E 		.ascii	"signed char\000"
 4014      65642063 
 4014      68617200 
 4015              	.LASF43:
 4016 0164 705F6D70 		.ascii	"p_mpool\000"
 4016      6F6F6C00 
 4017              	.LASF16:
 4018 016c 626F6F6C 		.ascii	"bool_t\000"
 4018      5F7400
 4019              	.LASF58:
 4020 0173 6D5F7175 		.ascii	"m_queue\000"
 4020      65756500 
 4021              	.LASF100:
 4022 017b 71776169 		.ascii	"qwait\000"
 4022      7400
 4023              	.LASF8:
 4024 0181 6C6F6E67 		.ascii	"long int\000"
 4024      20696E74 
 4024      00
 4025              	.LASF19:
 4026 018a 74737461 		.ascii	"tstate_t\000"
 4026      74655F74 
 4026      00
 4027              	.LASF91:
 4028 0193 63684F51 		.ascii	"chOQGetI\000"
 4028      47657449 
 4028      00
 4029              	.LASF69:
 4030 019c 715F6275 		.ascii	"q_buffer\000"
 4030      66666572 
 4030      00
 4031              	.LASF71:
ARM GAS  /tmp/ccXkb9tQ.s 			page 73


 4032 01a5 715F7772 		.ascii	"q_wrptr\000"
 4032      70747200 
 4033              	.LASF74:
 4034 01ad 715F6C69 		.ascii	"q_link\000"
 4034      6E6B00
 4035              	.LASF30:
 4036 01b4 705F6E65 		.ascii	"p_newer\000"
 4036      77657200 
 4037              	.LASF53:
 4038 01bc 725F6E65 		.ascii	"r_newer\000"
 4038      77657200 
 4039              	.LASF47:
 4040 01c4 72656761 		.ascii	"regarm_t\000"
 4040      726D5F74 
 4040      00
 4041              	.LASF81:
 4042 01cd 6C696E6B 		.ascii	"link\000"
 4042      00
 4043              	.LASF84:
 4044 01d2 63684951 		.ascii	"chIQPutI\000"
 4044      50757449 
 4044      00
 4045              	.LASF0:
 4046 01db 756E7369 		.ascii	"unsigned int\000"
 4046      676E6564 
 4046      20696E74 
 4046      00
 4047              	.LASF36:
 4048 01e8 705F7469 		.ascii	"p_time\000"
 4048      6D6500
 4049              	.LASF38:
 4050 01ef 705F6D73 		.ascii	"p_msgqueue\000"
 4050      67717565 
 4050      756500
 4051              	.LASF79:
 4052 01fa 73697A65 		.ascii	"size\000"
 4052      00
 4053              	.LASF6:
 4054 01ff 73686F72 		.ascii	"short unsigned int\000"
 4054      7420756E 
 4054      7369676E 
 4054      65642069 
 4054      6E7400
 4055              	.LASF22:
 4056 0212 6D73675F 		.ascii	"msg_t\000"
 4056      7400
 4057              	.LASF98:
 4058 0218 71756575 		.ascii	"queue_insert\000"
 4058      655F696E 
 4058      73657274 
 4058      00
 4059              	.LASF18:
 4060 0225 746D6F64 		.ascii	"tmode_t\000"
 4060      655F7400 
 4061              	.LASF45:
 4062 022d 54687265 		.ascii	"ThreadsList\000"
 4062      6164734C 
ARM GAS  /tmp/ccXkb9tQ.s 			page 74


 4062      69737400 
 4063              	.LASF23:
 4064 0239 6576656E 		.ascii	"eventmask_t\000"
 4064      746D6173 
 4064      6B5F7400 
 4065              	.LASF76:
 4066 0245 496E7075 		.ascii	"InputQueue\000"
 4066      74517565 
 4066      756500
 4067              	.LASF66:
 4068 0250 47656E65 		.ascii	"GenericQueue\000"
 4068      72696351 
 4068      75657565 
 4068      00
 4069              	.LASF92:
 4070 025d 63684F51 		.ascii	"chOQWriteTimeout\000"
 4070      57726974 
 4070      6554696D 
 4070      656F7574 
 4070      00
 4071              	.LASF97:
 4072 026e 2F706F6F 		.ascii	"/pool/prototipi/git/tiva-chibios2_6/demos/RT-TM4C12"
 4072      6C2F7072 
 4072      6F746F74 
 4072      6970692F 
 4072      6769742F 
 4073 02a1 39342D4C 		.ascii	"94-LAUNCHPAD\000"
 4073      41554E43 
 4073      48504144 
 4073      00
 4074              	.LASF46:
 4075 02ae 73697A65 		.ascii	"sizetype\000"
 4075      74797065 
 4075      00
 4076              	.LASF68:
 4077 02b7 715F636F 		.ascii	"q_counter\000"
 4077      756E7465 
 4077      7200
 4078              	.LASF57:
 4079 02c1 4D757465 		.ascii	"Mutex\000"
 4079      7800
 4080              	.LASF31:
 4081 02c7 705F6F6C 		.ascii	"p_older\000"
 4081      64657200 
 4082              	.LASF52:
 4083 02cf 725F6374 		.ascii	"r_ctx\000"
 4083      7800
 4084              	.LASF44:
 4085 02d5 54687265 		.ascii	"ThreadsQueue\000"
 4085      61647351 
 4085      75657565 
 4085      00
 4086              	.LASF78:
 4087 02e2 74696D65 		.ascii	"time\000"
 4087      00
 4088              	.LASF55:
 4089 02e7 725F6375 		.ascii	"r_current\000"
ARM GAS  /tmp/ccXkb9tQ.s 			page 75


 4089      7272656E 
 4089      7400
 4090              	.LASF54:
 4091 02f1 725F6F6C 		.ascii	"r_older\000"
 4091      64657200 
 4092              	.LASF20:
 4093 02f9 74726566 		.ascii	"trefs_t\000"
 4093      735F7400 
 4094              	.LASF75:
 4095 0301 716E6F74 		.ascii	"qnotify_t\000"
 4095      6966795F 
 4095      7400
 4096              	.LASF27:
 4097 030b 705F7072 		.ascii	"p_prev\000"
 4097      657600
 4098              	.LASF21:
 4099 0312 74707269 		.ascii	"tprio_t\000"
 4099      6F5F7400 
 4100              	.LASF72:
 4101 031a 715F7264 		.ascii	"q_rdptr\000"
 4101      70747200 
 4102              	.LASF17:
 4103 0322 5F426F6F 		.ascii	"_Bool\000"
 4103      6C00
 4104              	.LASF14:
 4105 0328 696E7433 		.ascii	"int32_t\000"
 4105      325F7400 
 4106              	.LASF4:
 4107 0330 756E7369 		.ascii	"unsigned char\000"
 4107      676E6564 
 4107      20636861 
 4107      7200
 4108              	.LASF33:
 4109 033e 705F7374 		.ascii	"p_state\000"
 4109      61746500 
 4110              	.LASF41:
 4111 0346 705F6D74 		.ascii	"p_mtxlist\000"
 4111      786C6973 
 4111      7400
 4112              	.LASF5:
 4113 0350 73686F72 		.ascii	"short int\000"
 4113      7420696E 
 4113      7400
 4114              	.LASF51:
 4115 035a 725F7072 		.ascii	"r_prio\000"
 4115      696F00
 4116              	.LASF64:
 4117 0361 65776D61 		.ascii	"ewmask\000"
 4117      736B00
 4118              	.LASF26:
 4119 0368 705F6E65 		.ascii	"p_next\000"
 4119      787400
 4120              	.LASF80:
 4121 036f 696E6679 		.ascii	"infy\000"
 4121      00
 4122              	.LASF34:
 4123 0374 705F666C 		.ascii	"p_flags\000"
ARM GAS  /tmp/ccXkb9tQ.s 			page 76


 4123      61677300 
 4124              	.LASF25:
 4125 037c 54687265 		.ascii	"Thread\000"
 4125      616400
 4126              	.LASF40:
 4127 0383 705F6570 		.ascii	"p_epending\000"
 4127      656E6469 
 4127      6E6700
 4128              	.LASF15:
 4129 038e 75696E74 		.ascii	"uint32_t\000"
 4129      33325F74 
 4129      00
 4130              	.LASF50:
 4131 0397 725F7175 		.ascii	"r_queue\000"
 4131      65756500 
 4132              	.LASF102:
 4133 039f 63685363 		.ascii	"chSchReadyI\000"
 4133      68526561 
 4133      64794900 
 4134              	.LASF10:
 4135 03ab 6C6F6E67 		.ascii	"long unsigned int\000"
 4135      20756E73 
 4135      69676E65 
 4135      6420696E 
 4135      7400
 4136              	.LASF65:
 4137 03bd 63686172 		.ascii	"char\000"
 4137      00
 4138              	.LASF99:
 4139 03c2 6669666F 		.ascii	"fifo_remove\000"
 4139      5F72656D 
 4139      6F766500 
 4140              	.LASF60:
 4141 03ce 6D5F6E65 		.ascii	"m_next\000"
 4141      787400
 4142              	.LASF24:
 4143 03d5 73797374 		.ascii	"systime_t\000"
 4143      696D655F 
 4143      7400
 4144              	.LASF42:
 4145 03df 705F7265 		.ascii	"p_realprio\000"
 4145      616C7072 
 4145      696F00
 4146              	.LASF7:
 4147 03ea 5F5F696E 		.ascii	"__int32_t\000"
 4147      7433325F 
 4147      7400
 4148              	.LASF9:
 4149 03f4 5F5F7569 		.ascii	"__uint32_t\000"
 4149      6E743332 
 4149      5F7400
 4150              	.LASF89:
 4151 03ff 63684F51 		.ascii	"chOQResetI\000"
 4151      52657365 
 4151      744900
 4152              	.LASF49:
 4153 040a 636F6E74 		.ascii	"context\000"
ARM GAS  /tmp/ccXkb9tQ.s 			page 77


 4153      65787400 
 4154              	.LASF96:
 4155 0412 2E2E2F2E 		.ascii	"../../os/kernel/src/chqueues.c\000"
 4155      2E2F6F73 
 4155      2F6B6572 
 4155      6E656C2F 
 4155      7372632F 
 4156              	.LASF48:
 4157 0431 696E7463 		.ascii	"intctx\000"
 4157      747800
 4158              	.LASF70:
 4159 0438 715F746F 		.ascii	"q_top\000"
 4159      7000
 4160              	.LASF35:
 4161 043e 705F7265 		.ascii	"p_refs\000"
 4161      667300
 4162              	.LASF56:
 4163 0445 52656164 		.ascii	"ReadyList\000"
 4163      794C6973 
 4163      7400
 4164              	.LASF73:
 4165 044f 715F6E6F 		.ascii	"q_notify\000"
 4165      74696679 
 4165      00
 4166              	.LASF94:
 4167 0458 726C6973 		.ascii	"rlist\000"
 4167      7400
 4168              	.LASF13:
 4169 045e 75696E74 		.ascii	"uint8_t\000"
 4169      385F7400 
 4170              	.LASF63:
 4171 0466 77746F62 		.ascii	"wtobjp\000"
 4171      6A7000
 4172              	.LASF32:
 4173 046d 705F6E61 		.ascii	"p_name\000"
 4173      6D6500
 4174              	.LASF101:
 4175 0474 63685363 		.ascii	"chSchGoSleepTimeoutS\000"
 4175      68476F53 
 4175      6C656570 
 4175      54696D65 
 4175      6F757453 
 4176              	.LASF39:
 4177 0489 705F6D73 		.ascii	"p_msg\000"
 4177      6700
 4178              	.LASF82:
 4179 048f 63684951 		.ascii	"chIQInit\000"
 4179      496E6974 
 4179      00
 4180              	.LASF59:
 4181 0498 6D5F6F77 		.ascii	"m_owner\000"
 4181      6E657200 
 4182              	.LASF29:
 4183 04a0 705F6374 		.ascii	"p_ctx\000"
 4183      7800
 4184              	.LASF37:
 4185 04a6 705F7761 		.ascii	"p_waiting\000"
ARM GAS  /tmp/ccXkb9tQ.s 			page 78


 4185      6974696E 
 4185      6700
 4186              	.LASF85:
 4187 04b0 63684951 		.ascii	"chIQGetTimeout\000"
 4187      47657454 
 4187      696D656F 
 4187      757400
 4188              		.ident	"GCC: (4.8.3-9+11) 4.8.3 20140820 (release)"
ARM GAS  /tmp/ccXkb9tQ.s 			page 79


DEFINED SYMBOLS
                            *ABS*:0000000000000000 chqueues.c
     /tmp/ccXkb9tQ.s:19     .text.qwait:0000000000000000 $t
     /tmp/ccXkb9tQ.s:24     .text.qwait:0000000000000000 qwait
     /tmp/ccXkb9tQ.s:78     .text.qwait:000000000000002c $d
     /tmp/ccXkb9tQ.s:83     .text.chIQInit:0000000000000000 $t
     /tmp/ccXkb9tQ.s:89     .text.chIQInit:0000000000000000 chIQInit
     /tmp/ccXkb9tQ.s:131    .text.chIQResetI:0000000000000000 $t
     /tmp/ccXkb9tQ.s:137    .text.chIQResetI:0000000000000000 chIQResetI
     /tmp/ccXkb9tQ.s:195    .text.chIQPutI:0000000000000000 $t
     /tmp/ccXkb9tQ.s:201    .text.chIQPutI:0000000000000000 chIQPutI
     /tmp/ccXkb9tQ.s:289    .text.chIQGetTimeout:0000000000000000 $t
     /tmp/ccXkb9tQ.s:295    .text.chIQGetTimeout:0000000000000000 chIQGetTimeout
     /tmp/ccXkb9tQ.s:404    .text.chIQReadTimeout:0000000000000000 $t
     /tmp/ccXkb9tQ.s:410    .text.chIQReadTimeout:0000000000000000 chIQReadTimeout
     /tmp/ccXkb9tQ.s:539    .text.chOQInit:0000000000000000 $t
     /tmp/ccXkb9tQ.s:545    .text.chOQInit:0000000000000000 chOQInit
     /tmp/ccXkb9tQ.s:583    .text.chOQResetI:0000000000000000 $t
     /tmp/ccXkb9tQ.s:589    .text.chOQResetI:0000000000000000 chOQResetI
     /tmp/ccXkb9tQ.s:650    .text.chOQPutTimeout:0000000000000000 $t
     /tmp/ccXkb9tQ.s:656    .text.chOQPutTimeout:0000000000000000 chOQPutTimeout
     /tmp/ccXkb9tQ.s:765    .text.chOQGetI:0000000000000000 $t
     /tmp/ccXkb9tQ.s:771    .text.chOQGetI:0000000000000000 chOQGetI
     /tmp/ccXkb9tQ.s:857    .text.chOQWriteTimeout:0000000000000000 $t
     /tmp/ccXkb9tQ.s:863    .text.chOQWriteTimeout:0000000000000000 chOQWriteTimeout
                     .debug_frame:0000000000000010 $d

UNDEFINED SYMBOLS
chSchGoSleepTimeoutS
rlist
chSchReadyI
