ARM GAS  /tmp/ccXkb9tQ.s 			page 1


   1              		.syntax unified
   2              		.cpu cortex-m4
   3              		.fpu softvfp
   4              		.eabi_attribute 20, 1
   5              		.eabi_attribute 21, 1
   6              		.eabi_attribute 23, 3
   7              		.eabi_attribute 24, 1
   8              		.eabi_attribute 25, 1
   9              		.eabi_attribute 26, 1
  10              		.eabi_attribute 30, 2
  11              		.eabi_attribute 34, 1
  12              		.eabi_attribute 18, 4
  13              		.thumb
  14              		.file	"chqueues.c"
  15              		.text
  16              	.Ltext0:
  17              		.cfi_sections	.debug_frame
  18              		.section	.text.qwait,"ax",%progbits
  19              		.align	2
  20              		.p2align 4,,15
  21              		.thumb
  22              		.thumb_func
  23              		.type	qwait, %function
  24              	qwait:
  25              	.LFB118:
  26              		.file 1 "../../os/kernel/src/chqueues.c"
  27              		.loc 1 70 0
  28              		.cfi_startproc
  29              		@ args = 0, pretend = 0, frame = 0
  30              		@ frame_needed = 0, uses_anonymous_args = 0
  31              		@ link register save eliminated.
  32              	.LVL0:
  33 0000 10B4     		push	{r4}
  34              		.cfi_def_cfa_offset 4
  35              		.cfi_offset 4, -4
  36              		.loc 1 70 0
  37 0002 0246     		mov	r2, r0
  38              		.loc 1 72 0
  39 0004 61B1     		cbz	r1, .L2
  40              		.loc 1 74 0
  41 0006 094B     		ldr	r3, .L4
  42 0008 9B69     		ldr	r3, [r3, #24]
  43 000a 5862     		str	r0, [r3, #36]
  44              	.LVL1:
  45              	.LBB12:
  46              	.LBB13:
  47              		.file 2 "../../os/kernel/include/chinline.h"
  48              		.loc 2 55 0
  49 000c 4468     		ldr	r4, [r0, #4]
  50              	.LBE13:
  51              	.LBE12:
  52              		.loc 1 76 0
  53 000e 0D20     		movs	r0, #13
  54              	.LVL2:
  55              	.LBB15:
  56              	.LBB14:
  57              		.loc 2 55 0
ARM GAS  /tmp/ccXkb9tQ.s 			page 2


  58 0010 83E81400 		stmia	r3, {r2, r4}
  59              		.loc 2 56 0
  60 0014 5360     		str	r3, [r2, #4]
  61 0016 2360     		str	r3, [r4]
  62              	.LBE14:
  63              	.LBE15:
  64              		.loc 1 77 0
  65 0018 5DF8044B 		ldr	r4, [sp], #4
  66              		.loc 1 76 0
  67 001c FFF7FEBF 		b	chSchGoSleepTimeoutS
  68              	.LVL3:
  69              	.L2:
  70              		.loc 1 77 0
  71 0020 4FF0FF30 		mov	r0, #-1
  72              	.LVL4:
  73 0024 5DF8044B 		ldr	r4, [sp], #4
  74 0028 7047     		bx	lr
  75              	.L5:
  76 002a 00BF     		.align	2
  77              	.L4:
  78 002c 00000000 		.word	rlist
  79              		.cfi_endproc
  80              	.LFE118:
  81              		.size	qwait, .-qwait
  82              		.section	.text.chIQInit,"ax",%progbits
  83              		.align	2
  84              		.p2align 4,,15
  85              		.global	chIQInit
  86              		.thumb
  87              		.thumb_func
  88              		.type	chIQInit, %function
  89              	chIQInit:
  90              	.LFB119:
  91              		.loc 1 96 0
  92              		.cfi_startproc
  93              		@ args = 4, pretend = 0, frame = 0
  94              		@ frame_needed = 0, uses_anonymous_args = 0
  95              		@ link register save eliminated.
  96              	.LVL5:
  97 0000 30B4     		push	{r4, r5}
  98              		.cfi_def_cfa_offset 8
  99              		.cfi_offset 4, -8
 100              		.cfi_offset 5, -4
 101              		.loc 1 96 0
 102 0002 029C     		ldr	r4, [sp, #8]
 103              		.loc 1 103 0
 104 0004 0462     		str	r4, [r0, #32]
 105              		.loc 1 99 0
 106 0006 0025     		movs	r5, #0
 107              		.loc 1 101 0
 108 0008 0A44     		add	r2, r2, r1
 109              	.LVL6:
 110              		.loc 1 99 0
 111 000a 8560     		str	r5, [r0, #8]
 112              		.loc 1 101 0
 113 000c 0261     		str	r2, [r0, #16]
 114              		.loc 1 98 0
ARM GAS  /tmp/ccXkb9tQ.s 			page 3


 115 000e 4060     		str	r0, [r0, #4]
 116 0010 0060     		str	r0, [r0]
 117              		.loc 1 100 0
 118 0012 4161     		str	r1, [r0, #20]
 119 0014 8161     		str	r1, [r0, #24]
 120 0016 C160     		str	r1, [r0, #12]
 121              		.loc 1 102 0
 122 0018 C361     		str	r3, [r0, #28]
 123              		.loc 1 104 0
 124 001a 30BC     		pop	{r4, r5}
 125              	.LVL7:
 126 001c 7047     		bx	lr
 127              		.cfi_endproc
 128              	.LFE119:
 129              		.size	chIQInit, .-chIQInit
 130 001e 00BF     		.section	.text.chIQResetI,"ax",%progbits
 131              		.align	2
 132              		.p2align 4,,15
 133              		.global	chIQResetI
 134              		.thumb
 135              		.thumb_func
 136              		.type	chIQResetI, %function
 137              	chIQResetI:
 138              	.LFB120:
 139              		.loc 1 117 0
 140              		.cfi_startproc
 141              		@ args = 0, pretend = 0, frame = 0
 142              		@ frame_needed = 0, uses_anonymous_args = 0
 143              	.LVL8:
 144 0000 38B5     		push	{r3, r4, r5, lr}
 145              		.cfi_def_cfa_offset 16
 146              		.cfi_offset 3, -16
 147              		.cfi_offset 4, -12
 148              		.cfi_offset 5, -8
 149              		.cfi_offset 14, -4
 150              		.loc 1 117 0
 151 0002 0446     		mov	r4, r0
 152              		.loc 1 123 0
 153 0004 0068     		ldr	r0, [r0]
 154              	.LVL9:
 155              		.loc 1 121 0
 156 0006 E368     		ldr	r3, [r4, #12]
 157 0008 6361     		str	r3, [r4, #20]
 158              		.loc 1 122 0
 159 000a 0022     		movs	r2, #0
 160              		.loc 1 123 0
 161 000c A042     		cmp	r0, r4
 162              		.loc 1 122 0
 163 000e A260     		str	r2, [r4, #8]
 164              		.loc 1 121 0
 165 0010 A361     		str	r3, [r4, #24]
 166              		.loc 1 123 0
 167 0012 0AD0     		beq	.L7
 168              		.loc 1 124 0
 169 0014 6FF00105 		mvn	r5, #1
 170              	.L10:
 171              	.LVL10:
ARM GAS  /tmp/ccXkb9tQ.s 			page 4


 172              	.LBB16:
 173              	.LBB17:
 174              		.loc 2 62 0
 175 0018 0368     		ldr	r3, [r0]
 176 001a 2360     		str	r3, [r4]
 177 001c 5C60     		str	r4, [r3, #4]
 178              	.LBE17:
 179              	.LBE16:
 180              		.loc 1 124 0
 181 001e FFF7FEFF 		bl	chSchReadyI
 182              	.LVL11:
 183 0022 4562     		str	r5, [r0, #36]
 184              		.loc 1 123 0
 185 0024 2068     		ldr	r0, [r4]
 186 0026 A042     		cmp	r0, r4
 187 0028 F6D1     		bne	.L10
 188              	.LVL12:
 189              	.L7:
 190 002a 38BD     		pop	{r3, r4, r5, pc}
 191              		.cfi_endproc
 192              	.LFE120:
 193              		.size	chIQResetI, .-chIQResetI
 194 002c AFF30080 		.section	.text.chIQPutI,"ax",%progbits
 195              		.align	2
 196              		.p2align 4,,15
 197              		.global	chIQPutI
 198              		.thumb
 199              		.thumb_func
 200              		.type	chIQPutI, %function
 201              	chIQPutI:
 202              	.LFB121:
 203              		.loc 1 140 0
 204              		.cfi_startproc
 205              		@ args = 0, pretend = 0, frame = 0
 206              		@ frame_needed = 0, uses_anonymous_args = 0
 207              	.LVL13:
 208 0000 0346     		mov	r3, r0
 209              		.loc 1 144 0
 210 0002 4269     		ldr	r2, [r0, #20]
 211 0004 8069     		ldr	r0, [r0, #24]
 212              	.LVL14:
 213 0006 8242     		cmp	r2, r0
 214              		.loc 1 140 0
 215 0008 10B5     		push	{r4, lr}
 216              		.cfi_def_cfa_offset 8
 217              		.cfi_offset 4, -8
 218              		.cfi_offset 14, -4
 219              		.loc 1 144 0
 220 000a 9868     		ldr	r0, [r3, #8]
 221 000c 1BD0     		beq	.L20
 222              	.L14:
 223              		.loc 1 148 0
 224 000e 541C     		adds	r4, r2, #1
 225              		.loc 1 147 0
 226 0010 0130     		adds	r0, r0, #1
 227              		.loc 1 148 0
 228 0012 5C61     		str	r4, [r3, #20]
ARM GAS  /tmp/ccXkb9tQ.s 			page 5


 229              		.loc 1 147 0
 230 0014 9860     		str	r0, [r3, #8]
 231              		.loc 1 148 0
 232 0016 1170     		strb	r1, [r2]
 233              		.loc 1 149 0
 234 0018 5969     		ldr	r1, [r3, #20]
 235              	.LVL15:
 236 001a 1A69     		ldr	r2, [r3, #16]
 237              	.LVL16:
 238 001c 9142     		cmp	r1, r2
 239 001e 0BD2     		bcs	.L15
 240              		.loc 1 152 0
 241 0020 1868     		ldr	r0, [r3]
 242 0022 9842     		cmp	r0, r3
 243 0024 0DD0     		beq	.L18
 244              	.LVL17:
 245              	.L21:
 246              	.LBB18:
 247              	.LBB19:
 248              		.loc 2 62 0
 249 0026 0268     		ldr	r2, [r0]
 250 0028 1A60     		str	r2, [r3]
 251 002a 5360     		str	r3, [r2, #4]
 252              	.LBE19:
 253              	.LBE18:
 254              		.loc 1 153 0
 255 002c FFF7FEFF 		bl	chSchReadyI
 256              	.LVL18:
 257 0030 0023     		movs	r3, #0
 258 0032 4362     		str	r3, [r0, #36]
 259              		.loc 1 155 0
 260 0034 1846     		mov	r0, r3
 261 0036 10BD     		pop	{r4, pc}
 262              	.LVL19:
 263              	.L15:
 264              		.loc 1 152 0
 265 0038 1868     		ldr	r0, [r3]
 266              		.loc 1 150 0
 267 003a DA68     		ldr	r2, [r3, #12]
 268 003c 5A61     		str	r2, [r3, #20]
 269              	.LVL20:
 270              		.loc 1 152 0
 271 003e 9842     		cmp	r0, r3
 272 0040 F1D1     		bne	.L21
 273              	.L18:
 274              		.loc 1 155 0
 275 0042 0020     		movs	r0, #0
 276 0044 10BD     		pop	{r4, pc}
 277              	.LVL21:
 278              	.L20:
 279              		.loc 1 144 0 discriminator 1
 280 0046 0028     		cmp	r0, #0
 281 0048 E1D0     		beq	.L14
 282              		.loc 1 145 0
 283 004a 6FF00300 		mvn	r0, #3
 284 004e 10BD     		pop	{r4, pc}
 285              		.cfi_endproc
ARM GAS  /tmp/ccXkb9tQ.s 			page 6


 286              	.LFE121:
 287              		.size	chIQPutI, .-chIQPutI
 288              		.section	.text.chIQGetTimeout,"ax",%progbits
 289              		.align	2
 290              		.p2align 4,,15
 291              		.global	chIQGetTimeout
 292              		.thumb
 293              		.thumb_func
 294              		.type	chIQGetTimeout, %function
 295              	chIQGetTimeout:
 296              	.LFB122:
 297              		.loc 1 178 0
 298              		.cfi_startproc
 299              		@ args = 0, pretend = 0, frame = 0
 300              		@ frame_needed = 0, uses_anonymous_args = 0
 301              	.LVL22:
 302 0000 70B5     		push	{r4, r5, r6, lr}
 303              		.cfi_def_cfa_offset 16
 304              		.cfi_offset 4, -16
 305              		.cfi_offset 5, -12
 306              		.cfi_offset 6, -8
 307              		.cfi_offset 14, -4
 308              	.LBB20:
 309              		.loc 1 181 0
 310 0002 4023     		movs	r3, #64
 311              	.LBE20:
 312              		.loc 1 178 0
 313 0004 0E46     		mov	r6, r1
 314 0006 0446     		mov	r4, r0
 315              	.LBB21:
 316              		.loc 1 181 0
 317              	@ 181 "../../os/kernel/src/chqueues.c" 1
 318 0008 83F31188 		msr     BASEPRI, r3
 319              	@ 0 "" 2
 320              		.thumb
 321              	.LBE21:
 322              		.loc 1 182 0
 323 000c C369     		ldr	r3, [r0, #28]
 324 000e 2BB1     		cbz	r3, .L25
 325              		.loc 1 183 0
 326 0010 9847     		blx	r3
 327              	.LVL23:
 328 0012 03E0     		b	.L25
 329              	.LVL24:
 330              	.L27:
 331              	.LBB22:
 332              		.loc 1 187 0
 333 0014 FFF7FEFF 		bl	qwait
 334              	.LVL25:
 335 0018 0028     		cmp	r0, #0
 336 001a 15DB     		blt	.L32
 337              	.LVL26:
 338              	.L25:
 339              	.LBE22:
 340              		.loc 1 185 0 discriminator 1
 341 001c A568     		ldr	r5, [r4, #8]
 342              	.LBB24:
ARM GAS  /tmp/ccXkb9tQ.s 			page 7


 343              		.loc 1 187 0 discriminator 1
 344 001e 2046     		mov	r0, r4
 345 0020 3146     		mov	r1, r6
 346              	.LBE24:
 347              		.loc 1 185 0 discriminator 1
 348 0022 002D     		cmp	r5, #0
 349 0024 F6D0     		beq	.L27
 350              	.LVL27:
 351              		.loc 1 194 0
 352 0026 A269     		ldr	r2, [r4, #24]
 353              		.loc 1 195 0
 354 0028 2169     		ldr	r1, [r4, #16]
 355              	.LVL28:
 356              		.loc 1 194 0
 357 002a 531C     		adds	r3, r2, #1
 358              		.loc 1 195 0
 359 002c 8B42     		cmp	r3, r1
 360              		.loc 1 193 0
 361 002e 05F1FF35 		add	r5, r5, #-1
 362              		.loc 1 194 0
 363 0032 A361     		str	r3, [r4, #24]
 364              		.loc 1 193 0
 365 0034 A560     		str	r5, [r4, #8]
 366              		.loc 1 196 0
 367 0036 28BF     		it	cs
 368 0038 E368     		ldrcs	r3, [r4, #12]
 369              		.loc 1 194 0
 370 003a 1078     		ldrb	r0, [r2]	@ zero_extendqisi2
 371              	.LVL29:
 372              		.loc 1 196 0
 373 003c 28BF     		it	cs
 374 003e A361     		strcs	r3, [r4, #24]
 375              	.LVL30:
 376              	.LBB25:
 377              		.loc 1 198 0
 378 0040 0023     		movs	r3, #0
 379              	@ 198 "../../os/kernel/src/chqueues.c" 1
 380 0042 83F31188 		msr     BASEPRI, r3
 381              	@ 0 "" 2
 382              		.thumb
 383              	.LBE25:
 384              		.loc 1 200 0
 385 0046 70BD     		pop	{r4, r5, r6, pc}
 386              	.LVL31:
 387              	.L32:
 388              	.LBB26:
 389              	.LBB23:
 390              		.loc 1 188 0
 391 0048 2B46     		mov	r3, r5
 392              	@ 188 "../../os/kernel/src/chqueues.c" 1
 393 004a 83F31188 		msr     BASEPRI, r3
 394              	@ 0 "" 2
 395              		.thumb
 396              	.LBE23:
 397              		.loc 1 189 0
 398 004e 70BD     		pop	{r4, r5, r6, pc}
 399              	.LBE26:
ARM GAS  /tmp/ccXkb9tQ.s 			page 8


 400              		.cfi_endproc
 401              	.LFE122:
 402              		.size	chIQGetTimeout, .-chIQGetTimeout
 403              		.section	.text.chIQReadTimeout,"ax",%progbits
 404              		.align	2
 405              		.p2align 4,,15
 406              		.global	chIQReadTimeout
 407              		.thumb
 408              		.thumb_func
 409              		.type	chIQReadTimeout, %function
 410              	chIQReadTimeout:
 411              	.LFB123:
 412              		.loc 1 227 0
 413              		.cfi_startproc
 414              		@ args = 0, pretend = 0, frame = 0
 415              		@ frame_needed = 0, uses_anonymous_args = 0
 416              	.LVL32:
 417 0000 2DE9F047 		push	{r4, r5, r6, r7, r8, r9, r10, lr}
 418              		.cfi_def_cfa_offset 32
 419              		.cfi_offset 4, -32
 420              		.cfi_offset 5, -28
 421              		.cfi_offset 6, -24
 422              		.cfi_offset 7, -20
 423              		.cfi_offset 8, -16
 424              		.cfi_offset 9, -12
 425              		.cfi_offset 10, -8
 426              		.cfi_offset 14, -4
 427              		.loc 1 227 0
 428 0004 1E46     		mov	r6, r3
 429 0006 0446     		mov	r4, r0
 430              		.loc 1 228 0
 431 0008 D0F81C80 		ldr	r8, [r0, #28]
 432              	.LVL33:
 433              	.LBB27:
 434              		.loc 1 233 0
 435 000c 4023     		movs	r3, #64
 436              	.LVL34:
 437              	@ 233 "../../os/kernel/src/chqueues.c" 1
 438 000e 83F31188 		msr     BASEPRI, r3
 439              	@ 0 "" 2
 440              		.thumb
 441              	.LBE27:
 442              		.loc 1 229 0
 443 0012 4FF00009 		mov	r9, #0
 444 0016 01EB020A 		add	r10, r1, r2
 445 001a 4F1C     		adds	r7, r1, #1
 446              	.LVL35:
 447              	.L40:
 448              		.loc 1 235 0
 449 001c B8F1000F 		cmp	r8, #0
 450 0020 05D0     		beq	.L36
 451              		.loc 1 236 0
 452 0022 2046     		mov	r0, r4
 453              	.LVL36:
 454 0024 C047     		blx	r8
 455              	.LVL37:
 456 0026 02E0     		b	.L36
ARM GAS  /tmp/ccXkb9tQ.s 			page 9


 457              	.LVL38:
 458              	.L38:
 459              		.loc 1 239 0
 460 0028 FFF7FEFF 		bl	qwait
 461              	.LVL39:
 462 002c F0B9     		cbnz	r0, .L44
 463              	.L36:
 464              		.loc 1 238 0 discriminator 1
 465 002e A568     		ldr	r5, [r4, #8]
 466              		.loc 1 239 0 discriminator 1
 467 0030 2046     		mov	r0, r4
 468 0032 3146     		mov	r1, r6
 469              		.loc 1 238 0 discriminator 1
 470 0034 002D     		cmp	r5, #0
 471 0036 F7D0     		beq	.L38
 472              	.LVL40:
 473              		.loc 1 246 0
 474 0038 A369     		ldr	r3, [r4, #24]
 475              		.loc 1 245 0
 476 003a 013D     		subs	r5, r5, #1
 477              		.loc 1 246 0
 478 003c 5A1C     		adds	r2, r3, #1
 479 003e A261     		str	r2, [r4, #24]
 480              		.loc 1 245 0
 481 0040 A560     		str	r5, [r4, #8]
 482              	.LVL41:
 483              		.loc 1 246 0
 484 0042 1B78     		ldrb	r3, [r3]	@ zero_extendqisi2
 485 0044 07F8013C 		strb	r3, [r7, #-1]
 486              		.loc 1 247 0
 487 0048 2369     		ldr	r3, [r4, #16]
 488 004a A269     		ldr	r2, [r4, #24]
 489 004c 9A42     		cmp	r2, r3
 490              		.loc 1 248 0
 491 004e 24BF     		itt	cs
 492 0050 E368     		ldrcs	r3, [r4, #12]
 493 0052 A361     		strcs	r3, [r4, #24]
 494              	.LBB28:
 495              		.loc 1 250 0
 496 0054 0023     		movs	r3, #0
 497              	@ 250 "../../os/kernel/src/chqueues.c" 1
 498 0056 83F31188 		msr     BASEPRI, r3
 499              	@ 0 "" 2
 500              		.thumb
 501              	.LBE28:
 502              		.loc 1 252 0
 503 005a 5745     		cmp	r7, r10
 504              		.loc 1 251 0
 505 005c 09F10109 		add	r9, r9, #1
 506              	.LVL42:
 507              		.loc 1 252 0
 508 0060 07D0     		beq	.L37
 509              	.LBB29:
 510              		.loc 1 255 0
 511 0062 4023     		movs	r3, #64
 512              	@ 255 "../../os/kernel/src/chqueues.c" 1
 513 0064 83F31188 		msr     BASEPRI, r3
ARM GAS  /tmp/ccXkb9tQ.s 			page 10


 514              	@ 0 "" 2
 515              		.thumb
 516 0068 0137     		adds	r7, r7, #1
 517              	.LBE29:
 518              		.loc 1 256 0
 519 006a D7E7     		b	.L40
 520              	.LVL43:
 521              	.L44:
 522              	.LBB30:
 523              		.loc 1 240 0
 524 006c 2B46     		mov	r3, r5
 525              	@ 240 "../../os/kernel/src/chqueues.c" 1
 526 006e 83F31188 		msr     BASEPRI, r3
 527              	@ 0 "" 2
 528              	.LVL44:
 529              		.thumb
 530              	.L37:
 531              	.LBE30:
 532              		.loc 1 257 0
 533 0072 4846     		mov	r0, r9
 534 0074 BDE8F087 		pop	{r4, r5, r6, r7, r8, r9, r10, pc}
 535              		.cfi_endproc
 536              	.LFE123:
 537              		.size	chIQReadTimeout, .-chIQReadTimeout
 538 0078 AFF30080 		.section	.text.chOQInit,"ax",%progbits
 538      AFF30080 
 539              		.align	2
 540              		.p2align 4,,15
 541              		.global	chOQInit
 542              		.thumb
 543              		.thumb_func
 544              		.type	chOQInit, %function
 545              	chOQInit:
 546              	.LFB124:
 547              		.loc 1 276 0
 548              		.cfi_startproc
 549              		@ args = 4, pretend = 0, frame = 0
 550              		@ frame_needed = 0, uses_anonymous_args = 0
 551              		@ link register save eliminated.
 552              	.LVL45:
 553 0000 30B4     		push	{r4, r5}
 554              		.cfi_def_cfa_offset 8
 555              		.cfi_offset 4, -8
 556              		.cfi_offset 5, -4
 557              		.loc 1 276 0
 558 0002 029C     		ldr	r4, [sp, #8]
 559              		.loc 1 283 0
 560 0004 0462     		str	r4, [r0, #32]
 561              		.loc 1 281 0
 562 0006 8D18     		adds	r5, r1, r2
 563 0008 0561     		str	r5, [r0, #16]
 564              		.loc 1 278 0
 565 000a 4060     		str	r0, [r0, #4]
 566 000c 0060     		str	r0, [r0]
 567              		.loc 1 279 0
 568 000e 8260     		str	r2, [r0, #8]
 569              		.loc 1 280 0
ARM GAS  /tmp/ccXkb9tQ.s 			page 11


 570 0010 4161     		str	r1, [r0, #20]
 571 0012 8161     		str	r1, [r0, #24]
 572 0014 C160     		str	r1, [r0, #12]
 573              		.loc 1 282 0
 574 0016 C361     		str	r3, [r0, #28]
 575              		.loc 1 284 0
 576 0018 30BC     		pop	{r4, r5}
 577              	.LVL46:
 578 001a 7047     		bx	lr
 579              		.cfi_endproc
 580              	.LFE124:
 581              		.size	chOQInit, .-chOQInit
 582 001c AFF30080 		.section	.text.chOQResetI,"ax",%progbits
 583              		.align	2
 584              		.p2align 4,,15
 585              		.global	chOQResetI
 586              		.thumb
 587              		.thumb_func
 588              		.type	chOQResetI, %function
 589              	chOQResetI:
 590              	.LFB125:
 591              		.loc 1 297 0
 592              		.cfi_startproc
 593              		@ args = 0, pretend = 0, frame = 0
 594              		@ frame_needed = 0, uses_anonymous_args = 0
 595              	.LVL47:
 596 0000 38B5     		push	{r3, r4, r5, lr}
 597              		.cfi_def_cfa_offset 16
 598              		.cfi_offset 3, -16
 599              		.cfi_offset 4, -12
 600              		.cfi_offset 5, -8
 601              		.cfi_offset 14, -4
 602              		.loc 1 302 0
 603 0002 0269     		ldr	r2, [r0, #16]
 604              		.loc 1 301 0
 605 0004 C368     		ldr	r3, [r0, #12]
 606              		.loc 1 297 0
 607 0006 0446     		mov	r4, r0
 608              		.loc 1 303 0
 609 0008 0068     		ldr	r0, [r0]
 610              	.LVL48:
 611              		.loc 1 301 0
 612 000a 6361     		str	r3, [r4, #20]
 613              		.loc 1 302 0
 614 000c D21A     		subs	r2, r2, r3
 615              		.loc 1 303 0
 616 000e A042     		cmp	r0, r4
 617              		.loc 1 301 0
 618 0010 A361     		str	r3, [r4, #24]
 619              		.loc 1 302 0
 620 0012 A260     		str	r2, [r4, #8]
 621              		.loc 1 303 0
 622 0014 0AD0     		beq	.L46
 623              		.loc 1 304 0
 624 0016 6FF00105 		mvn	r5, #1
 625              	.L49:
 626              	.LVL49:
ARM GAS  /tmp/ccXkb9tQ.s 			page 12


 627              	.LBB31:
 628              	.LBB32:
 629              		.loc 2 62 0
 630 001a 0368     		ldr	r3, [r0]
 631 001c 2360     		str	r3, [r4]
 632 001e 5C60     		str	r4, [r3, #4]
 633              	.LBE32:
 634              	.LBE31:
 635              		.loc 1 304 0
 636 0020 FFF7FEFF 		bl	chSchReadyI
 637              	.LVL50:
 638 0024 4562     		str	r5, [r0, #36]
 639              		.loc 1 303 0
 640 0026 2068     		ldr	r0, [r4]
 641 0028 A042     		cmp	r0, r4
 642 002a F6D1     		bne	.L49
 643              	.LVL51:
 644              	.L46:
 645 002c 38BD     		pop	{r3, r4, r5, pc}
 646              		.cfi_endproc
 647              	.LFE125:
 648              		.size	chOQResetI, .-chOQResetI
 649 002e 00BF     		.section	.text.chOQPutTimeout,"ax",%progbits
 650              		.align	2
 651              		.p2align 4,,15
 652              		.global	chOQPutTimeout
 653              		.thumb
 654              		.thumb_func
 655              		.type	chOQPutTimeout, %function
 656              	chOQPutTimeout:
 657              	.LFB126:
 658              		.loc 1 329 0
 659              		.cfi_startproc
 660              		@ args = 0, pretend = 0, frame = 0
 661              		@ frame_needed = 0, uses_anonymous_args = 0
 662              	.LVL52:
 663 0000 F8B5     		push	{r3, r4, r5, r6, r7, lr}
 664              		.cfi_def_cfa_offset 24
 665              		.cfi_offset 3, -24
 666              		.cfi_offset 4, -20
 667              		.cfi_offset 5, -16
 668              		.cfi_offset 6, -12
 669              		.cfi_offset 7, -8
 670              		.cfi_offset 14, -4
 671              		.loc 1 329 0
 672 0002 0446     		mov	r4, r0
 673 0004 0F46     		mov	r7, r1
 674 0006 1646     		mov	r6, r2
 675              	.LBB33:
 676              		.loc 1 331 0
 677 0008 4023     		movs	r3, #64
 678              	@ 331 "../../os/kernel/src/chqueues.c" 1
 679 000a 83F31188 		msr     BASEPRI, r3
 680              	@ 0 "" 2
 681              		.thumb
 682              	.LBE33:
 683              		.loc 1 332 0
ARM GAS  /tmp/ccXkb9tQ.s 			page 13


 684 000e 03E0     		b	.L51
 685              	.LVL53:
 686              	.L54:
 687              	.LBB34:
 688              		.loc 1 335 0
 689 0010 FFF7FEFF 		bl	qwait
 690              	.LVL54:
 691 0014 0028     		cmp	r0, #0
 692 0016 19DB     		blt	.L60
 693              	.LVL55:
 694              	.L51:
 695              	.LBE34:
 696              		.loc 1 332 0 discriminator 1
 697 0018 A568     		ldr	r5, [r4, #8]
 698              	.LBB36:
 699              		.loc 1 335 0 discriminator 1
 700 001a 2046     		mov	r0, r4
 701 001c 3146     		mov	r1, r6
 702              	.LBE36:
 703              		.loc 1 332 0 discriminator 1
 704 001e 002D     		cmp	r5, #0
 705 0020 F6D0     		beq	.L54
 706              	.LVL56:
 707              		.loc 1 342 0
 708 0022 6369     		ldr	r3, [r4, #20]
 709              		.loc 1 341 0
 710 0024 013D     		subs	r5, r5, #1
 711              		.loc 1 342 0
 712 0026 5A1C     		adds	r2, r3, #1
 713 0028 6261     		str	r2, [r4, #20]
 714              		.loc 1 341 0
 715 002a A560     		str	r5, [r4, #8]
 716              		.loc 1 342 0
 717 002c 1F70     		strb	r7, [r3]
 718              		.loc 1 343 0
 719 002e 2369     		ldr	r3, [r4, #16]
 720 0030 6269     		ldr	r2, [r4, #20]
 721 0032 9A42     		cmp	r2, r3
 722              		.loc 1 344 0
 723 0034 24BF     		itt	cs
 724 0036 E368     		ldrcs	r3, [r4, #12]
 725 0038 6361     		strcs	r3, [r4, #20]
 726              		.loc 1 346 0
 727 003a E369     		ldr	r3, [r4, #28]
 728 003c 0BB1     		cbz	r3, .L56
 729              		.loc 1 347 0
 730 003e 2046     		mov	r0, r4
 731              	.LVL57:
 732 0040 9847     		blx	r3
 733              	.LVL58:
 734              	.L56:
 735              	.LBB37:
 736              		.loc 1 349 0
 737 0042 0023     		movs	r3, #0
 738              	@ 349 "../../os/kernel/src/chqueues.c" 1
 739 0044 83F31188 		msr     BASEPRI, r3
 740              	@ 0 "" 2
ARM GAS  /tmp/ccXkb9tQ.s 			page 14


 741              		.thumb
 742              	.LBE37:
 743              		.loc 1 350 0
 744 0048 1846     		mov	r0, r3
 745              		.loc 1 351 0
 746 004a F8BD     		pop	{r3, r4, r5, r6, r7, pc}
 747              	.LVL59:
 748              	.L60:
 749              	.LBB38:
 750              	.LBB35:
 751              		.loc 1 336 0
 752 004c 2B46     		mov	r3, r5
 753              	@ 336 "../../os/kernel/src/chqueues.c" 1
 754 004e 83F31188 		msr     BASEPRI, r3
 755              	@ 0 "" 2
 756              		.thumb
 757              	.LBE35:
 758              		.loc 1 337 0
 759 0052 F8BD     		pop	{r3, r4, r5, r6, r7, pc}
 760              	.LBE38:
 761              		.cfi_endproc
 762              	.LFE126:
 763              		.size	chOQPutTimeout, .-chOQPutTimeout
 764 0054 AFF30080 		.section	.text.chOQGetI,"ax",%progbits
 764      AFF30080 
 764      AFF30080 
 765              		.align	2
 766              		.p2align 4,,15
 767              		.global	chOQGetI
 768              		.thumb
 769              		.thumb_func
 770              		.type	chOQGetI, %function
 771              	chOQGetI:
 772              	.LFB127:
 773              		.loc 1 363 0
 774              		.cfi_startproc
 775              		@ args = 0, pretend = 0, frame = 0
 776              		@ frame_needed = 0, uses_anonymous_args = 0
 777              	.LVL60:
 778              		.loc 1 368 0
 779 0000 4169     		ldr	r1, [r0, #20]
 780 0002 8269     		ldr	r2, [r0, #24]
 781 0004 9142     		cmp	r1, r2
 782              		.loc 1 363 0
 783 0006 10B5     		push	{r4, lr}
 784              		.cfi_def_cfa_offset 8
 785              		.cfi_offset 4, -8
 786              		.cfi_offset 14, -4
 787              		.loc 1 363 0
 788 0008 0346     		mov	r3, r0
 789              		.loc 1 368 0
 790 000a 8168     		ldr	r1, [r0, #8]
 791 000c 16D0     		beq	.L70
 792              	.L64:
 793              		.loc 1 373 0
 794 000e 1869     		ldr	r0, [r3, #16]
 795              	.LVL61:
ARM GAS  /tmp/ccXkb9tQ.s 			page 15


 796              		.loc 1 371 0
 797 0010 4C1C     		adds	r4, r1, #1
 798              		.loc 1 372 0
 799 0012 511C     		adds	r1, r2, #1
 800              		.loc 1 371 0
 801 0014 9C60     		str	r4, [r3, #8]
 802              		.loc 1 372 0
 803 0016 9961     		str	r1, [r3, #24]
 804              		.loc 1 373 0
 805 0018 8142     		cmp	r1, r0
 806              		.loc 1 372 0
 807 001a 1478     		ldrb	r4, [r2]	@ zero_extendqisi2
 808              	.LVL62:
 809              		.loc 1 373 0
 810 001c 0BD2     		bcs	.L66
 811              	.LVL63:
 812              	.L67:
 813              		.loc 1 376 0
 814 001e 1868     		ldr	r0, [r3]
 815 0020 9842     		cmp	r0, r3
 816 0022 06D0     		beq	.L65
 817              	.LVL64:
 818              	.LBB39:
 819              	.LBB40:
 820              		.loc 2 62 0
 821 0024 0268     		ldr	r2, [r0]
 822 0026 1A60     		str	r2, [r3]
 823 0028 5360     		str	r3, [r2, #4]
 824              	.LBE40:
 825              	.LBE39:
 826              		.loc 1 377 0
 827 002a FFF7FEFF 		bl	chSchReadyI
 828              	.LVL65:
 829 002e 0023     		movs	r3, #0
 830 0030 4362     		str	r3, [r0, #36]
 831              	.LVL66:
 832              	.L65:
 833              		.loc 1 379 0
 834 0032 2046     		mov	r0, r4
 835 0034 10BD     		pop	{r4, pc}
 836              	.LVL67:
 837              	.L66:
 838              		.loc 1 374 0
 839 0036 DA68     		ldr	r2, [r3, #12]
 840              	.LVL68:
 841 0038 9A61     		str	r2, [r3, #24]
 842              	.LVL69:
 843 003a F0E7     		b	.L67
 844              	.LVL70:
 845              	.L70:
 846              		.loc 1 368 0 discriminator 1
 847 003c 0029     		cmp	r1, #0
 848 003e E6D0     		beq	.L64
 849              		.loc 1 369 0
 850 0040 6FF00200 		mvn	r0, #2
 851              	.LVL71:
 852 0044 10BD     		pop	{r4, pc}
ARM GAS  /tmp/ccXkb9tQ.s 			page 16


 853              		.cfi_endproc
 854              	.LFE127:
 855              		.size	chOQGetI, .-chOQGetI
 856 0046 00BFAFF3 		.section	.text.chOQWriteTimeout,"ax",%progbits
 856      0080AFF3 
 856      0080
 857              		.align	2
 858              		.p2align 4,,15
 859              		.global	chOQWriteTimeout
 860              		.thumb
 861              		.thumb_func
 862              		.type	chOQWriteTimeout, %function
 863              	chOQWriteTimeout:
 864              	.LFB128:
 865              		.loc 1 407 0
 866              		.cfi_startproc
 867              		@ args = 0, pretend = 0, frame = 0
 868              		@ frame_needed = 0, uses_anonymous_args = 0
 869              	.LVL72:
 870 0000 2DE9F84F 		push	{r3, r4, r5, r6, r7, r8, r9, r10, fp, lr}
 871              		.cfi_def_cfa_offset 40
 872              		.cfi_offset 3, -40
 873              		.cfi_offset 4, -36
 874              		.cfi_offset 5, -32
 875              		.cfi_offset 6, -28
 876              		.cfi_offset 7, -24
 877              		.cfi_offset 8, -20
 878              		.cfi_offset 9, -16
 879              		.cfi_offset 10, -12
 880              		.cfi_offset 11, -8
 881              		.cfi_offset 14, -4
 882              		.loc 1 407 0
 883 0004 9A46     		mov	r10, r3
 884 0006 0446     		mov	r4, r0
 885 0008 0E46     		mov	r6, r1
 886 000a 1746     		mov	r7, r2
 887              		.loc 1 408 0
 888 000c D0F81C90 		ldr	r9, [r0, #28]
 889              	.LVL73:
 890              	.LBB41:
 891              		.loc 1 413 0
 892 0010 4023     		movs	r3, #64
 893              	.LVL74:
 894              	@ 413 "../../os/kernel/src/chqueues.c" 1
 895 0012 83F31188 		msr     BASEPRI, r3
 896              	@ 0 "" 2
 897              		.thumb
 898              	.LBE41:
 899              		.loc 1 409 0
 900 0016 4FF00008 		mov	r8, #0
 901              	.LVL75:
 902              	.L72:
 903              		.loc 1 415 0 discriminator 1
 904 001a A568     		ldr	r5, [r4, #8]
 905              		.loc 1 422 0 discriminator 1
 906 001c 06F1010B 		add	fp, r6, #1
 907              	.LVL76:
ARM GAS  /tmp/ccXkb9tQ.s 			page 17


 908              		.loc 1 427 0 discriminator 1
 909 0020 2046     		mov	r0, r4
 910              		.loc 1 421 0 discriminator 1
 911 0022 6B1E     		subs	r3, r5, #1
 912              		.loc 1 415 0 discriminator 1
 913 0024 DDB1     		cbz	r5, .L75
 914              	.LVL77:
 915              		.loc 1 422 0
 916 0026 6269     		ldr	r2, [r4, #20]
 917              		.loc 1 421 0
 918 0028 A360     		str	r3, [r4, #8]
 919              		.loc 1 422 0
 920 002a 531C     		adds	r3, r2, #1
 921 002c 6361     		str	r3, [r4, #20]
 922 002e 3378     		ldrb	r3, [r6]	@ zero_extendqisi2
 923 0030 1370     		strb	r3, [r2]
 924              		.loc 1 423 0
 925 0032 2369     		ldr	r3, [r4, #16]
 926 0034 6269     		ldr	r2, [r4, #20]
 927 0036 9A42     		cmp	r2, r3
 928              		.loc 1 424 0
 929 0038 24BF     		itt	cs
 930 003a E368     		ldrcs	r3, [r4, #12]
 931 003c 6361     		strcs	r3, [r4, #20]
 932              		.loc 1 426 0
 933 003e B9F1000F 		cmp	r9, #0
 934 0042 00D0     		beq	.L77
 935              		.loc 1 427 0
 936 0044 C847     		blx	r9
 937              	.LVL78:
 938              	.L77:
 939              	.LBB42:
 940              		.loc 1 429 0
 941 0046 0023     		movs	r3, #0
 942              	@ 429 "../../os/kernel/src/chqueues.c" 1
 943 0048 83F31188 		msr     BASEPRI, r3
 944              	@ 0 "" 2
 945              		.thumb
 946              	.LBE42:
 947              		.loc 1 431 0
 948 004c 013F     		subs	r7, r7, #1
 949              	.LVL79:
 950              		.loc 1 430 0
 951 004e 08F10108 		add	r8, r8, #1
 952              	.LVL80:
 953              		.loc 1 431 0
 954 0052 0DD0     		beq	.L74
 955              	.LBB43:
 956              		.loc 1 433 0
 957 0054 4023     		movs	r3, #64
 958              	@ 433 "../../os/kernel/src/chqueues.c" 1
 959 0056 83F31188 		msr     BASEPRI, r3
 960              	@ 0 "" 2
 961              		.thumb
 962              	.LBE43:
 963              		.loc 1 422 0
 964 005a 5E46     		mov	r6, fp
ARM GAS  /tmp/ccXkb9tQ.s 			page 18


 965              		.loc 1 434 0
 966 005c DDE7     		b	.L72
 967              	.LVL81:
 968              	.L75:
 969              		.loc 1 416 0
 970 005e 2046     		mov	r0, r4
 971              	.LVL82:
 972 0060 5146     		mov	r1, r10
 973 0062 FFF7FEFF 		bl	qwait
 974              	.LVL83:
 975 0066 0028     		cmp	r0, #0
 976 0068 D7D0     		beq	.L72
 977              	.LBB44:
 978              		.loc 1 417 0
 979 006a 2B46     		mov	r3, r5
 980              	@ 417 "../../os/kernel/src/chqueues.c" 1
 981 006c 83F31188 		msr     BASEPRI, r3
 982              	@ 0 "" 2
 983              	.LVL84:
 984              		.thumb
 985              	.L74:
 986              	.LBE44:
 987              		.loc 1 435 0
 988 0070 4046     		mov	r0, r8
 989 0072 BDE8F88F 		pop	{r3, r4, r5, r6, r7, r8, r9, r10, fp, pc}
 990              		.cfi_endproc
 991              	.LFE128:
 992              		.size	chOQWriteTimeout, .-chOQWriteTimeout
 993 0076 00BFAFF3 		.text
 993      0080AFF3 
 993      0080
 994              	.Letext0:
 995              		.file 3 "/usr/lib/gcc/arm-none-eabi/4.8/include/stddef.h"
 996              		.file 4 "/usr/include/newlib/machine/_default_types.h"
 997              		.file 5 "/usr/include/newlib/stdint.h"
 998              		.file 6 "../../os/ports/GCC/ARMCMx/chtypes.h"
 999              		.file 7 "../../os/kernel/include/chlists.h"
 1000              		.file 8 "../../os/kernel/include/chthreads.h"
 1001              		.file 9 "../../os/ports/GCC/ARMCMx/chcore_v7m.h"
 1002              		.file 10 "../../os/kernel/include/chschd.h"
 1003              		.file 11 "../../os/kernel/include/chmtx.h"
 1004              		.file 12 "../../os/kernel/include/chqueues.h"
 1005              		.file 13 "../../os/ports/common/ARMCMx/CMSIS/include/core_cm4.h"