ARM GAS  /tmp/ccB6GPXT.s 			page 1


   1              		.syntax unified
   2              		.cpu cortex-m4
   3              		.fpu softvfp
   4              		.eabi_attribute 20, 1
   5              		.eabi_attribute 21, 1
   6              		.eabi_attribute 23, 3
   7              		.eabi_attribute 24, 1
   8              		.eabi_attribute 25, 1
   9              		.eabi_attribute 26, 1
  10              		.eabi_attribute 30, 2
  11              		.eabi_attribute 34, 1
  12              		.eabi_attribute 18, 4
  13              		.thumb
  14              		.file	"hal_lld.c"
  15              		.text
  16              	.Ltext0:
  17              		.cfi_sections	.debug_frame
  18              		.section	.text.hal_lld_init,"ax",%progbits
  19              		.align	2
  20              		.p2align 4,,15
  21              		.global	hal_lld_init
  22              		.thumb
  23              		.thumb_func
  24              		.type	hal_lld_init, %function
  25              	hal_lld_init:
  26              	.LFB118:
  27              		.file 1 "../../os/hal/platforms/TM4C129x/hal_lld.c"
  28              		.loc 1 53 0
  29              		.cfi_startproc
  30              		@ args = 0, pretend = 0, frame = 0
  31              		@ frame_needed = 0, uses_anonymous_args = 0
  32              		@ link register save eliminated.
  33 0000 7047     		bx	lr
  34              		.cfi_endproc
  35              	.LFE118:
  36              		.size	hal_lld_init, .-hal_lld_init
  37 0002 00BFAFF3 		.section	.text.tiva_clock_init,"ax",%progbits
  37      0080AFF3 
  37      0080AFF3 
  37      0080
  38              		.align	2
  39              		.p2align 4,,15
  40              		.global	tiva_clock_init
  41              		.thumb
  42              		.thumb_func
  43              		.type	tiva_clock_init, %function
  44              	tiva_clock_init:
  45              	.LFB119:
  46              		.loc 1 66 0
  47              		.cfi_startproc
  48              		@ args = 0, pretend = 0, frame = 0
  49              		@ frame_needed = 0, uses_anonymous_args = 0
  50              		@ link register save eliminated.
  51              		.loc 1 76 0
  52 0000 1149     		ldr	r1, .L8
  53 0002 CB6F     		ldr	r3, [r1, #124]
  54              	.LVL0:
ARM GAS  /tmp/ccB6GPXT.s 			page 2


  55              		.loc 1 87 0
  56 0004 23F00C03 		bic	r3, r3, #12
  57              	.LVL1:
  58              		.loc 1 66 0
  59 0008 10B4     		push	{r4}
  60              		.cfi_def_cfa_offset 4
  61              		.cfi_offset 4, -4
  62              		.loc 1 88 0
  63 000a CB67     		str	r3, [r1, #124]
  64              	.LVL2:
  65              	.L4:
  66              		.loc 1 90 0 discriminator 1
  67 000c 0B6D     		ldr	r3, [r1, #80]
  68 000e 0E4A     		ldr	r2, .L8
  69 0010 DB05     		lsls	r3, r3, #23
  70 0012 FBD5     		bpl	.L4
  71              		.loc 1 109 0
  72 0014 0421     		movs	r1, #4
  73              	.LVL3:
  74              		.loc 1 110 0
  75 0016 0D48     		ldr	r0, .L8+4
  76              		.loc 1 115 0
  77 0018 0D4B     		ldr	r3, .L8+8
  78              		.loc 1 96 0
  79 001a D2F8B040 		ldr	r4, [r2, #176]
  80              		.loc 1 109 0
  81 001e C2F86411 		str	r1, [r2, #356]
  82              	.LVL4:
  83              		.loc 1 110 0
  84 0022 C2F86001 		str	r0, [r2, #352]
  85              		.loc 1 122 0
  86 0026 1146     		mov	r1, r2
  87              		.loc 1 115 0
  88 0028 C2F8C030 		str	r3, [r2, #192]
  89              	.L6:
  90              		.loc 1 122 0 discriminator 1
  91 002c D1F86831 		ldr	r3, [r1, #360]
  92 0030 054A     		ldr	r2, .L8
  93 0032 002B     		cmp	r3, #0
  94 0034 FAD0     		beq	.L6
  95              		.loc 1 129 0
  96 0036 D2F8B010 		ldr	r1, [r2, #176]
  97              	.LVL5:
  98              		.loc 1 135 0
  99 003a 064B     		ldr	r3, .L8+12
 100              		.loc 1 145 0
 101 003c 5DF8044B 		ldr	r4, [sp], #4
 102              		.loc 1 135 0
 103 0040 0B43     		orrs	r3, r3, r1
 104              	.LVL6:
 105              		.loc 1 138 0
 106 0042 C2F8B030 		str	r3, [r2, #176]
 107              		.loc 1 145 0
 108 0046 7047     		bx	lr
 109              	.L9:
 110              		.align	2
 111              	.L8:
ARM GAS  /tmp/ccB6GPXT.s 			page 3


 112 0048 00E00F40 		.word	1074782208
 113 004c 60008000 		.word	8388704
 114 0050 95019501 		.word	26542485
 115 0054 03003093 		.word	-1825570813
 116              		.cfi_endproc
 117              	.LFE119:
 118              		.size	tiva_clock_init, .-tiva_clock_init
 119 0058 AFF30080 		.text
 119      AFF30080 
 120              	.Letext0:
 121              		.file 2 "/usr/include/newlib/machine/_default_types.h"
 122              		.file 3 "/usr/include/newlib/stdint.h"
 123              		.file 4 "../../os/ports/GCC/ARMCMx/TM4C129x/tm4c129x.h"
 124              		.file 5 "../../os/ports/common/ARMCMx/CMSIS/include/core_cm4.h"
 125              		.section	.debug_info,"",%progbits
 126              	.Ldebug_info0:
 127 0000 F9100000 		.4byte	0x10f9
 128 0004 0400     		.2byte	0x4
 129 0006 00000000 		.4byte	.Ldebug_abbrev0
 130 000a 04       		.byte	0x4
 131 000b 01       		.uleb128 0x1
 132 000c 34080000 		.4byte	.LASF257
 133 0010 01       		.byte	0x1
 134 0011 2A010000 		.4byte	.LASF258
 135 0015 23090000 		.4byte	.LASF259
 136 0019 00000000 		.4byte	.Ldebug_ranges0+0
 137 001d 00000000 		.4byte	0
 138 0021 00000000 		.4byte	.Ldebug_line0
 139 0025 02       		.uleb128 0x2
 140 0026 04       		.byte	0x4
 141 0027 05       		.byte	0x5
 142 0028 696E7400 		.ascii	"int\000"
 143 002c 03       		.uleb128 0x3
 144 002d 04       		.byte	0x4
 145 002e 07       		.byte	0x7
 146 002f 4C040000 		.4byte	.LASF0
 147 0033 03       		.uleb128 0x3
 148 0034 01       		.byte	0x1
 149 0035 06       		.byte	0x6
 150 0036 91010000 		.4byte	.LASF1
 151 003a 03       		.uleb128 0x3
 152 003b 01       		.byte	0x1
 153 003c 08       		.byte	0x8
 154 003d EB010000 		.4byte	.LASF2
 155 0041 03       		.uleb128 0x3
 156 0042 02       		.byte	0x2
 157 0043 05       		.byte	0x5
 158 0044 66070000 		.4byte	.LASF3
 159 0048 03       		.uleb128 0x3
 160 0049 02       		.byte	0x2
 161 004a 07       		.byte	0x7
 162 004b 10090000 		.4byte	.LASF4
 163 004f 04       		.uleb128 0x4
 164 0050 69090000 		.4byte	.LASF6
 165 0054 02       		.byte	0x2
 166 0055 3F       		.byte	0x3f
 167 0056 5A000000 		.4byte	0x5a
ARM GAS  /tmp/ccB6GPXT.s 			page 4


 168 005a 03       		.uleb128 0x3
 169 005b 04       		.byte	0x4
 170 005c 05       		.byte	0x5
 171 005d 13010000 		.4byte	.LASF5
 172 0061 04       		.uleb128 0x4
 173 0062 D2030000 		.4byte	.LASF7
 174 0066 02       		.byte	0x2
 175 0067 41       		.byte	0x41
 176 0068 6C000000 		.4byte	0x6c
 177 006c 03       		.uleb128 0x3
 178 006d 04       		.byte	0x4
 179 006e 07       		.byte	0x7
 180 006f 65030000 		.4byte	.LASF8
 181 0073 03       		.uleb128 0x3
 182 0074 08       		.byte	0x8
 183 0075 05       		.byte	0x5
 184 0076 EC030000 		.4byte	.LASF9
 185 007a 03       		.uleb128 0x3
 186 007b 08       		.byte	0x8
 187 007c 07       		.byte	0x7
 188 007d 14050000 		.4byte	.LASF10
 189 0081 04       		.uleb128 0x4
 190 0082 37000000 		.4byte	.LASF11
 191 0086 03       		.byte	0x3
 192 0087 41       		.byte	0x41
 193 0088 4F000000 		.4byte	0x4f
 194 008c 04       		.uleb128 0x4
 195 008d 25080000 		.4byte	.LASF12
 196 0091 03       		.byte	0x3
 197 0092 42       		.byte	0x42
 198 0093 61000000 		.4byte	0x61
 199 0097 03       		.uleb128 0x3
 200 0098 01       		.byte	0x1
 201 0099 02       		.byte	0x2
 202 009a 66020000 		.4byte	.LASF13
 203 009e 03       		.uleb128 0x3
 204 009f 04       		.byte	0x4
 205 00a0 07       		.byte	0x7
 206 00a1 00000000 		.4byte	.LASF14
 207 00a5 05       		.uleb128 0x5
 208 00a6 8C000000 		.4byte	0x8c
 209 00aa B5000000 		.4byte	0xb5
 210 00ae 06       		.uleb128 0x6
 211 00af 9E000000 		.4byte	0x9e
 212 00b3 17       		.byte	0x17
 213 00b4 00       		.byte	0
 214 00b5 07       		.uleb128 0x7
 215 00b6 8C000000 		.4byte	0x8c
 216 00ba 08       		.uleb128 0x8
 217 00bb B5000000 		.4byte	0xb5
 218 00bf 05       		.uleb128 0x5
 219 00c0 8C000000 		.4byte	0x8c
 220 00c4 CF000000 		.4byte	0xcf
 221 00c8 06       		.uleb128 0x6
 222 00c9 9E000000 		.4byte	0x9e
 223 00cd 01       		.byte	0x1
 224 00ce 00       		.byte	0
ARM GAS  /tmp/ccB6GPXT.s 			page 5


 225 00cf 05       		.uleb128 0x5
 226 00d0 8C000000 		.4byte	0x8c
 227 00d4 DF000000 		.4byte	0xdf
 228 00d8 06       		.uleb128 0x6
 229 00d9 9E000000 		.4byte	0x9e
 230 00dd 03       		.byte	0x3
 231 00de 00       		.byte	0
 232 00df 05       		.uleb128 0x5
 233 00e0 8C000000 		.4byte	0x8c
 234 00e4 EF000000 		.4byte	0xef
 235 00e8 06       		.uleb128 0x6
 236 00e9 9E000000 		.4byte	0x9e
 237 00ed 04       		.byte	0x4
 238 00ee 00       		.byte	0
 239 00ef 05       		.uleb128 0x5
 240 00f0 8C000000 		.4byte	0x8c
 241 00f4 FF000000 		.4byte	0xff
 242 00f8 06       		.uleb128 0x6
 243 00f9 9E000000 		.4byte	0x9e
 244 00fd 00       		.byte	0
 245 00fe 00       		.byte	0
 246 00ff 05       		.uleb128 0x5
 247 0100 8C000000 		.4byte	0x8c
 248 0104 0F010000 		.4byte	0x10f
 249 0108 06       		.uleb128 0x6
 250 0109 9E000000 		.4byte	0x9e
 251 010d 1C       		.byte	0x1c
 252 010e 00       		.byte	0
 253 010f 05       		.uleb128 0x5
 254 0110 8C000000 		.4byte	0x8c
 255 0114 1F010000 		.4byte	0x11f
 256 0118 06       		.uleb128 0x6
 257 0119 9E000000 		.4byte	0x9e
 258 011d 05       		.byte	0x5
 259 011e 00       		.byte	0
 260 011f 09       		.uleb128 0x9
 261 0120 A00A     		.2byte	0xaa0
 262 0122 04       		.byte	0x4
 263 0123 9C       		.byte	0x9c
 264 0124 D50D0000 		.4byte	0xdd5
 265 0128 0A       		.uleb128 0xa
 266 0129 18030000 		.4byte	.LASF15
 267 012d 04       		.byte	0x4
 268 012e 9E       		.byte	0x9e
 269 012f BA000000 		.4byte	0xba
 270 0133 00       		.byte	0
 271 0134 0A       		.uleb128 0xa
 272 0135 1D030000 		.4byte	.LASF16
 273 0139 04       		.byte	0x4
 274 013a 9F       		.byte	0x9f
 275 013b BA000000 		.4byte	0xba
 276 013f 04       		.byte	0x4
 277 0140 0A       		.uleb128 0xa
 278 0141 D7010000 		.4byte	.LASF17
 279 0145 04       		.byte	0x4
 280 0146 A0       		.byte	0xa0
 281 0147 E50D0000 		.4byte	0xde5
ARM GAS  /tmp/ccB6GPXT.s 			page 6


 282 014b 08       		.byte	0x8
 283 014c 0A       		.uleb128 0xa
 284 014d AA020000 		.4byte	.LASF18
 285 0151 04       		.byte	0x4
 286 0152 A1       		.byte	0xa1
 287 0153 B5000000 		.4byte	0xb5
 288 0157 38       		.byte	0x38
 289 0158 0A       		.uleb128 0xa
 290 0159 E1010000 		.4byte	.LASF19
 291 015d 04       		.byte	0x4
 292 015e A2       		.byte	0xa2
 293 015f EF0D0000 		.4byte	0xdef
 294 0163 3C       		.byte	0x3c
 295 0164 0B       		.uleb128 0xb
 296 0165 52495300 		.ascii	"RIS\000"
 297 0169 04       		.byte	0x4
 298 016a A3       		.byte	0xa3
 299 016b BA000000 		.4byte	0xba
 300 016f 50       		.byte	0x50
 301 0170 0B       		.uleb128 0xb
 302 0171 494D4300 		.ascii	"IMC\000"
 303 0175 04       		.byte	0x4
 304 0176 A4       		.byte	0xa4
 305 0177 B5000000 		.4byte	0xb5
 306 017b 54       		.byte	0x54
 307 017c 0A       		.uleb128 0xa
 308 017d 82030000 		.4byte	.LASF20
 309 0181 04       		.byte	0x4
 310 0182 A5       		.byte	0xa5
 311 0183 B5000000 		.4byte	0xb5
 312 0187 58       		.byte	0x58
 313 0188 0A       		.uleb128 0xa
 314 0189 08010000 		.4byte	.LASF21
 315 018d 04       		.byte	0x4
 316 018e A6       		.byte	0xa6
 317 018f B5000000 		.4byte	0xb5
 318 0193 5C       		.byte	0x5c
 319 0194 0A       		.uleb128 0xa
 320 0195 95030000 		.4byte	.LASF22
 321 0199 04       		.byte	0x4
 322 019a A7       		.byte	0xa7
 323 019b B5000000 		.4byte	0xb5
 324 019f 60       		.byte	0x60
 325 01a0 0A       		.uleb128 0xa
 326 01a1 60030000 		.4byte	.LASF23
 327 01a5 04       		.byte	0x4
 328 01a6 A8       		.byte	0xa8
 329 01a7 B5000000 		.4byte	0xb5
 330 01ab 64       		.byte	0x64
 331 01ac 0A       		.uleb128 0xa
 332 01ad 72020000 		.4byte	.LASF24
 333 01b1 04       		.byte	0x4
 334 01b2 A9       		.byte	0xa9
 335 01b3 F90D0000 		.4byte	0xdf9
 336 01b7 68       		.byte	0x68
 337 01b8 0A       		.uleb128 0xa
 338 01b9 F2080000 		.4byte	.LASF25
ARM GAS  /tmp/ccB6GPXT.s 			page 7


 339 01bd 04       		.byte	0x4
 340 01be AA       		.byte	0xaa
 341 01bf B5000000 		.4byte	0xb5
 342 01c3 7C       		.byte	0x7c
 343 01c4 0A       		.uleb128 0xa
 344 01c5 F9010000 		.4byte	.LASF26
 345 01c9 04       		.byte	0x4
 346 01ca AB       		.byte	0xab
 347 01cb 030E0000 		.4byte	0xe03
 348 01cf 80       		.byte	0x80
 349 01d0 0A       		.uleb128 0xa
 350 01d1 E3030000 		.4byte	.LASF27
 351 01d5 04       		.byte	0x4
 352 01d6 AC       		.byte	0xac
 353 01d7 B5000000 		.4byte	0xb5
 354 01db B0       		.byte	0xb0
 355 01dc 0A       		.uleb128 0xa
 356 01dd 7C020000 		.4byte	.LASF28
 357 01e1 04       		.byte	0x4
 358 01e2 AD       		.byte	0xad
 359 01e3 1D0E0000 		.4byte	0xe1d
 360 01e7 B4       		.byte	0xb4
 361 01e8 0A       		.uleb128 0xa
 362 01e9 8F020000 		.4byte	.LASF29
 363 01ed 04       		.byte	0x4
 364 01ee AE       		.byte	0xae
 365 01ef B5000000 		.4byte	0xb5
 366 01f3 C0       		.byte	0xc0
 367 01f4 0A       		.uleb128 0xa
 368 01f5 03020000 		.4byte	.LASF30
 369 01f9 04       		.byte	0x4
 370 01fa AF       		.byte	0xaf
 371 01fb 270E0000 		.4byte	0xe27
 372 01ff C4       		.byte	0xc4
 373 0200 0C       		.uleb128 0xc
 374 0201 D5000000 		.4byte	.LASF31
 375 0205 04       		.byte	0x4
 376 0206 B0       		.byte	0xb0
 377 0207 B5000000 		.4byte	0xb5
 378 020b 3801     		.2byte	0x138
 379 020d 0C       		.uleb128 0xc
 380 020e 0D020000 		.4byte	.LASF32
 381 0212 04       		.byte	0x4
 382 0213 B1       		.byte	0xb1
 383 0214 310E0000 		.4byte	0xe31
 384 0218 3C01     		.2byte	0x13c
 385 021a 0C       		.uleb128 0xc
 386 021b 95090000 		.4byte	.LASF33
 387 021f 04       		.byte	0x4
 388 0220 B2       		.byte	0xb2
 389 0221 B5000000 		.4byte	0xb5
 390 0225 4401     		.2byte	0x144
 391 0227 0C       		.uleb128 0xc
 392 0228 BB030000 		.4byte	.LASF34
 393 022c 04       		.byte	0x4
 394 022d B3       		.byte	0xb3
 395 022e B5000000 		.4byte	0xb5
ARM GAS  /tmp/ccB6GPXT.s 			page 8


 396 0232 4801     		.2byte	0x148
 397 0234 0C       		.uleb128 0xc
 398 0235 B3000000 		.4byte	.LASF35
 399 0239 04       		.byte	0x4
 400 023a B4       		.byte	0xb4
 401 023b BA000000 		.4byte	0xba
 402 023f 4C01     		.2byte	0x14c
 403 0241 0C       		.uleb128 0xc
 404 0242 CF060000 		.4byte	.LASF36
 405 0246 04       		.byte	0x4
 406 0247 B5       		.byte	0xb5
 407 0248 B5000000 		.4byte	0xb5
 408 024c 5001     		.2byte	0x150
 409 024e 0C       		.uleb128 0xc
 410 024f DF000000 		.4byte	.LASF37
 411 0253 04       		.byte	0x4
 412 0254 B6       		.byte	0xb6
 413 0255 BA000000 		.4byte	0xba
 414 0259 5401     		.2byte	0x154
 415 025b 0C       		.uleb128 0xc
 416 025c 17020000 		.4byte	.LASF38
 417 0260 04       		.byte	0x4
 418 0261 B7       		.byte	0xb7
 419 0262 3B0E0000 		.4byte	0xe3b
 420 0266 5801     		.2byte	0x158
 421 0268 0C       		.uleb128 0xc
 422 0269 B2020000 		.4byte	.LASF39
 423 026d 04       		.byte	0x4
 424 026e B8       		.byte	0xb8
 425 026f B5000000 		.4byte	0xb5
 426 0273 6001     		.2byte	0x160
 427 0275 0C       		.uleb128 0xc
 428 0276 BB020000 		.4byte	.LASF40
 429 027a 04       		.byte	0x4
 430 027b B9       		.byte	0xb9
 431 027c B5000000 		.4byte	0xb5
 432 0280 6401     		.2byte	0x164
 433 0282 0C       		.uleb128 0xc
 434 0283 78010000 		.4byte	.LASF41
 435 0287 04       		.byte	0x4
 436 0288 BA       		.byte	0xba
 437 0289 BA000000 		.4byte	0xba
 438 028d 6801     		.2byte	0x168
 439 028f 0C       		.uleb128 0xc
 440 0290 21020000 		.4byte	.LASF42
 441 0294 04       		.byte	0x4
 442 0295 BB       		.byte	0xbb
 443 0296 550E0000 		.4byte	0xe55
 444 029a 6C01     		.2byte	0x16c
 445 029c 0C       		.uleb128 0xc
 446 029d 1E000000 		.4byte	.LASF43
 447 02a1 04       		.byte	0x4
 448 02a2 BC       		.byte	0xbc
 449 02a3 B5000000 		.4byte	0xb5
 450 02a7 8801     		.2byte	0x188
 451 02a9 0C       		.uleb128 0xc
 452 02aa CA000000 		.4byte	.LASF44
ARM GAS  /tmp/ccB6GPXT.s 			page 9


 453 02ae 04       		.byte	0x4
 454 02af BD       		.byte	0xbd
 455 02b0 B5000000 		.4byte	0xb5
 456 02b4 8C01     		.2byte	0x18c
 457 02b6 0C       		.uleb128 0xc
 458 02b7 2B020000 		.4byte	.LASF45
 459 02bb 04       		.byte	0x4
 460 02bc BE       		.byte	0xbe
 461 02bd 5F0E0000 		.4byte	0xe5f
 462 02c1 9001     		.2byte	0x190
 463 02c3 0C       		.uleb128 0xc
 464 02c4 75000000 		.4byte	.LASF46
 465 02c8 04       		.byte	0x4
 466 02c9 BF       		.byte	0xbf
 467 02ca BA000000 		.4byte	0xba
 468 02ce A001     		.2byte	0x1a0
 469 02d0 0C       		.uleb128 0xc
 470 02d1 35020000 		.4byte	.LASF47
 471 02d5 04       		.byte	0x4
 472 02d6 C0       		.byte	0xc0
 473 02d7 690E0000 		.4byte	0xe69
 474 02db A401     		.2byte	0x1a4
 475 02dd 0C       		.uleb128 0xc
 476 02de F8070000 		.4byte	.LASF48
 477 02e2 04       		.byte	0x4
 478 02e3 C1       		.byte	0xc1
 479 02e4 B5000000 		.4byte	0xb5
 480 02e8 B401     		.2byte	0x1b4
 481 02ea 0C       		.uleb128 0xc
 482 02eb 4E020000 		.4byte	.LASF49
 483 02ef 04       		.byte	0x4
 484 02f0 C2       		.byte	0xc2
 485 02f1 BA000000 		.4byte	0xba
 486 02f5 B801     		.2byte	0x1b8
 487 02f7 0C       		.uleb128 0xc
 488 02f8 80010000 		.4byte	.LASF50
 489 02fc 04       		.byte	0x4
 490 02fd C3       		.byte	0xc3
 491 02fe B5000000 		.4byte	0xb5
 492 0302 BC01     		.2byte	0x1bc
 493 0304 0C       		.uleb128 0xc
 494 0305 6B040000 		.4byte	.LASF51
 495 0309 04       		.byte	0x4
 496 030a C4       		.byte	0xc4
 497 030b BA000000 		.4byte	0xba
 498 030f C001     		.2byte	0x1c0
 499 0311 0C       		.uleb128 0xc
 500 0312 4B050000 		.4byte	.LASF52
 501 0316 04       		.byte	0x4
 502 0317 C5       		.byte	0xc5
 503 0318 730E0000 		.4byte	0xe73
 504 031c C401     		.2byte	0x1c4
 505 031e 0C       		.uleb128 0xc
 506 031f E9020000 		.4byte	.LASF53
 507 0323 04       		.byte	0x4
 508 0324 C6       		.byte	0xc6
 509 0325 BA000000 		.4byte	0xba
ARM GAS  /tmp/ccB6GPXT.s 			page 10


 510 0329 CC01     		.2byte	0x1cc
 511 032b 0C       		.uleb128 0xc
 512 032c 56050000 		.4byte	.LASF54
 513 0330 04       		.byte	0x4
 514 0331 C7       		.byte	0xc7
 515 0332 7D0E0000 		.4byte	0xe7d
 516 0336 D001     		.2byte	0x1d0
 517 0338 0C       		.uleb128 0xc
 518 0339 99000000 		.4byte	.LASF55
 519 033d 04       		.byte	0x4
 520 033e C8       		.byte	0xc8
 521 033f B5000000 		.4byte	0xb5
 522 0343 D801     		.2byte	0x1d8
 523 0345 0C       		.uleb128 0xc
 524 0346 61050000 		.4byte	.LASF56
 525 034a 04       		.byte	0x4
 526 034b C9       		.byte	0xc9
 527 034c 870E0000 		.4byte	0xe87
 528 0350 DC01     		.2byte	0x1dc
 529 0352 0C       		.uleb128 0xc
 530 0353 FA080000 		.4byte	.LASF57
 531 0357 04       		.byte	0x4
 532 0358 CA       		.byte	0xca
 533 0359 B5000000 		.4byte	0xb5
 534 035d F401     		.2byte	0x1f4
 535 035f 0C       		.uleb128 0xc
 536 0360 06030000 		.4byte	.LASF58
 537 0364 04       		.byte	0x4
 538 0365 CB       		.byte	0xcb
 539 0366 A10E0000 		.4byte	0xea1
 540 036a F801     		.2byte	0x1f8
 541 036c 0C       		.uleb128 0xc
 542 036d CD040000 		.4byte	.LASF59
 543 0371 04       		.byte	0x4
 544 0372 CC       		.byte	0xcc
 545 0373 BA000000 		.4byte	0xba
 546 0377 8002     		.2byte	0x280
 547 0379 0C       		.uleb128 0xc
 548 037a 46030000 		.4byte	.LASF60
 549 037e 04       		.byte	0x4
 550 037f CD       		.byte	0xcd
 551 0380 B5000000 		.4byte	0xb5
 552 0384 8402     		.2byte	0x284
 553 0386 0C       		.uleb128 0xc
 554 0387 C1070000 		.4byte	.LASF61
 555 038b 04       		.byte	0x4
 556 038c CE       		.byte	0xce
 557 038d BA000000 		.4byte	0xba
 558 0391 8802     		.2byte	0x288
 559 0393 0C       		.uleb128 0xc
 560 0394 E2040000 		.4byte	.LASF62
 561 0398 04       		.byte	0x4
 562 0399 CF       		.byte	0xcf
 563 039a B5000000 		.4byte	0xb5
 564 039e 8C02     		.2byte	0x28c
 565 03a0 0C       		.uleb128 0xc
 566 03a1 6C050000 		.4byte	.LASF63
ARM GAS  /tmp/ccB6GPXT.s 			page 11


 567 03a5 04       		.byte	0x4
 568 03a6 D0       		.byte	0xd0
 569 03a7 AB0E0000 		.4byte	0xeab
 570 03ab 9002     		.2byte	0x290
 571 03ad 0C       		.uleb128 0xc
 572 03ae AD030000 		.4byte	.LASF64
 573 03b2 04       		.byte	0x4
 574 03b3 D1       		.byte	0xd1
 575 03b4 BA000000 		.4byte	0xba
 576 03b8 9802     		.2byte	0x298
 577 03ba 0C       		.uleb128 0xc
 578 03bb 47000000 		.4byte	.LASF65
 579 03bf 04       		.byte	0x4
 580 03c0 D2       		.byte	0xd2
 581 03c1 B5000000 		.4byte	0xb5
 582 03c5 9C02     		.2byte	0x29c
 583 03c7 0C       		.uleb128 0xc
 584 03c8 73090000 		.4byte	.LASF66
 585 03cc 04       		.byte	0x4
 586 03cd D3       		.byte	0xd3
 587 03ce BA000000 		.4byte	0xba
 588 03d2 A002     		.2byte	0x2a0
 589 03d4 0C       		.uleb128 0xc
 590 03d5 D0050000 		.4byte	.LASF67
 591 03d9 04       		.byte	0x4
 592 03da D4       		.byte	0xd4
 593 03db B5000000 		.4byte	0xb5
 594 03df A402     		.2byte	0x2a4
 595 03e1 0C       		.uleb128 0xc
 596 03e2 77050000 		.4byte	.LASF68
 597 03e6 04       		.byte	0x4
 598 03e7 D5       		.byte	0xd5
 599 03e8 C50E0000 		.4byte	0xec5
 600 03ec A802     		.2byte	0x2a8
 601 03ee 0C       		.uleb128 0xc
 602 03ef C3030000 		.4byte	.LASF69
 603 03f3 04       		.byte	0x4
 604 03f4 D6       		.byte	0xd6
 605 03f5 BA000000 		.4byte	0xba
 606 03f9 0003     		.2byte	0x300
 607 03fb 0C       		.uleb128 0xc
 608 03fc 52030000 		.4byte	.LASF70
 609 0400 04       		.byte	0x4
 610 0401 D7       		.byte	0xd7
 611 0402 BA000000 		.4byte	0xba
 612 0406 0403     		.2byte	0x304
 613 0408 0C       		.uleb128 0xc
 614 0409 57000000 		.4byte	.LASF71
 615 040d 04       		.byte	0x4
 616 040e D8       		.byte	0xd8
 617 040f BA000000 		.4byte	0xba
 618 0413 0803     		.2byte	0x308
 619 0415 0C       		.uleb128 0xc
 620 0416 C9070000 		.4byte	.LASF72
 621 041a 04       		.byte	0x4
 622 041b D9       		.byte	0xd9
 623 041c BA000000 		.4byte	0xba
ARM GAS  /tmp/ccB6GPXT.s 			page 12


 624 0420 0C03     		.2byte	0x30c
 625 0422 0C       		.uleb128 0xc
 626 0423 1C010000 		.4byte	.LASF73
 627 0427 04       		.byte	0x4
 628 0428 DA       		.byte	0xda
 629 0429 BA000000 		.4byte	0xba
 630 042d 1003     		.2byte	0x310
 631 042f 0C       		.uleb128 0xc
 632 0430 10040000 		.4byte	.LASF74
 633 0434 04       		.byte	0x4
 634 0435 DB       		.byte	0xdb
 635 0436 BA000000 		.4byte	0xba
 636 043a 1403     		.2byte	0x314
 637 043c 0C       		.uleb128 0xc
 638 043d 37030000 		.4byte	.LASF75
 639 0441 04       		.byte	0x4
 640 0442 DC       		.byte	0xdc
 641 0443 BA000000 		.4byte	0xba
 642 0447 1803     		.2byte	0x318
 643 0449 0C       		.uleb128 0xc
 644 044a 8C000000 		.4byte	.LASF76
 645 044e 04       		.byte	0x4
 646 044f DD       		.byte	0xdd
 647 0450 BA000000 		.4byte	0xba
 648 0454 1C03     		.2byte	0x31c
 649 0456 0C       		.uleb128 0xc
 650 0457 8F090000 		.4byte	.LASF77
 651 045b 04       		.byte	0x4
 652 045c DE       		.byte	0xde
 653 045d BA000000 		.4byte	0xba
 654 0461 2003     		.2byte	0x320
 655 0463 0C       		.uleb128 0xc
 656 0464 82050000 		.4byte	.LASF78
 657 0468 04       		.byte	0x4
 658 0469 DF       		.byte	0xdf
 659 046a CF0E0000 		.4byte	0xecf
 660 046e 2403     		.2byte	0x324
 661 0470 0C       		.uleb128 0xc
 662 0471 B5030000 		.4byte	.LASF79
 663 0475 04       		.byte	0x4
 664 0476 E0       		.byte	0xe0
 665 0477 BA000000 		.4byte	0xba
 666 047b 2803     		.2byte	0x328
 667 047d 0C       		.uleb128 0xc
 668 047e 8D050000 		.4byte	.LASF80
 669 0482 04       		.byte	0x4
 670 0483 E1       		.byte	0xe1
 671 0484 D90E0000 		.4byte	0xed9
 672 0488 2C03     		.2byte	0x32c
 673 048a 0C       		.uleb128 0xc
 674 048b CB090000 		.4byte	.LASF81
 675 048f 04       		.byte	0x4
 676 0490 E2       		.byte	0xe2
 677 0491 BA000000 		.4byte	0xba
 678 0495 3003     		.2byte	0x330
 679 0497 0C       		.uleb128 0xc
 680 0498 6C020000 		.4byte	.LASF82
ARM GAS  /tmp/ccB6GPXT.s 			page 13


 681 049c 04       		.byte	0x4
 682 049d E3       		.byte	0xe3
 683 049e BA000000 		.4byte	0xba
 684 04a2 3403     		.2byte	0x334
 685 04a4 0C       		.uleb128 0xc
 686 04a5 63090000 		.4byte	.LASF83
 687 04a9 04       		.byte	0x4
 688 04aa E4       		.byte	0xe4
 689 04ab BA000000 		.4byte	0xba
 690 04af 3803     		.2byte	0x338
 691 04b1 0C       		.uleb128 0xc
 692 04b2 09040000 		.4byte	.LASF84
 693 04b6 04       		.byte	0x4
 694 04b7 E5       		.byte	0xe5
 695 04b8 BA000000 		.4byte	0xba
 696 04bc 3C03     		.2byte	0x33c
 697 04be 0C       		.uleb128 0xc
 698 04bf B7040000 		.4byte	.LASF85
 699 04c3 04       		.byte	0x4
 700 04c4 E6       		.byte	0xe6
 701 04c5 BA000000 		.4byte	0xba
 702 04c9 4003     		.2byte	0x340
 703 04cb 0C       		.uleb128 0xc
 704 04cc A8010000 		.4byte	.LASF86
 705 04d0 04       		.byte	0x4
 706 04d1 E7       		.byte	0xe7
 707 04d2 BA000000 		.4byte	0xba
 708 04d6 4403     		.2byte	0x344
 709 04d8 0C       		.uleb128 0xc
 710 04d9 46040000 		.4byte	.LASF87
 711 04dd 04       		.byte	0x4
 712 04de E8       		.byte	0xe8
 713 04df BA000000 		.4byte	0xba
 714 04e3 4803     		.2byte	0x348
 715 04e5 0C       		.uleb128 0xc
 716 04e6 98050000 		.4byte	.LASF88
 717 04ea 04       		.byte	0x4
 718 04eb E9       		.byte	0xe9
 719 04ec E30E0000 		.4byte	0xee3
 720 04f0 4C03     		.2byte	0x34c
 721 04f2 0C       		.uleb128 0xc
 722 04f3 61010000 		.4byte	.LASF89
 723 04f7 04       		.byte	0x4
 724 04f8 EA       		.byte	0xea
 725 04f9 BA000000 		.4byte	0xba
 726 04fd 5003     		.2byte	0x350
 727 04ff 0C       		.uleb128 0xc
 728 0500 E4070000 		.4byte	.LASF90
 729 0504 04       		.byte	0x4
 730 0505 EB       		.byte	0xeb
 731 0506 BA000000 		.4byte	0xba
 732 050a 5403     		.2byte	0x354
 733 050c 0C       		.uleb128 0xc
 734 050d 3F020000 		.4byte	.LASF91
 735 0511 04       		.byte	0x4
 736 0512 EC       		.byte	0xec
 737 0513 BA000000 		.4byte	0xba
ARM GAS  /tmp/ccB6GPXT.s 			page 14


 738 0517 5803     		.2byte	0x358
 739 0519 0C       		.uleb128 0xc
 740 051a 7D000000 		.4byte	.LASF92
 741 051e 04       		.byte	0x4
 742 051f ED       		.byte	0xed
 743 0520 BA000000 		.4byte	0xba
 744 0524 5C03     		.2byte	0x35c
 745 0526 0C       		.uleb128 0xc
 746 0527 A3050000 		.4byte	.LASF93
 747 052b 04       		.byte	0x4
 748 052c EE       		.byte	0xee
 749 052d ED0E0000 		.4byte	0xeed
 750 0531 6003     		.2byte	0x360
 751 0533 0C       		.uleb128 0xc
 752 0534 E4080000 		.4byte	.LASF94
 753 0538 04       		.byte	0x4
 754 0539 EF       		.byte	0xef
 755 053a BA000000 		.4byte	0xba
 756 053e 7003     		.2byte	0x370
 757 0540 0C       		.uleb128 0xc
 758 0541 D4020000 		.4byte	.LASF95
 759 0545 04       		.byte	0x4
 760 0546 F0       		.byte	0xf0
 761 0547 BA000000 		.4byte	0xba
 762 054b 7403     		.2byte	0x374
 763 054d 0C       		.uleb128 0xc
 764 054e AE050000 		.4byte	.LASF96
 765 0552 04       		.byte	0x4
 766 0553 F1       		.byte	0xf1
 767 0554 F70E0000 		.4byte	0xef7
 768 0558 7803     		.2byte	0x378
 769 055a 0C       		.uleb128 0xc
 770 055b E9000000 		.4byte	.LASF97
 771 055f 04       		.byte	0x4
 772 0560 F2       		.byte	0xf2
 773 0561 BA000000 		.4byte	0xba
 774 0565 9003     		.2byte	0x390
 775 0567 0C       		.uleb128 0xc
 776 0568 D8050000 		.4byte	.LASF98
 777 056c 04       		.byte	0x4
 778 056d F3       		.byte	0xf3
 779 056e 010F0000 		.4byte	0xf01
 780 0572 9403     		.2byte	0x394
 781 0574 0C       		.uleb128 0xc
 782 0575 EA070000 		.4byte	.LASF99
 783 0579 04       		.byte	0x4
 784 057a F4       		.byte	0xf4
 785 057b BA000000 		.4byte	0xba
 786 057f 9803     		.2byte	0x398
 787 0581 0C       		.uleb128 0xc
 788 0582 54010000 		.4byte	.LASF100
 789 0586 04       		.byte	0x4
 790 0587 F5       		.byte	0xf5
 791 0588 BA000000 		.4byte	0xba
 792 058c 9C03     		.2byte	0x39c
 793 058e 0C       		.uleb128 0xc
 794 058f 8F030000 		.4byte	.LASF101
ARM GAS  /tmp/ccB6GPXT.s 			page 15


 795 0593 04       		.byte	0x4
 796 0594 F6       		.byte	0xf6
 797 0595 BA000000 		.4byte	0xba
 798 0599 A003     		.2byte	0x3a0
 799 059b 0C       		.uleb128 0xc
 800 059c 16040000 		.4byte	.LASF102
 801 05a0 04       		.byte	0x4
 802 05a1 F7       		.byte	0xf7
 803 05a2 BA000000 		.4byte	0xba
 804 05a6 A403     		.2byte	0x3a4
 805 05a8 0C       		.uleb128 0xc
 806 05a9 E3050000 		.4byte	.LASF103
 807 05ad 04       		.byte	0x4
 808 05ae F8       		.byte	0xf8
 809 05af 1B0F0000 		.4byte	0xf1b
 810 05b3 A803     		.2byte	0x3a8
 811 05b5 0C       		.uleb128 0xc
 812 05b6 4D030000 		.4byte	.LASF104
 813 05ba 04       		.byte	0x4
 814 05bb F9       		.byte	0xf9
 815 05bc B5000000 		.4byte	0xb5
 816 05c0 0005     		.2byte	0x500
 817 05c2 0C       		.uleb128 0xc
 818 05c3 89010000 		.4byte	.LASF105
 819 05c7 04       		.byte	0x4
 820 05c8 FA       		.byte	0xfa
 821 05c9 B5000000 		.4byte	0xb5
 822 05cd 0405     		.2byte	0x504
 823 05cf 0C       		.uleb128 0xc
 824 05d0 16080000 		.4byte	.LASF106
 825 05d4 04       		.byte	0x4
 826 05d5 FB       		.byte	0xfb
 827 05d6 B5000000 		.4byte	0xb5
 828 05da 0805     		.2byte	0x508
 829 05dc 0C       		.uleb128 0xc
 830 05dd 48020000 		.4byte	.LASF107
 831 05e1 04       		.byte	0x4
 832 05e2 FC       		.byte	0xfc
 833 05e3 B5000000 		.4byte	0xb5
 834 05e7 0C05     		.2byte	0x50c
 835 05e9 0C       		.uleb128 0xc
 836 05ea 3D050000 		.4byte	.LASF108
 837 05ee 04       		.byte	0x4
 838 05ef FD       		.byte	0xfd
 839 05f0 B5000000 		.4byte	0xb5
 840 05f4 1005     		.2byte	0x510
 841 05f6 0C       		.uleb128 0xc
 842 05f7 86000000 		.4byte	.LASF109
 843 05fb 04       		.byte	0x4
 844 05fc FE       		.byte	0xfe
 845 05fd B5000000 		.4byte	0xb5
 846 0601 1405     		.2byte	0x514
 847 0603 0C       		.uleb128 0xc
 848 0604 57020000 		.4byte	.LASF110
 849 0608 04       		.byte	0x4
 850 0609 FF       		.byte	0xff
 851 060a B5000000 		.4byte	0xb5
ARM GAS  /tmp/ccB6GPXT.s 			page 16


 852 060e 1805     		.2byte	0x518
 853 0610 0D       		.uleb128 0xd
 854 0611 D4040000 		.4byte	.LASF111
 855 0615 04       		.byte	0x4
 856 0616 0001     		.2byte	0x100
 857 0618 B5000000 		.4byte	0xb5
 858 061c 1C05     		.2byte	0x51c
 859 061e 0D       		.uleb128 0xd
 860 061f 03040000 		.4byte	.LASF112
 861 0623 04       		.byte	0x4
 862 0624 0101     		.2byte	0x101
 863 0626 B5000000 		.4byte	0xb5
 864 062a 2005     		.2byte	0x520
 865 062c 0D       		.uleb128 0xd
 866 062d EE050000 		.4byte	.LASF113
 867 0631 04       		.byte	0x4
 868 0632 0201     		.2byte	0x102
 869 0634 250F0000 		.4byte	0xf25
 870 0638 2405     		.2byte	0x524
 871 063a 0D       		.uleb128 0xd
 872 063b 18000000 		.4byte	.LASF114
 873 063f 04       		.byte	0x4
 874 0640 0301     		.2byte	0x103
 875 0642 B5000000 		.4byte	0xb5
 876 0646 2805     		.2byte	0x528
 877 0648 0D       		.uleb128 0xd
 878 0649 F9050000 		.4byte	.LASF115
 879 064d 04       		.byte	0x4
 880 064e 0401     		.2byte	0x104
 881 0650 2F0F0000 		.4byte	0xf2f
 882 0654 2C05     		.2byte	0x52c
 883 0656 0D       		.uleb128 0xd
 884 0657 DD070000 		.4byte	.LASF116
 885 065b 04       		.byte	0x4
 886 065c 0501     		.2byte	0x105
 887 065e B5000000 		.4byte	0xb5
 888 0662 3005     		.2byte	0x530
 889 0664 0D       		.uleb128 0xd
 890 0665 E8060000 		.4byte	.LASF117
 891 0669 04       		.byte	0x4
 892 066a 0601     		.2byte	0x106
 893 066c B5000000 		.4byte	0xb5
 894 0670 3405     		.2byte	0x534
 895 0672 0D       		.uleb128 0xd
 896 0673 DD030000 		.4byte	.LASF118
 897 0677 04       		.byte	0x4
 898 0678 0701     		.2byte	0x107
 899 067a B5000000 		.4byte	0xb5
 900 067e 3805     		.2byte	0x538
 901 0680 0D       		.uleb128 0xd
 902 0681 2A030000 		.4byte	.LASF119
 903 0685 04       		.byte	0x4
 904 0686 0801     		.2byte	0x108
 905 0688 B5000000 		.4byte	0xb5
 906 068c 3C05     		.2byte	0x53c
 907 068e 0D       		.uleb128 0xd
 908 068f 0D010000 		.4byte	.LASF120
ARM GAS  /tmp/ccB6GPXT.s 			page 17


 909 0693 04       		.byte	0x4
 910 0694 0901     		.2byte	0x109
 911 0696 B5000000 		.4byte	0xb5
 912 069a 4005     		.2byte	0x540
 913 069c 0D       		.uleb128 0xd
 914 069d 4E060000 		.4byte	.LASF121
 915 06a1 04       		.byte	0x4
 916 06a2 0A01     		.2byte	0x10a
 917 06a4 B5000000 		.4byte	0xb5
 918 06a8 4405     		.2byte	0x544
 919 06aa 0D       		.uleb128 0xd
 920 06ab 04060000 		.4byte	.LASF122
 921 06af 04       		.byte	0x4
 922 06b0 0B01     		.2byte	0x10b
 923 06b2 390F0000 		.4byte	0xf39
 924 06b6 4805     		.2byte	0x548
 925 06b8 0D       		.uleb128 0xd
 926 06b9 62040000 		.4byte	.LASF123
 927 06bd 04       		.byte	0x4
 928 06be 0C01     		.2byte	0x10c
 929 06c0 B5000000 		.4byte	0xb5
 930 06c4 5805     		.2byte	0x558
 931 06c6 0D       		.uleb128 0xd
 932 06c7 0F060000 		.4byte	.LASF124
 933 06cb 04       		.byte	0x4
 934 06cc 0D01     		.2byte	0x10d
 935 06ce 430F0000 		.4byte	0xf43
 936 06d2 5C05     		.2byte	0x55c
 937 06d4 0D       		.uleb128 0xd
 938 06d5 F2070000 		.4byte	.LASF125
 939 06d9 04       		.byte	0x4
 940 06da 0E01     		.2byte	0x10e
 941 06dc B5000000 		.4byte	0xb5
 942 06e0 7405     		.2byte	0x574
 943 06e2 0D       		.uleb128 0xd
 944 06e3 1A060000 		.4byte	.LASF126
 945 06e7 04       		.byte	0x4
 946 06e8 0F01     		.2byte	0x10f
 947 06ea 5D0F0000 		.4byte	0xf5d
 948 06ee 7805     		.2byte	0x578
 949 06f0 0D       		.uleb128 0xd
 950 06f1 11000000 		.4byte	.LASF127
 951 06f5 04       		.byte	0x4
 952 06f6 1001     		.2byte	0x110
 953 06f8 B5000000 		.4byte	0xb5
 954 06fc 9C05     		.2byte	0x59c
 955 06fe 0D       		.uleb128 0xd
 956 06ff 25060000 		.4byte	.LASF128
 957 0703 04       		.byte	0x4
 958 0704 1101     		.2byte	0x111
 959 0706 670F0000 		.4byte	0xf67
 960 070a A005     		.2byte	0x5a0
 961 070c 0D       		.uleb128 0xd
 962 070d 9B030000 		.4byte	.LASF129
 963 0711 04       		.byte	0x4
 964 0712 1201     		.2byte	0x112
 965 0714 B5000000 		.4byte	0xb5
ARM GAS  /tmp/ccB6GPXT.s 			page 18


 966 0718 0006     		.2byte	0x600
 967 071a 0D       		.uleb128 0xd
 968 071b 93040000 		.4byte	.LASF130
 969 071f 04       		.byte	0x4
 970 0720 1301     		.2byte	0x113
 971 0722 B5000000 		.4byte	0xb5
 972 0726 0406     		.2byte	0x604
 973 0728 0D       		.uleb128 0xd
 974 0729 84040000 		.4byte	.LASF131
 975 072d 04       		.byte	0x4
 976 072e 1401     		.2byte	0x114
 977 0730 B5000000 		.4byte	0xb5
 978 0734 0806     		.2byte	0x608
 979 0736 0D       		.uleb128 0xd
 980 0737 DA040000 		.4byte	.LASF132
 981 073b 04       		.byte	0x4
 982 073c 1501     		.2byte	0x115
 983 073e B5000000 		.4byte	0xb5
 984 0742 0C06     		.2byte	0x60c
 985 0744 0D       		.uleb128 0xd
 986 0745 08090000 		.4byte	.LASF133
 987 0749 04       		.byte	0x4
 988 074a 1601     		.2byte	0x116
 989 074c B5000000 		.4byte	0xb5
 990 0750 1006     		.2byte	0x610
 991 0752 0D       		.uleb128 0xd
 992 0753 CC020000 		.4byte	.LASF134
 993 0757 04       		.byte	0x4
 994 0758 1701     		.2byte	0x117
 995 075a B5000000 		.4byte	0xb5
 996 075e 1406     		.2byte	0x614
 997 0760 0D       		.uleb128 0xd
 998 0761 FF080000 		.4byte	.LASF135
 999 0765 04       		.byte	0x4
 1000 0766 1801     		.2byte	0x118
 1001 0768 B5000000 		.4byte	0xb5
 1002 076c 1806     		.2byte	0x618
 1003 076e 0D       		.uleb128 0xd
 1004 076f CF070000 		.4byte	.LASF136
 1005 0773 04       		.byte	0x4
 1006 0774 1901     		.2byte	0x119
 1007 0776 B5000000 		.4byte	0xb5
 1008 077a 1C06     		.2byte	0x61c
 1009 077c 0D       		.uleb128 0xd
 1010 077d 46060000 		.4byte	.LASF137
 1011 0781 04       		.byte	0x4
 1012 0782 1A01     		.2byte	0x11a
 1013 0784 B5000000 		.4byte	0xb5
 1014 0788 2006     		.2byte	0x620
 1015 078a 0D       		.uleb128 0xd
 1016 078b 30060000 		.4byte	.LASF138
 1017 078f 04       		.byte	0x4
 1018 0790 1B01     		.2byte	0x11b
 1019 0792 710F0000 		.4byte	0xf71
 1020 0796 2406     		.2byte	0x624
 1021 0798 0D       		.uleb128 0xd
 1022 0799 5E020000 		.4byte	.LASF139
ARM GAS  /tmp/ccB6GPXT.s 			page 19


 1023 079d 04       		.byte	0x4
 1024 079e 1C01     		.2byte	0x11c
 1025 07a0 B5000000 		.4byte	0xb5
 1026 07a4 2806     		.2byte	0x628
 1027 07a6 0D       		.uleb128 0xd
 1028 07a7 3B060000 		.4byte	.LASF140
 1029 07ab 04       		.byte	0x4
 1030 07ac 1D01     		.2byte	0x11d
 1031 07ae 7B0F0000 		.4byte	0xf7b
 1032 07b2 2C06     		.2byte	0x62c
 1033 07b4 0D       		.uleb128 0xd
 1034 07b5 36040000 		.4byte	.LASF141
 1035 07b9 04       		.byte	0x4
 1036 07ba 1E01     		.2byte	0x11e
 1037 07bc B5000000 		.4byte	0xb5
 1038 07c0 3006     		.2byte	0x630
 1039 07c2 0D       		.uleb128 0xd
 1040 07c3 3F000000 		.4byte	.LASF142
 1041 07c7 04       		.byte	0x4
 1042 07c8 1F01     		.2byte	0x11f
 1043 07ca B5000000 		.4byte	0xb5
 1044 07ce 3406     		.2byte	0x634
 1045 07d0 0D       		.uleb128 0xd
 1046 07d1 C1050000 		.4byte	.LASF143
 1047 07d5 04       		.byte	0x4
 1048 07d6 2001     		.2byte	0x120
 1049 07d8 B5000000 		.4byte	0xb5
 1050 07dc 3806     		.2byte	0x638
 1051 07de 0D       		.uleb128 0xd
 1052 07df 86020000 		.4byte	.LASF144
 1053 07e3 04       		.byte	0x4
 1054 07e4 2101     		.2byte	0x121
 1055 07e6 B5000000 		.4byte	0xb5
 1056 07ea 3C06     		.2byte	0x63c
 1057 07ec 0D       		.uleb128 0xd
 1058 07ed 22030000 		.4byte	.LASF145
 1059 07f1 04       		.byte	0x4
 1060 07f2 2201     		.2byte	0x122
 1061 07f4 B5000000 		.4byte	0xb5
 1062 07f8 4006     		.2byte	0x640
 1063 07fa 0D       		.uleb128 0xd
 1064 07fb B7090000 		.4byte	.LASF146
 1065 07ff 04       		.byte	0x4
 1066 0800 2301     		.2byte	0x123
 1067 0802 B5000000 		.4byte	0xb5
 1068 0806 4406     		.2byte	0x644
 1069 0808 0D       		.uleb128 0xd
 1070 0809 5A060000 		.4byte	.LASF147
 1071 080d 04       		.byte	0x4
 1072 080e 2401     		.2byte	0x124
 1073 0810 850F0000 		.4byte	0xf85
 1074 0814 4806     		.2byte	0x648
 1075 0816 0D       		.uleb128 0xd
 1076 0817 AC040000 		.4byte	.LASF148
 1077 081b 04       		.byte	0x4
 1078 081c 2501     		.2byte	0x125
 1079 081e B5000000 		.4byte	0xb5
ARM GAS  /tmp/ccB6GPXT.s 			page 20


 1080 0822 5806     		.2byte	0x658
 1081 0824 0D       		.uleb128 0xd
 1082 0825 65060000 		.4byte	.LASF149
 1083 0829 04       		.byte	0x4
 1084 082a 2601     		.2byte	0x126
 1085 082c 8F0F0000 		.4byte	0xf8f
 1086 0830 5C06     		.2byte	0x65c
 1087 0832 0D       		.uleb128 0xd
 1088 0833 06080000 		.4byte	.LASF150
 1089 0837 04       		.byte	0x4
 1090 0838 2701     		.2byte	0x127
 1091 083a B5000000 		.4byte	0xb5
 1092 083e 7406     		.2byte	0x674
 1093 0840 0D       		.uleb128 0xd
 1094 0841 70060000 		.4byte	.LASF151
 1095 0845 04       		.byte	0x4
 1096 0846 2801     		.2byte	0x128
 1097 0848 990F0000 		.4byte	0xf99
 1098 084c 7806     		.2byte	0x678
 1099 084e 0D       		.uleb128 0xd
 1100 084f 2B050000 		.4byte	.LASF152
 1101 0853 04       		.byte	0x4
 1102 0854 2901     		.2byte	0x129
 1103 0856 B5000000 		.4byte	0xb5
 1104 085a 9C06     		.2byte	0x69c
 1105 085c 0D       		.uleb128 0xd
 1106 085d 7B060000 		.4byte	.LASF153
 1107 0861 04       		.byte	0x4
 1108 0862 2A01     		.2byte	0x12a
 1109 0864 A30F0000 		.4byte	0xfa3
 1110 0868 A006     		.2byte	0x6a0
 1111 086a 0D       		.uleb128 0xd
 1112 086b 6E000000 		.4byte	.LASF154
 1113 086f 04       		.byte	0x4
 1114 0870 2B01     		.2byte	0x12b
 1115 0872 B5000000 		.4byte	0xb5
 1116 0876 0007     		.2byte	0x700
 1117 0878 0D       		.uleb128 0xd
 1118 0879 EE060000 		.4byte	.LASF155
 1119 087d 04       		.byte	0x4
 1120 087e 2C01     		.2byte	0x12c
 1121 0880 B5000000 		.4byte	0xb5
 1122 0884 0407     		.2byte	0x704
 1123 0886 0D       		.uleb128 0xd
 1124 0887 B5010000 		.4byte	.LASF156
 1125 088b 04       		.byte	0x4
 1126 088c 2D01     		.2byte	0x12d
 1127 088e B5000000 		.4byte	0xb5
 1128 0892 0807     		.2byte	0x708
 1129 0894 0D       		.uleb128 0xd
 1130 0895 FF040000 		.4byte	.LASF157
 1131 0899 04       		.byte	0x4
 1132 089a 2E01     		.2byte	0x12e
 1133 089c B5000000 		.4byte	0xb5
 1134 08a0 0C07     		.2byte	0x70c
 1135 08a2 0D       		.uleb128 0xd
 1136 08a3 A6090000 		.4byte	.LASF158
ARM GAS  /tmp/ccB6GPXT.s 			page 21


 1137 08a7 04       		.byte	0x4
 1138 08a8 2F01     		.2byte	0x12f
 1139 08aa B5000000 		.4byte	0xb5
 1140 08ae 1007     		.2byte	0x710
 1141 08b0 0D       		.uleb128 0xd
 1142 08b1 F6020000 		.4byte	.LASF159
 1143 08b5 04       		.byte	0x4
 1144 08b6 3001     		.2byte	0x130
 1145 08b8 B5000000 		.4byte	0xb5
 1146 08bc 1407     		.2byte	0x714
 1147 08be 0D       		.uleb128 0xd
 1148 08bf 59040000 		.4byte	.LASF160
 1149 08c3 04       		.byte	0x4
 1150 08c4 3101     		.2byte	0x131
 1151 08c6 B5000000 		.4byte	0xb5
 1152 08ca 1807     		.2byte	0x718
 1153 08cc 0D       		.uleb128 0xd
 1154 08cd 1D080000 		.4byte	.LASF161
 1155 08d1 04       		.byte	0x4
 1156 08d2 3201     		.2byte	0x132
 1157 08d4 B5000000 		.4byte	0xb5
 1158 08d8 1C07     		.2byte	0x71c
 1159 08da 0D       		.uleb128 0xd
 1160 08db E0060000 		.4byte	.LASF162
 1161 08df 04       		.byte	0x4
 1162 08e0 3301     		.2byte	0x133
 1163 08e2 B5000000 		.4byte	0xb5
 1164 08e6 2007     		.2byte	0x720
 1165 08e8 0D       		.uleb128 0xd
 1166 08e9 86060000 		.4byte	.LASF163
 1167 08ed 04       		.byte	0x4
 1168 08ee 3401     		.2byte	0x134
 1169 08f0 AD0F0000 		.4byte	0xfad
 1170 08f4 2407     		.2byte	0x724
 1171 08f6 0D       		.uleb128 0xd
 1172 08f7 C4020000 		.4byte	.LASF164
 1173 08fb 04       		.byte	0x4
 1174 08fc 3501     		.2byte	0x135
 1175 08fe B5000000 		.4byte	0xb5
 1176 0902 2807     		.2byte	0x728
 1177 0904 0D       		.uleb128 0xd
 1178 0905 91060000 		.4byte	.LASF165
 1179 0909 04       		.byte	0x4
 1180 090a 3601     		.2byte	0x136
 1181 090c B70F0000 		.4byte	0xfb7
 1182 0910 2C07     		.2byte	0x72c
 1183 0912 0D       		.uleb128 0xd
 1184 0913 6F010000 		.4byte	.LASF166
 1185 0917 04       		.byte	0x4
 1186 0918 3701     		.2byte	0x137
 1187 091a B5000000 		.4byte	0xb5
 1188 091e 3007     		.2byte	0x730
 1189 0920 0D       		.uleb128 0xd
 1190 0921 AB000000 		.4byte	.LASF167
 1191 0925 04       		.byte	0x4
 1192 0926 3801     		.2byte	0x138
 1193 0928 B5000000 		.4byte	0xb5
ARM GAS  /tmp/ccB6GPXT.s 			page 22


 1194 092c 3407     		.2byte	0x734
 1195 092e 0D       		.uleb128 0xd
 1196 092f 3E030000 		.4byte	.LASF168
 1197 0933 04       		.byte	0x4
 1198 0934 3901     		.2byte	0x139
 1199 0936 B5000000 		.4byte	0xb5
 1200 093a 3807     		.2byte	0x738
 1201 093c 0D       		.uleb128 0xd
 1202 093d 34050000 		.4byte	.LASF169
 1203 0941 04       		.byte	0x4
 1204 0942 3A01     		.2byte	0x13a
 1205 0944 B5000000 		.4byte	0xb5
 1206 0948 3C07     		.2byte	0x73c
 1207 094a 0D       		.uleb128 0xd
 1208 094b 87030000 		.4byte	.LASF170
 1209 094f 04       		.byte	0x4
 1210 0950 3B01     		.2byte	0x13b
 1211 0952 B5000000 		.4byte	0xb5
 1212 0956 4007     		.2byte	0x740
 1213 0958 0D       		.uleb128 0xd
 1214 0959 4F000000 		.4byte	.LASF171
 1215 095d 04       		.byte	0x4
 1216 095e 3C01     		.2byte	0x13c
 1217 0960 B5000000 		.4byte	0xb5
 1218 0964 4407     		.2byte	0x744
 1219 0966 0D       		.uleb128 0xd
 1220 0967 9C060000 		.4byte	.LASF172
 1221 096b 04       		.byte	0x4
 1222 096c 3D01     		.2byte	0x13d
 1223 096e C10F0000 		.4byte	0xfc1
 1224 0972 4807     		.2byte	0x748
 1225 0974 0D       		.uleb128 0xd
 1226 0975 77030000 		.4byte	.LASF173
 1227 0979 04       		.byte	0x4
 1228 097a 3E01     		.2byte	0x13e
 1229 097c B5000000 		.4byte	0xb5
 1230 0980 5807     		.2byte	0x758
 1231 0982 0D       		.uleb128 0xd
 1232 0983 A7060000 		.4byte	.LASF174
 1233 0987 04       		.byte	0x4
 1234 0988 3F01     		.2byte	0x13f
 1235 098a CB0F0000 		.4byte	0xfcb
 1236 098e 5C07     		.2byte	0x75c
 1237 0990 0D       		.uleb128 0xd
 1238 0991 22010000 		.4byte	.LASF175
 1239 0995 04       		.byte	0x4
 1240 0996 4001     		.2byte	0x140
 1241 0998 B5000000 		.4byte	0xb5
 1242 099c 7407     		.2byte	0x774
 1243 099e 0D       		.uleb128 0xd
 1244 099f B2060000 		.4byte	.LASF176
 1245 09a3 04       		.byte	0x4
 1246 09a4 4101     		.2byte	0x141
 1247 09a6 D50F0000 		.4byte	0xfd5
 1248 09aa 7807     		.2byte	0x778
 1249 09ac 0D       		.uleb128 0xd
 1250 09ad DA020000 		.4byte	.LASF177
ARM GAS  /tmp/ccB6GPXT.s 			page 23


 1251 09b1 04       		.byte	0x4
 1252 09b2 4201     		.2byte	0x142
 1253 09b4 B5000000 		.4byte	0xb5
 1254 09b8 9C07     		.2byte	0x79c
 1255 09ba 0D       		.uleb128 0xd
 1256 09bb BD060000 		.4byte	.LASF178
 1257 09bf 04       		.byte	0x4
 1258 09c0 4301     		.2byte	0x143
 1259 09c2 DF0F0000 		.4byte	0xfdf
 1260 09c6 A007     		.2byte	0x7a0
 1261 09c8 0D       		.uleb128 0xd
 1262 09c9 3F040000 		.4byte	.LASF179
 1263 09cd 04       		.byte	0x4
 1264 09ce 4401     		.2byte	0x144
 1265 09d0 B5000000 		.4byte	0xb5
 1266 09d4 0008     		.2byte	0x800
 1267 09d6 0D       		.uleb128 0xd
 1268 09d7 C8030000 		.4byte	.LASF180
 1269 09db 04       		.byte	0x4
 1270 09dc 4501     		.2byte	0x145
 1271 09de B5000000 		.4byte	0xb5
 1272 09e2 0408     		.2byte	0x804
 1273 09e4 0D       		.uleb128 0xd
 1274 09e5 28000000 		.4byte	.LASF181
 1275 09e9 04       		.byte	0x4
 1276 09ea 4601     		.2byte	0x146
 1277 09ec B5000000 		.4byte	0xb5
 1278 09f0 0808     		.2byte	0x808
 1279 09f2 0D       		.uleb128 0xd
 1280 09f3 BD040000 		.4byte	.LASF182
 1281 09f7 04       		.byte	0x4
 1282 09f8 4801     		.2byte	0x148
 1283 09fa B5000000 		.4byte	0xb5
 1284 09fe 0C08     		.2byte	0x80c
 1285 0a00 0D       		.uleb128 0xd
 1286 0a01 EA080000 		.4byte	.LASF183
 1287 0a05 04       		.byte	0x4
 1288 0a06 4A01     		.2byte	0x14a
 1289 0a08 B5000000 		.4byte	0xb5
 1290 0a0c 1008     		.2byte	0x810
 1291 0a0e 0D       		.uleb128 0xd
 1292 0a0f A2020000 		.4byte	.LASF184
 1293 0a13 04       		.byte	0x4
 1294 0a14 4B01     		.2byte	0x14b
 1295 0a16 B5000000 		.4byte	0xb5
 1296 0a1a 1408     		.2byte	0x814
 1297 0a1c 0D       		.uleb128 0xd
 1298 0a1d 0F030000 		.4byte	.LASF185
 1299 0a21 04       		.byte	0x4
 1300 0a22 4C01     		.2byte	0x14c
 1301 0a24 B5000000 		.4byte	0xb5
 1302 0a28 1808     		.2byte	0x818
 1303 0a2a 0D       		.uleb128 0xd
 1304 0a2b 70070000 		.4byte	.LASF186
 1305 0a2f 04       		.byte	0x4
 1306 0a30 4E01     		.2byte	0x14e
 1307 0a32 B5000000 		.4byte	0xb5
ARM GAS  /tmp/ccB6GPXT.s 			page 24


 1308 0a36 1C08     		.2byte	0x81c
 1309 0a38 0D       		.uleb128 0xd
 1310 0a39 B9050000 		.4byte	.LASF187
 1311 0a3d 04       		.byte	0x4
 1312 0a3e 4F01     		.2byte	0x14f
 1313 0a40 B5000000 		.4byte	0xb5
 1314 0a44 2008     		.2byte	0x820
 1315 0a46 0D       		.uleb128 0xd
 1316 0a47 F8060000 		.4byte	.LASF188
 1317 0a4b 04       		.byte	0x4
 1318 0a4c 5001     		.2byte	0x150
 1319 0a4e E90F0000 		.4byte	0xfe9
 1320 0a52 2408     		.2byte	0x824
 1321 0a54 0D       		.uleb128 0xd
 1322 0a55 EF000000 		.4byte	.LASF189
 1323 0a59 04       		.byte	0x4
 1324 0a5a 5101     		.2byte	0x151
 1325 0a5c B5000000 		.4byte	0xb5
 1326 0a60 2808     		.2byte	0x828
 1327 0a62 0D       		.uleb128 0xd
 1328 0a63 03070000 		.4byte	.LASF190
 1329 0a67 04       		.byte	0x4
 1330 0a68 5201     		.2byte	0x152
 1331 0a6a F30F0000 		.4byte	0xff3
 1332 0a6e 2C08     		.2byte	0x82c
 1333 0a70 0D       		.uleb128 0xd
 1334 0a71 AE090000 		.4byte	.LASF191
 1335 0a75 04       		.byte	0x4
 1336 0a76 5301     		.2byte	0x153
 1337 0a78 B5000000 		.4byte	0xb5
 1338 0a7c 3008     		.2byte	0x830
 1339 0a7e 0D       		.uleb128 0xd
 1340 0a7f 09000000 		.4byte	.LASF192
 1341 0a83 04       		.byte	0x4
 1342 0a84 5401     		.2byte	0x154
 1343 0a86 B5000000 		.4byte	0xb5
 1344 0a8a 3408     		.2byte	0x834
 1345 0a8c 0D       		.uleb128 0xd
 1346 0a8d 43050000 		.4byte	.LASF193
 1347 0a91 04       		.byte	0x4
 1348 0a92 5501     		.2byte	0x155
 1349 0a94 B5000000 		.4byte	0xb5
 1350 0a98 3808     		.2byte	0x838
 1351 0a9a 0D       		.uleb128 0xd
 1352 0a9b FA030000 		.4byte	.LASF194
 1353 0a9f 04       		.byte	0x4
 1354 0aa0 5601     		.2byte	0x156
 1355 0aa2 B5000000 		.4byte	0xb5
 1356 0aa6 3C08     		.2byte	0x83c
 1357 0aa8 0D       		.uleb128 0xd
 1358 0aa9 FE020000 		.4byte	.LASF195
 1359 0aad 04       		.byte	0x4
 1360 0aae 5801     		.2byte	0x158
 1361 0ab0 B5000000 		.4byte	0xb5
 1362 0ab4 4008     		.2byte	0x840
 1363 0ab6 0D       		.uleb128 0xd
 1364 0ab7 87090000 		.4byte	.LASF196
ARM GAS  /tmp/ccB6GPXT.s 			page 25


 1365 0abb 04       		.byte	0x4
 1366 0abc 5901     		.2byte	0x159
 1367 0abe B5000000 		.4byte	0xb5
 1368 0ac2 4408     		.2byte	0x844
 1369 0ac4 0D       		.uleb128 0xd
 1370 0ac5 0E070000 		.4byte	.LASF197
 1371 0ac9 04       		.byte	0x4
 1372 0aca 5A01     		.2byte	0x15a
 1373 0acc FD0F0000 		.4byte	0xffd
 1374 0ad0 4808     		.2byte	0x848
 1375 0ad2 0D       		.uleb128 0xd
 1376 0ad3 A2030000 		.4byte	.LASF198
 1377 0ad7 04       		.byte	0x4
 1378 0ad8 5B01     		.2byte	0x15b
 1379 0ada B5000000 		.4byte	0xb5
 1380 0ade 5808     		.2byte	0x858
 1381 0ae0 0D       		.uleb128 0xd
 1382 0ae1 19070000 		.4byte	.LASF199
 1383 0ae5 04       		.byte	0x4
 1384 0ae6 5D01     		.2byte	0x15d
 1385 0ae8 07100000 		.4byte	0x1007
 1386 0aec 5C08     		.2byte	0x85c
 1387 0aee 0D       		.uleb128 0xd
 1388 0aef D8060000 		.4byte	.LASF200
 1389 0af3 04       		.byte	0x4
 1390 0af4 5E01     		.2byte	0x15e
 1391 0af6 B5000000 		.4byte	0xb5
 1392 0afa 7408     		.2byte	0x874
 1393 0afc 0D       		.uleb128 0xd
 1394 0afd 24070000 		.4byte	.LASF201
 1395 0b01 04       		.byte	0x4
 1396 0b02 5F01     		.2byte	0x15f
 1397 0b04 11100000 		.4byte	0x1011
 1398 0b08 7808     		.2byte	0x878
 1399 0b0a 0D       		.uleb128 0xd
 1400 0b0b FF000000 		.4byte	.LASF202
 1401 0b0f 04       		.byte	0x4
 1402 0b10 6001     		.2byte	0x160
 1403 0b12 B5000000 		.4byte	0xb5
 1404 0b16 9C08     		.2byte	0x89c
 1405 0b18 0D       		.uleb128 0xd
 1406 0b19 2F070000 		.4byte	.LASF203
 1407 0b1d 04       		.byte	0x4
 1408 0b1e 6101     		.2byte	0x161
 1409 0b20 1B100000 		.4byte	0x101b
 1410 0b24 A008     		.2byte	0x8a0
 1411 0b26 0D       		.uleb128 0xd
 1412 0b27 BF090000 		.4byte	.LASF204
 1413 0b2b 04       		.byte	0x4
 1414 0b2c 6201     		.2byte	0x162
 1415 0b2e B5000000 		.4byte	0xb5
 1416 0b32 0009     		.2byte	0x900
 1417 0b34 0D       		.uleb128 0xd
 1418 0b35 C5040000 		.4byte	.LASF205
 1419 0b39 04       		.byte	0x4
 1420 0b3a 6301     		.2byte	0x163
 1421 0b3c B5000000 		.4byte	0xb5
ARM GAS  /tmp/ccB6GPXT.s 			page 26


 1422 0b40 0409     		.2byte	0x904
 1423 0b42 0D       		.uleb128 0xd
 1424 0b43 5E000000 		.4byte	.LASF206
 1425 0b47 04       		.byte	0x4
 1426 0b48 6401     		.2byte	0x164
 1427 0b4a B5000000 		.4byte	0xb5
 1428 0b4e 0809     		.2byte	0x908
 1429 0b50 0D       		.uleb128 0xd
 1430 0b51 F0040000 		.4byte	.LASF207
 1431 0b55 04       		.byte	0x4
 1432 0b56 6501     		.2byte	0x165
 1433 0b58 B5000000 		.4byte	0xb5
 1434 0b5c 0C09     		.2byte	0x90c
 1435 0b5e 0D       		.uleb128 0xd
 1436 0b5f 8D040000 		.4byte	.LASF208
 1437 0b63 04       		.byte	0x4
 1438 0b64 6601     		.2byte	0x166
 1439 0b66 B5000000 		.4byte	0xb5
 1440 0b6a 1009     		.2byte	0x910
 1441 0b6c 0D       		.uleb128 0xd
 1442 0b6d 7B090000 		.4byte	.LASF209
 1443 0b71 04       		.byte	0x4
 1444 0b72 6701     		.2byte	0x167
 1445 0b74 B5000000 		.4byte	0xb5
 1446 0b78 1409     		.2byte	0x914
 1447 0b7a 0D       		.uleb128 0xd
 1448 0b7b BA070000 		.4byte	.LASF210
 1449 0b7f 04       		.byte	0x4
 1450 0b80 6801     		.2byte	0x168
 1451 0b82 B5000000 		.4byte	0xb5
 1452 0b86 1809     		.2byte	0x918
 1453 0b88 0D       		.uleb128 0xd
 1454 0b89 CB010000 		.4byte	.LASF211
 1455 0b8d 04       		.byte	0x4
 1456 0b8e 6901     		.2byte	0x169
 1457 0b90 B5000000 		.4byte	0xb5
 1458 0b94 1C09     		.2byte	0x91c
 1459 0b96 0D       		.uleb128 0xd
 1460 0b97 5A030000 		.4byte	.LASF212
 1461 0b9b 04       		.byte	0x4
 1462 0b9c 6A01     		.2byte	0x16a
 1463 0b9e B5000000 		.4byte	0xb5
 1464 0ba2 2009     		.2byte	0x920
 1465 0ba4 0D       		.uleb128 0xd
 1466 0ba5 3A070000 		.4byte	.LASF213
 1467 0ba9 04       		.byte	0x4
 1468 0baa 6B01     		.2byte	0x16b
 1469 0bac 25100000 		.4byte	0x1025
 1470 0bb0 2409     		.2byte	0x924
 1471 0bb2 0D       		.uleb128 0xd
 1472 0bb3 2E080000 		.4byte	.LASF214
 1473 0bb7 04       		.byte	0x4
 1474 0bb8 6C01     		.2byte	0x16c
 1475 0bba B5000000 		.4byte	0xb5
 1476 0bbe 2809     		.2byte	0x928
 1477 0bc0 0D       		.uleb128 0xd
 1478 0bc1 45070000 		.4byte	.LASF215
ARM GAS  /tmp/ccB6GPXT.s 			page 27


 1479 0bc5 04       		.byte	0x4
 1480 0bc6 6D01     		.2byte	0x16d
 1481 0bc8 2F100000 		.4byte	0x102f
 1482 0bcc 2C09     		.2byte	0x92c
 1483 0bce 0D       		.uleb128 0xd
 1484 0bcf C8060000 		.4byte	.LASF216
 1485 0bd3 04       		.byte	0x4
 1486 0bd4 6E01     		.2byte	0x16e
 1487 0bd6 B5000000 		.4byte	0xb5
 1488 0bda 3009     		.2byte	0x930
 1489 0bdc 0D       		.uleb128 0xd
 1490 0bdd 0E050000 		.4byte	.LASF217
 1491 0be1 04       		.byte	0x4
 1492 0be2 6F01     		.2byte	0x16f
 1493 0be4 B5000000 		.4byte	0xb5
 1494 0be8 3409     		.2byte	0x934
 1495 0bea 0D       		.uleb128 0xd
 1496 0beb 31030000 		.4byte	.LASF218
 1497 0bef 04       		.byte	0x4
 1498 0bf0 7001     		.2byte	0x170
 1499 0bf2 B5000000 		.4byte	0xb5
 1500 0bf6 3809     		.2byte	0x938
 1501 0bf8 0D       		.uleb128 0xd
 1502 0bf9 22040000 		.4byte	.LASF219
 1503 0bfd 04       		.byte	0x4
 1504 0bfe 7101     		.2byte	0x171
 1505 0c00 B5000000 		.4byte	0xb5
 1506 0c04 3C09     		.2byte	0x93c
 1507 0c06 0D       		.uleb128 0xd
 1508 0c07 31000000 		.4byte	.LASF220
 1509 0c0b 04       		.byte	0x4
 1510 0c0c 7201     		.2byte	0x172
 1511 0c0e B5000000 		.4byte	0xb5
 1512 0c12 4009     		.2byte	0x940
 1513 0c14 0D       		.uleb128 0xd
 1514 0c15 EA040000 		.4byte	.LASF221
 1515 0c19 04       		.byte	0x4
 1516 0c1a 7301     		.2byte	0x173
 1517 0c1c B5000000 		.4byte	0xb5
 1518 0c20 4409     		.2byte	0x944
 1519 0c22 0D       		.uleb128 0xd
 1520 0c23 50070000 		.4byte	.LASF222
 1521 0c27 04       		.byte	0x4
 1522 0c28 7401     		.2byte	0x174
 1523 0c2a 39100000 		.4byte	0x1039
 1524 0c2e 4809     		.2byte	0x948
 1525 0c30 0D       		.uleb128 0xd
 1526 0c31 9D040000 		.4byte	.LASF223
 1527 0c35 04       		.byte	0x4
 1528 0c36 7501     		.2byte	0x175
 1529 0c38 B5000000 		.4byte	0xb5
 1530 0c3c 5809     		.2byte	0x958
 1531 0c3e 0D       		.uleb128 0xd
 1532 0c3f 5B070000 		.4byte	.LASF224
 1533 0c43 04       		.byte	0x4
 1534 0c44 7601     		.2byte	0x176
 1535 0c46 43100000 		.4byte	0x1043
ARM GAS  /tmp/ccB6GPXT.s 			page 28


 1536 0c4a 5C09     		.2byte	0x95c
 1537 0c4c 0D       		.uleb128 0xd
 1538 0c4d 54060000 		.4byte	.LASF225
 1539 0c51 04       		.byte	0x4
 1540 0c52 7701     		.2byte	0x177
 1541 0c54 B5000000 		.4byte	0xb5
 1542 0c58 7409     		.2byte	0x974
 1543 0c5a 0D       		.uleb128 0xd
 1544 0c5b 78070000 		.4byte	.LASF226
 1545 0c5f 04       		.byte	0x4
 1546 0c60 7801     		.2byte	0x178
 1547 0c62 4D100000 		.4byte	0x104d
 1548 0c66 7809     		.2byte	0x978
 1549 0c68 0D       		.uleb128 0xd
 1550 0c69 68010000 		.4byte	.LASF227
 1551 0c6d 04       		.byte	0x4
 1552 0c6e 7901     		.2byte	0x179
 1553 0c70 B5000000 		.4byte	0xb5
 1554 0c74 9C09     		.2byte	0x99c
 1555 0c76 0D       		.uleb128 0xd
 1556 0c77 83070000 		.4byte	.LASF228
 1557 0c7b 04       		.byte	0x4
 1558 0c7c 7A01     		.2byte	0x17a
 1559 0c7e 57100000 		.4byte	0x1057
 1560 0c82 A009     		.2byte	0x9a0
 1561 0c84 0D       		.uleb128 0xd
 1562 0c85 01080000 		.4byte	.LASF229
 1563 0c89 04       		.byte	0x4
 1564 0c8a 7B01     		.2byte	0x17b
 1565 0c8c B5000000 		.4byte	0xb5
 1566 0c90 000A     		.2byte	0xa00
 1567 0c92 0D       		.uleb128 0xd
 1568 0c93 0E080000 		.4byte	.LASF230
 1569 0c97 04       		.byte	0x4
 1570 0c98 7C01     		.2byte	0x17c
 1571 0c9a B5000000 		.4byte	0xb5
 1572 0c9e 040A     		.2byte	0xa04
 1573 0ca0 0D       		.uleb128 0xd
 1574 0ca1 C9050000 		.4byte	.LASF231
 1575 0ca5 04       		.byte	0x4
 1576 0ca6 7D01     		.2byte	0x17d
 1577 0ca8 B5000000 		.4byte	0xb5
 1578 0cac 080A     		.2byte	0xa08
 1579 0cae 0D       		.uleb128 0xd
 1580 0caf D7070000 		.4byte	.LASF232
 1581 0cb3 04       		.byte	0x4
 1582 0cb4 7E01     		.2byte	0x17e
 1583 0cb6 B5000000 		.4byte	0xb5
 1584 0cba 0C0A     		.2byte	0xa0c
 1585 0cbc 0D       		.uleb128 0xd
 1586 0cbd 5B010000 		.4byte	.LASF233
 1587 0cc1 04       		.byte	0x4
 1588 0cc2 7F01     		.2byte	0x17f
 1589 0cc4 B5000000 		.4byte	0xb5
 1590 0cc8 100A     		.2byte	0xa10
 1591 0cca 0D       		.uleb128 0xd
 1592 0ccb 1C040000 		.4byte	.LASF234
ARM GAS  /tmp/ccB6GPXT.s 			page 29


 1593 0ccf 04       		.byte	0x4
 1594 0cd0 8001     		.2byte	0x180
 1595 0cd2 B5000000 		.4byte	0xb5
 1596 0cd6 140A     		.2byte	0xa14
 1597 0cd8 0D       		.uleb128 0xd
 1598 0cd9 92000000 		.4byte	.LASF235
 1599 0cdd 04       		.byte	0x4
 1600 0cde 8101     		.2byte	0x181
 1601 0ce0 B5000000 		.4byte	0xb5
 1602 0ce4 180A     		.2byte	0xa18
 1603 0ce6 0D       		.uleb128 0xd
 1604 0ce7 A5000000 		.4byte	.LASF236
 1605 0ceb 04       		.byte	0x4
 1606 0cec 8201     		.2byte	0x182
 1607 0cee B5000000 		.4byte	0xb5
 1608 0cf2 1C0A     		.2byte	0xa1c
 1609 0cf4 0D       		.uleb128 0xd
 1610 0cf5 A0090000 		.4byte	.LASF237
 1611 0cf9 04       		.byte	0x4
 1612 0cfa 8301     		.2byte	0x183
 1613 0cfc B5000000 		.4byte	0xb5
 1614 0d00 200A     		.2byte	0xa20
 1615 0d02 0D       		.uleb128 0xd
 1616 0d03 8E070000 		.4byte	.LASF238
 1617 0d07 04       		.byte	0x4
 1618 0d08 8401     		.2byte	0x184
 1619 0d0a 61100000 		.4byte	0x1061
 1620 0d0e 240A     		.2byte	0xa24
 1621 0d10 0D       		.uleb128 0xd
 1622 0d11 F0020000 		.4byte	.LASF239
 1623 0d15 04       		.byte	0x4
 1624 0d16 8501     		.2byte	0x185
 1625 0d18 B5000000 		.4byte	0xb5
 1626 0d1c 280A     		.2byte	0xa28
 1627 0d1e 0D       		.uleb128 0xd
 1628 0d1f 99070000 		.4byte	.LASF240
 1629 0d23 04       		.byte	0x4
 1630 0d24 8601     		.2byte	0x186
 1631 0d26 6B100000 		.4byte	0x106b
 1632 0d2a 2C0A     		.2byte	0xa2c
 1633 0d2c 0D       		.uleb128 0xd
 1634 0d2d 07050000 		.4byte	.LASF241
 1635 0d31 04       		.byte	0x4
 1636 0d32 8701     		.2byte	0x187
 1637 0d34 B5000000 		.4byte	0xb5
 1638 0d38 300A     		.2byte	0xa30
 1639 0d3a 0D       		.uleb128 0xd
 1640 0d3b 97020000 		.4byte	.LASF242
 1641 0d3f 04       		.byte	0x4
 1642 0d40 8801     		.2byte	0x188
 1643 0d42 B5000000 		.4byte	0xb5
 1644 0d46 340A     		.2byte	0xa34
 1645 0d48 0D       		.uleb128 0xd
 1646 0d49 81090000 		.4byte	.LASF243
 1647 0d4d 04       		.byte	0x4
 1648 0d4e 8901     		.2byte	0x189
 1649 0d50 B5000000 		.4byte	0xb5
ARM GAS  /tmp/ccB6GPXT.s 			page 30


 1650 0d54 380A     		.2byte	0xa38
 1651 0d56 0D       		.uleb128 0xd
 1652 0d57 AE010000 		.4byte	.LASF244
 1653 0d5b 04       		.byte	0x4
 1654 0d5c 8A01     		.2byte	0x18a
 1655 0d5e B5000000 		.4byte	0xb5
 1656 0d62 3C0A     		.2byte	0xa3c
 1657 0d64 0D       		.uleb128 0xd
 1658 0d65 A6040000 		.4byte	.LASF245
 1659 0d69 04       		.byte	0x4
 1660 0d6a 8B01     		.2byte	0x18b
 1661 0d6c B5000000 		.4byte	0xb5
 1662 0d70 400A     		.2byte	0xa40
 1663 0d72 0D       		.uleb128 0xd
 1664 0d73 D1010000 		.4byte	.LASF246
 1665 0d77 04       		.byte	0x4
 1666 0d78 8C01     		.2byte	0x18c
 1667 0d7a B5000000 		.4byte	0xb5
 1668 0d7e 440A     		.2byte	0xa44
 1669 0d80 0D       		.uleb128 0xd
 1670 0d81 A4070000 		.4byte	.LASF247
 1671 0d85 04       		.byte	0x4
 1672 0d86 8D01     		.2byte	0x18d
 1673 0d88 75100000 		.4byte	0x1075
 1674 0d8c 480A     		.2byte	0xa48
 1675 0d8e 0D       		.uleb128 0xd
 1676 0d8f F6040000 		.4byte	.LASF248
 1677 0d93 04       		.byte	0x4
 1678 0d94 8E01     		.2byte	0x18e
 1679 0d96 B5000000 		.4byte	0xb5
 1680 0d9a 580A     		.2byte	0xa58
 1681 0d9c 0D       		.uleb128 0xd
 1682 0d9d AF070000 		.4byte	.LASF249
 1683 0da1 04       		.byte	0x4
 1684 0da2 8F01     		.2byte	0x18f
 1685 0da4 7F100000 		.4byte	0x107f
 1686 0da8 5C0A     		.2byte	0xa5c
 1687 0daa 0D       		.uleb128 0xd
 1688 0dab E3020000 		.4byte	.LASF250
 1689 0daf 04       		.byte	0x4
 1690 0db0 9001     		.2byte	0x190
 1691 0db2 B5000000 		.4byte	0xb5
 1692 0db6 740A     		.2byte	0xa74
 1693 0db8 0D       		.uleb128 0xd
 1694 0db9 9D010000 		.4byte	.LASF251
 1695 0dbd 04       		.byte	0x4
 1696 0dbe 9101     		.2byte	0x191
 1697 0dc0 89100000 		.4byte	0x1089
 1698 0dc4 780A     		.2byte	0xa78
 1699 0dc6 0D       		.uleb128 0xd
 1700 0dc7 C4090000 		.4byte	.LASF252
 1701 0dcb 04       		.byte	0x4
 1702 0dcc 9201     		.2byte	0x192
 1703 0dce B5000000 		.4byte	0xb5
 1704 0dd2 9C0A     		.2byte	0xa9c
 1705 0dd4 00       		.byte	0
 1706 0dd5 05       		.uleb128 0x5
ARM GAS  /tmp/ccB6GPXT.s 			page 31


 1707 0dd6 8C000000 		.4byte	0x8c
 1708 0dda E50D0000 		.4byte	0xde5
 1709 0dde 06       		.uleb128 0x6
 1710 0ddf 9E000000 		.4byte	0x9e
 1711 0de3 0B       		.byte	0xb
 1712 0de4 00       		.byte	0
 1713 0de5 08       		.uleb128 0x8
 1714 0de6 EA0D0000 		.4byte	0xdea
 1715 0dea 07       		.uleb128 0x7
 1716 0deb D50D0000 		.4byte	0xdd5
 1717 0def 08       		.uleb128 0x8
 1718 0df0 F40D0000 		.4byte	0xdf4
 1719 0df4 07       		.uleb128 0x7
 1720 0df5 DF000000 		.4byte	0xdf
 1721 0df9 08       		.uleb128 0x8
 1722 0dfa FE0D0000 		.4byte	0xdfe
 1723 0dfe 07       		.uleb128 0x7
 1724 0dff DF000000 		.4byte	0xdf
 1725 0e03 08       		.uleb128 0x8
 1726 0e04 080E0000 		.4byte	0xe08
 1727 0e08 07       		.uleb128 0x7
 1728 0e09 D50D0000 		.4byte	0xdd5
 1729 0e0d 05       		.uleb128 0x5
 1730 0e0e 8C000000 		.4byte	0x8c
 1731 0e12 1D0E0000 		.4byte	0xe1d
 1732 0e16 06       		.uleb128 0x6
 1733 0e17 9E000000 		.4byte	0x9e
 1734 0e1b 02       		.byte	0x2
 1735 0e1c 00       		.byte	0
 1736 0e1d 08       		.uleb128 0x8
 1737 0e1e 220E0000 		.4byte	0xe22
 1738 0e22 07       		.uleb128 0x7
 1739 0e23 0D0E0000 		.4byte	0xe0d
 1740 0e27 08       		.uleb128 0x8
 1741 0e28 2C0E0000 		.4byte	0xe2c
 1742 0e2c 07       		.uleb128 0x7
 1743 0e2d FF000000 		.4byte	0xff
 1744 0e31 08       		.uleb128 0x8
 1745 0e32 360E0000 		.4byte	0xe36
 1746 0e36 07       		.uleb128 0x7
 1747 0e37 BF000000 		.4byte	0xbf
 1748 0e3b 08       		.uleb128 0x8
 1749 0e3c 400E0000 		.4byte	0xe40
 1750 0e40 07       		.uleb128 0x7
 1751 0e41 BF000000 		.4byte	0xbf
 1752 0e45 05       		.uleb128 0x5
 1753 0e46 8C000000 		.4byte	0x8c
 1754 0e4a 550E0000 		.4byte	0xe55
 1755 0e4e 06       		.uleb128 0x6
 1756 0e4f 9E000000 		.4byte	0x9e
 1757 0e53 06       		.byte	0x6
 1758 0e54 00       		.byte	0
 1759 0e55 08       		.uleb128 0x8
 1760 0e56 5A0E0000 		.4byte	0xe5a
 1761 0e5a 07       		.uleb128 0x7
 1762 0e5b 450E0000 		.4byte	0xe45
 1763 0e5f 08       		.uleb128 0x8
ARM GAS  /tmp/ccB6GPXT.s 			page 32


 1764 0e60 640E0000 		.4byte	0xe64
 1765 0e64 07       		.uleb128 0x7
 1766 0e65 CF000000 		.4byte	0xcf
 1767 0e69 08       		.uleb128 0x8
 1768 0e6a 6E0E0000 		.4byte	0xe6e
 1769 0e6e 07       		.uleb128 0x7
 1770 0e6f CF000000 		.4byte	0xcf
 1771 0e73 08       		.uleb128 0x8
 1772 0e74 780E0000 		.4byte	0xe78
 1773 0e78 07       		.uleb128 0x7
 1774 0e79 BF000000 		.4byte	0xbf
 1775 0e7d 08       		.uleb128 0x8
 1776 0e7e 820E0000 		.4byte	0xe82
 1777 0e82 07       		.uleb128 0x7
 1778 0e83 BF000000 		.4byte	0xbf
 1779 0e87 08       		.uleb128 0x8
 1780 0e88 8C0E0000 		.4byte	0xe8c
 1781 0e8c 07       		.uleb128 0x7
 1782 0e8d 0F010000 		.4byte	0x10f
 1783 0e91 05       		.uleb128 0x5
 1784 0e92 8C000000 		.4byte	0x8c
 1785 0e96 A10E0000 		.4byte	0xea1
 1786 0e9a 06       		.uleb128 0x6
 1787 0e9b 9E000000 		.4byte	0x9e
 1788 0e9f 21       		.byte	0x21
 1789 0ea0 00       		.byte	0
 1790 0ea1 08       		.uleb128 0x8
 1791 0ea2 A60E0000 		.4byte	0xea6
 1792 0ea6 07       		.uleb128 0x7
 1793 0ea7 910E0000 		.4byte	0xe91
 1794 0eab 08       		.uleb128 0x8
 1795 0eac B00E0000 		.4byte	0xeb0
 1796 0eb0 07       		.uleb128 0x7
 1797 0eb1 BF000000 		.4byte	0xbf
 1798 0eb5 05       		.uleb128 0x5
 1799 0eb6 8C000000 		.4byte	0x8c
 1800 0eba C50E0000 		.4byte	0xec5
 1801 0ebe 06       		.uleb128 0x6
 1802 0ebf 9E000000 		.4byte	0x9e
 1803 0ec3 15       		.byte	0x15
 1804 0ec4 00       		.byte	0
 1805 0ec5 08       		.uleb128 0x8
 1806 0ec6 CA0E0000 		.4byte	0xeca
 1807 0eca 07       		.uleb128 0x7
 1808 0ecb B50E0000 		.4byte	0xeb5
 1809 0ecf 08       		.uleb128 0x8
 1810 0ed0 D40E0000 		.4byte	0xed4
 1811 0ed4 07       		.uleb128 0x7
 1812 0ed5 EF000000 		.4byte	0xef
 1813 0ed9 08       		.uleb128 0x8
 1814 0eda DE0E0000 		.4byte	0xede
 1815 0ede 07       		.uleb128 0x7
 1816 0edf EF000000 		.4byte	0xef
 1817 0ee3 08       		.uleb128 0x8
 1818 0ee4 E80E0000 		.4byte	0xee8
 1819 0ee8 07       		.uleb128 0x7
 1820 0ee9 EF000000 		.4byte	0xef
ARM GAS  /tmp/ccB6GPXT.s 			page 33


 1821 0eed 08       		.uleb128 0x8
 1822 0eee F20E0000 		.4byte	0xef2
 1823 0ef2 07       		.uleb128 0x7
 1824 0ef3 CF000000 		.4byte	0xcf
 1825 0ef7 08       		.uleb128 0x8
 1826 0ef8 FC0E0000 		.4byte	0xefc
 1827 0efc 07       		.uleb128 0x7
 1828 0efd 0F010000 		.4byte	0x10f
 1829 0f01 08       		.uleb128 0x8
 1830 0f02 060F0000 		.4byte	0xf06
 1831 0f06 07       		.uleb128 0x7
 1832 0f07 EF000000 		.4byte	0xef
 1833 0f0b 05       		.uleb128 0x5
 1834 0f0c 8C000000 		.4byte	0x8c
 1835 0f10 1B0F0000 		.4byte	0xf1b
 1836 0f14 06       		.uleb128 0x6
 1837 0f15 9E000000 		.4byte	0x9e
 1838 0f19 55       		.byte	0x55
 1839 0f1a 00       		.byte	0
 1840 0f1b 08       		.uleb128 0x8
 1841 0f1c 200F0000 		.4byte	0xf20
 1842 0f20 07       		.uleb128 0x7
 1843 0f21 0B0F0000 		.4byte	0xf0b
 1844 0f25 08       		.uleb128 0x8
 1845 0f26 2A0F0000 		.4byte	0xf2a
 1846 0f2a 07       		.uleb128 0x7
 1847 0f2b EF000000 		.4byte	0xef
 1848 0f2f 08       		.uleb128 0x8
 1849 0f30 340F0000 		.4byte	0xf34
 1850 0f34 07       		.uleb128 0x7
 1851 0f35 EF000000 		.4byte	0xef
 1852 0f39 08       		.uleb128 0x8
 1853 0f3a 3E0F0000 		.4byte	0xf3e
 1854 0f3e 07       		.uleb128 0x7
 1855 0f3f CF000000 		.4byte	0xcf
 1856 0f43 08       		.uleb128 0x8
 1857 0f44 480F0000 		.4byte	0xf48
 1858 0f48 07       		.uleb128 0x7
 1859 0f49 0F010000 		.4byte	0x10f
 1860 0f4d 05       		.uleb128 0x5
 1861 0f4e 8C000000 		.4byte	0x8c
 1862 0f52 5D0F0000 		.4byte	0xf5d
 1863 0f56 06       		.uleb128 0x6
 1864 0f57 9E000000 		.4byte	0x9e
 1865 0f5b 08       		.byte	0x8
 1866 0f5c 00       		.byte	0
 1867 0f5d 08       		.uleb128 0x8
 1868 0f5e 620F0000 		.4byte	0xf62
 1869 0f62 07       		.uleb128 0x7
 1870 0f63 4D0F0000 		.4byte	0xf4d
 1871 0f67 08       		.uleb128 0x8
 1872 0f68 6C0F0000 		.4byte	0xf6c
 1873 0f6c 07       		.uleb128 0x7
 1874 0f6d A5000000 		.4byte	0xa5
 1875 0f71 08       		.uleb128 0x8
 1876 0f72 760F0000 		.4byte	0xf76
 1877 0f76 07       		.uleb128 0x7
ARM GAS  /tmp/ccB6GPXT.s 			page 34


 1878 0f77 EF000000 		.4byte	0xef
 1879 0f7b 08       		.uleb128 0x8
 1880 0f7c 800F0000 		.4byte	0xf80
 1881 0f80 07       		.uleb128 0x7
 1882 0f81 EF000000 		.4byte	0xef
 1883 0f85 08       		.uleb128 0x8
 1884 0f86 8A0F0000 		.4byte	0xf8a
 1885 0f8a 07       		.uleb128 0x7
 1886 0f8b CF000000 		.4byte	0xcf
 1887 0f8f 08       		.uleb128 0x8
 1888 0f90 940F0000 		.4byte	0xf94
 1889 0f94 07       		.uleb128 0x7
 1890 0f95 0F010000 		.4byte	0x10f
 1891 0f99 08       		.uleb128 0x8
 1892 0f9a 9E0F0000 		.4byte	0xf9e
 1893 0f9e 07       		.uleb128 0x7
 1894 0f9f 4D0F0000 		.4byte	0xf4d
 1895 0fa3 08       		.uleb128 0x8
 1896 0fa4 A80F0000 		.4byte	0xfa8
 1897 0fa8 07       		.uleb128 0x7
 1898 0fa9 A5000000 		.4byte	0xa5
 1899 0fad 08       		.uleb128 0x8
 1900 0fae B20F0000 		.4byte	0xfb2
 1901 0fb2 07       		.uleb128 0x7
 1902 0fb3 EF000000 		.4byte	0xef
 1903 0fb7 08       		.uleb128 0x8
 1904 0fb8 BC0F0000 		.4byte	0xfbc
 1905 0fbc 07       		.uleb128 0x7
 1906 0fbd EF000000 		.4byte	0xef
 1907 0fc1 08       		.uleb128 0x8
 1908 0fc2 C60F0000 		.4byte	0xfc6
 1909 0fc6 07       		.uleb128 0x7
 1910 0fc7 CF000000 		.4byte	0xcf
 1911 0fcb 08       		.uleb128 0x8
 1912 0fcc D00F0000 		.4byte	0xfd0
 1913 0fd0 07       		.uleb128 0x7
 1914 0fd1 0F010000 		.4byte	0x10f
 1915 0fd5 08       		.uleb128 0x8
 1916 0fd6 DA0F0000 		.4byte	0xfda
 1917 0fda 07       		.uleb128 0x7
 1918 0fdb 4D0F0000 		.4byte	0xf4d
 1919 0fdf 08       		.uleb128 0x8
 1920 0fe0 E40F0000 		.4byte	0xfe4
 1921 0fe4 07       		.uleb128 0x7
 1922 0fe5 A5000000 		.4byte	0xa5
 1923 0fe9 08       		.uleb128 0x8
 1924 0fea EE0F0000 		.4byte	0xfee
 1925 0fee 07       		.uleb128 0x7
 1926 0fef EF000000 		.4byte	0xef
 1927 0ff3 08       		.uleb128 0x8
 1928 0ff4 F80F0000 		.4byte	0xff8
 1929 0ff8 07       		.uleb128 0x7
 1930 0ff9 EF000000 		.4byte	0xef
 1931 0ffd 08       		.uleb128 0x8
 1932 0ffe 02100000 		.4byte	0x1002
 1933 1002 07       		.uleb128 0x7
 1934 1003 CF000000 		.4byte	0xcf
ARM GAS  /tmp/ccB6GPXT.s 			page 35


 1935 1007 08       		.uleb128 0x8
 1936 1008 0C100000 		.4byte	0x100c
 1937 100c 07       		.uleb128 0x7
 1938 100d 0F010000 		.4byte	0x10f
 1939 1011 08       		.uleb128 0x8
 1940 1012 16100000 		.4byte	0x1016
 1941 1016 07       		.uleb128 0x7
 1942 1017 4D0F0000 		.4byte	0xf4d
 1943 101b 08       		.uleb128 0x8
 1944 101c 20100000 		.4byte	0x1020
 1945 1020 07       		.uleb128 0x7
 1946 1021 A5000000 		.4byte	0xa5
 1947 1025 08       		.uleb128 0x8
 1948 1026 2A100000 		.4byte	0x102a
 1949 102a 07       		.uleb128 0x7
 1950 102b EF000000 		.4byte	0xef
 1951 102f 08       		.uleb128 0x8
 1952 1030 34100000 		.4byte	0x1034
 1953 1034 07       		.uleb128 0x7
 1954 1035 EF000000 		.4byte	0xef
 1955 1039 08       		.uleb128 0x8
 1956 103a 3E100000 		.4byte	0x103e
 1957 103e 07       		.uleb128 0x7
 1958 103f CF000000 		.4byte	0xcf
 1959 1043 08       		.uleb128 0x8
 1960 1044 48100000 		.4byte	0x1048
 1961 1048 07       		.uleb128 0x7
 1962 1049 0F010000 		.4byte	0x10f
 1963 104d 08       		.uleb128 0x8
 1964 104e 52100000 		.4byte	0x1052
 1965 1052 07       		.uleb128 0x7
 1966 1053 4D0F0000 		.4byte	0xf4d
 1967 1057 08       		.uleb128 0x8
 1968 1058 5C100000 		.4byte	0x105c
 1969 105c 07       		.uleb128 0x7
 1970 105d A5000000 		.4byte	0xa5
 1971 1061 08       		.uleb128 0x8
 1972 1062 66100000 		.4byte	0x1066
 1973 1066 07       		.uleb128 0x7
 1974 1067 EF000000 		.4byte	0xef
 1975 106b 08       		.uleb128 0x8
 1976 106c 70100000 		.4byte	0x1070
 1977 1070 07       		.uleb128 0x7
 1978 1071 EF000000 		.4byte	0xef
 1979 1075 08       		.uleb128 0x8
 1980 1076 7A100000 		.4byte	0x107a
 1981 107a 07       		.uleb128 0x7
 1982 107b CF000000 		.4byte	0xcf
 1983 107f 08       		.uleb128 0x8
 1984 1080 84100000 		.4byte	0x1084
 1985 1084 07       		.uleb128 0x7
 1986 1085 0F010000 		.4byte	0x10f
 1987 1089 08       		.uleb128 0x8
 1988 108a 8E100000 		.4byte	0x108e
 1989 108e 07       		.uleb128 0x7
 1990 108f 4D0F0000 		.4byte	0xf4d
 1991 1093 0E       		.uleb128 0xe
ARM GAS  /tmp/ccB6GPXT.s 			page 36


 1992 1094 BB000000 		.4byte	.LASF253
 1993 1098 04       		.byte	0x4
 1994 1099 9301     		.2byte	0x193
 1995 109b 1F010000 		.4byte	0x11f
 1996 109f 03       		.uleb128 0x3
 1997 10a0 01       		.byte	0x1
 1998 10a1 08       		.byte	0x8
 1999 10a2 9D020000 		.4byte	.LASF254
 2000 10a6 0F       		.uleb128 0xf
 2001 10a7 BE010000 		.4byte	.LASF260
 2002 10ab 01       		.byte	0x1
 2003 10ac 35       		.byte	0x35
 2004 10ad 00000000 		.4byte	.LFB118
 2005 10b1 02000000 		.4byte	.LFE118-.LFB118
 2006 10b5 01       		.uleb128 0x1
 2007 10b6 9C       		.byte	0x9c
 2008 10b7 10       		.uleb128 0x10
 2009 10b8 74040000 		.4byte	.LASF261
 2010 10bc 01       		.byte	0x1
 2011 10bd 41       		.byte	0x41
 2012 10be 00000000 		.4byte	.LFB119
 2013 10c2 58000000 		.4byte	.LFE119-.LFB119
 2014 10c6 01       		.uleb128 0x1
 2015 10c7 9C       		.byte	0x9c
 2016 10c8 EB100000 		.4byte	0x10eb
 2017 10cc 11       		.uleb128 0x11
 2018 10cd F7000000 		.4byte	.LASF255
 2019 10d1 01       		.byte	0x1
 2020 10d2 43       		.byte	0x43
 2021 10d3 8C000000 		.4byte	0x8c
 2022 10d7 00000000 		.4byte	.LLST0
 2023 10db 11       		.uleb128 0x11
 2024 10dc 65000000 		.4byte	.LASF256
 2025 10e0 01       		.byte	0x1
 2026 10e1 43       		.byte	0x43
 2027 10e2 8C000000 		.4byte	0x8c
 2028 10e6 3D000000 		.4byte	.LLST1
 2029 10ea 00       		.byte	0
 2030 10eb 12       		.uleb128 0x12
 2031 10ec 29040000 		.4byte	.LASF262
 2032 10f0 05       		.byte	0x5
 2033 10f1 9806     		.2byte	0x698
 2034 10f3 F7100000 		.4byte	0x10f7
 2035 10f7 07       		.uleb128 0x7
 2036 10f8 81000000 		.4byte	0x81
 2037 10fc 00       		.byte	0
 2038              		.section	.debug_abbrev,"",%progbits
 2039              	.Ldebug_abbrev0:
 2040 0000 01       		.uleb128 0x1
 2041 0001 11       		.uleb128 0x11
 2042 0002 01       		.byte	0x1
 2043 0003 25       		.uleb128 0x25
 2044 0004 0E       		.uleb128 0xe
 2045 0005 13       		.uleb128 0x13
 2046 0006 0B       		.uleb128 0xb
 2047 0007 03       		.uleb128 0x3
 2048 0008 0E       		.uleb128 0xe
ARM GAS  /tmp/ccB6GPXT.s 			page 37


 2049 0009 1B       		.uleb128 0x1b
 2050 000a 0E       		.uleb128 0xe
 2051 000b 55       		.uleb128 0x55
 2052 000c 17       		.uleb128 0x17
 2053 000d 11       		.uleb128 0x11
 2054 000e 01       		.uleb128 0x1
 2055 000f 10       		.uleb128 0x10
 2056 0010 17       		.uleb128 0x17
 2057 0011 00       		.byte	0
 2058 0012 00       		.byte	0
 2059 0013 02       		.uleb128 0x2
 2060 0014 24       		.uleb128 0x24
 2061 0015 00       		.byte	0
 2062 0016 0B       		.uleb128 0xb
 2063 0017 0B       		.uleb128 0xb
 2064 0018 3E       		.uleb128 0x3e
 2065 0019 0B       		.uleb128 0xb
 2066 001a 03       		.uleb128 0x3
 2067 001b 08       		.uleb128 0x8
 2068 001c 00       		.byte	0
 2069 001d 00       		.byte	0
 2070 001e 03       		.uleb128 0x3
 2071 001f 24       		.uleb128 0x24
 2072 0020 00       		.byte	0
 2073 0021 0B       		.uleb128 0xb
 2074 0022 0B       		.uleb128 0xb
 2075 0023 3E       		.uleb128 0x3e
 2076 0024 0B       		.uleb128 0xb
 2077 0025 03       		.uleb128 0x3
 2078 0026 0E       		.uleb128 0xe
 2079 0027 00       		.byte	0
 2080 0028 00       		.byte	0
 2081 0029 04       		.uleb128 0x4
 2082 002a 16       		.uleb128 0x16
 2083 002b 00       		.byte	0
 2084 002c 03       		.uleb128 0x3
 2085 002d 0E       		.uleb128 0xe
 2086 002e 3A       		.uleb128 0x3a
 2087 002f 0B       		.uleb128 0xb
 2088 0030 3B       		.uleb128 0x3b
 2089 0031 0B       		.uleb128 0xb
 2090 0032 49       		.uleb128 0x49
 2091 0033 13       		.uleb128 0x13
 2092 0034 00       		.byte	0
 2093 0035 00       		.byte	0
 2094 0036 05       		.uleb128 0x5
 2095 0037 01       		.uleb128 0x1
 2096 0038 01       		.byte	0x1
 2097 0039 49       		.uleb128 0x49
 2098 003a 13       		.uleb128 0x13
 2099 003b 01       		.uleb128 0x1
 2100 003c 13       		.uleb128 0x13
 2101 003d 00       		.byte	0
 2102 003e 00       		.byte	0
 2103 003f 06       		.uleb128 0x6
 2104 0040 21       		.uleb128 0x21
 2105 0041 00       		.byte	0
ARM GAS  /tmp/ccB6GPXT.s 			page 38


 2106 0042 49       		.uleb128 0x49
 2107 0043 13       		.uleb128 0x13
 2108 0044 2F       		.uleb128 0x2f
 2109 0045 0B       		.uleb128 0xb
 2110 0046 00       		.byte	0
 2111 0047 00       		.byte	0
 2112 0048 07       		.uleb128 0x7
 2113 0049 35       		.uleb128 0x35
 2114 004a 00       		.byte	0
 2115 004b 49       		.uleb128 0x49
 2116 004c 13       		.uleb128 0x13
 2117 004d 00       		.byte	0
 2118 004e 00       		.byte	0
 2119 004f 08       		.uleb128 0x8
 2120 0050 26       		.uleb128 0x26
 2121 0051 00       		.byte	0
 2122 0052 49       		.uleb128 0x49
 2123 0053 13       		.uleb128 0x13
 2124 0054 00       		.byte	0
 2125 0055 00       		.byte	0
 2126 0056 09       		.uleb128 0x9
 2127 0057 13       		.uleb128 0x13
 2128 0058 01       		.byte	0x1
 2129 0059 0B       		.uleb128 0xb
 2130 005a 05       		.uleb128 0x5
 2131 005b 3A       		.uleb128 0x3a
 2132 005c 0B       		.uleb128 0xb
 2133 005d 3B       		.uleb128 0x3b
 2134 005e 0B       		.uleb128 0xb
 2135 005f 01       		.uleb128 0x1
 2136 0060 13       		.uleb128 0x13
 2137 0061 00       		.byte	0
 2138 0062 00       		.byte	0
 2139 0063 0A       		.uleb128 0xa
 2140 0064 0D       		.uleb128 0xd
 2141 0065 00       		.byte	0
 2142 0066 03       		.uleb128 0x3
 2143 0067 0E       		.uleb128 0xe
 2144 0068 3A       		.uleb128 0x3a
 2145 0069 0B       		.uleb128 0xb
 2146 006a 3B       		.uleb128 0x3b
 2147 006b 0B       		.uleb128 0xb
 2148 006c 49       		.uleb128 0x49
 2149 006d 13       		.uleb128 0x13
 2150 006e 38       		.uleb128 0x38
 2151 006f 0B       		.uleb128 0xb
 2152 0070 00       		.byte	0
 2153 0071 00       		.byte	0
 2154 0072 0B       		.uleb128 0xb
 2155 0073 0D       		.uleb128 0xd
 2156 0074 00       		.byte	0
 2157 0075 03       		.uleb128 0x3
 2158 0076 08       		.uleb128 0x8
 2159 0077 3A       		.uleb128 0x3a
 2160 0078 0B       		.uleb128 0xb
 2161 0079 3B       		.uleb128 0x3b
 2162 007a 0B       		.uleb128 0xb
ARM GAS  /tmp/ccB6GPXT.s 			page 39


 2163 007b 49       		.uleb128 0x49
 2164 007c 13       		.uleb128 0x13
 2165 007d 38       		.uleb128 0x38
 2166 007e 0B       		.uleb128 0xb
 2167 007f 00       		.byte	0
 2168 0080 00       		.byte	0
 2169 0081 0C       		.uleb128 0xc
 2170 0082 0D       		.uleb128 0xd
 2171 0083 00       		.byte	0
 2172 0084 03       		.uleb128 0x3
 2173 0085 0E       		.uleb128 0xe
 2174 0086 3A       		.uleb128 0x3a
 2175 0087 0B       		.uleb128 0xb
 2176 0088 3B       		.uleb128 0x3b
 2177 0089 0B       		.uleb128 0xb
 2178 008a 49       		.uleb128 0x49
 2179 008b 13       		.uleb128 0x13
 2180 008c 38       		.uleb128 0x38
 2181 008d 05       		.uleb128 0x5
 2182 008e 00       		.byte	0
 2183 008f 00       		.byte	0
 2184 0090 0D       		.uleb128 0xd
 2185 0091 0D       		.uleb128 0xd
 2186 0092 00       		.byte	0
 2187 0093 03       		.uleb128 0x3
 2188 0094 0E       		.uleb128 0xe
 2189 0095 3A       		.uleb128 0x3a
 2190 0096 0B       		.uleb128 0xb
 2191 0097 3B       		.uleb128 0x3b
 2192 0098 05       		.uleb128 0x5
 2193 0099 49       		.uleb128 0x49
 2194 009a 13       		.uleb128 0x13
 2195 009b 38       		.uleb128 0x38
 2196 009c 05       		.uleb128 0x5
 2197 009d 00       		.byte	0
 2198 009e 00       		.byte	0
 2199 009f 0E       		.uleb128 0xe
 2200 00a0 16       		.uleb128 0x16
 2201 00a1 00       		.byte	0
 2202 00a2 03       		.uleb128 0x3
 2203 00a3 0E       		.uleb128 0xe
 2204 00a4 3A       		.uleb128 0x3a
 2205 00a5 0B       		.uleb128 0xb
 2206 00a6 3B       		.uleb128 0x3b
 2207 00a7 05       		.uleb128 0x5
 2208 00a8 49       		.uleb128 0x49
 2209 00a9 13       		.uleb128 0x13
 2210 00aa 00       		.byte	0
 2211 00ab 00       		.byte	0
 2212 00ac 0F       		.uleb128 0xf
 2213 00ad 2E       		.uleb128 0x2e
 2214 00ae 00       		.byte	0
 2215 00af 3F       		.uleb128 0x3f
 2216 00b0 19       		.uleb128 0x19
 2217 00b1 03       		.uleb128 0x3
 2218 00b2 0E       		.uleb128 0xe
 2219 00b3 3A       		.uleb128 0x3a
ARM GAS  /tmp/ccB6GPXT.s 			page 40


 2220 00b4 0B       		.uleb128 0xb
 2221 00b5 3B       		.uleb128 0x3b
 2222 00b6 0B       		.uleb128 0xb
 2223 00b7 27       		.uleb128 0x27
 2224 00b8 19       		.uleb128 0x19
 2225 00b9 11       		.uleb128 0x11
 2226 00ba 01       		.uleb128 0x1
 2227 00bb 12       		.uleb128 0x12
 2228 00bc 06       		.uleb128 0x6
 2229 00bd 40       		.uleb128 0x40
 2230 00be 18       		.uleb128 0x18
 2231 00bf 9742     		.uleb128 0x2117
 2232 00c1 19       		.uleb128 0x19
 2233 00c2 00       		.byte	0
 2234 00c3 00       		.byte	0
 2235 00c4 10       		.uleb128 0x10
 2236 00c5 2E       		.uleb128 0x2e
 2237 00c6 01       		.byte	0x1
 2238 00c7 3F       		.uleb128 0x3f
 2239 00c8 19       		.uleb128 0x19
 2240 00c9 03       		.uleb128 0x3
 2241 00ca 0E       		.uleb128 0xe
 2242 00cb 3A       		.uleb128 0x3a
 2243 00cc 0B       		.uleb128 0xb
 2244 00cd 3B       		.uleb128 0x3b
 2245 00ce 0B       		.uleb128 0xb
 2246 00cf 27       		.uleb128 0x27
 2247 00d0 19       		.uleb128 0x19
 2248 00d1 11       		.uleb128 0x11
 2249 00d2 01       		.uleb128 0x1
 2250 00d3 12       		.uleb128 0x12
 2251 00d4 06       		.uleb128 0x6
 2252 00d5 40       		.uleb128 0x40
 2253 00d6 18       		.uleb128 0x18
 2254 00d7 9742     		.uleb128 0x2117
 2255 00d9 19       		.uleb128 0x19
 2256 00da 01       		.uleb128 0x1
 2257 00db 13       		.uleb128 0x13
 2258 00dc 00       		.byte	0
 2259 00dd 00       		.byte	0
 2260 00de 11       		.uleb128 0x11
 2261 00df 34       		.uleb128 0x34
 2262 00e0 00       		.byte	0
 2263 00e1 03       		.uleb128 0x3
 2264 00e2 0E       		.uleb128 0xe
 2265 00e3 3A       		.uleb128 0x3a
 2266 00e4 0B       		.uleb128 0xb
 2267 00e5 3B       		.uleb128 0x3b
 2268 00e6 0B       		.uleb128 0xb
 2269 00e7 49       		.uleb128 0x49
 2270 00e8 13       		.uleb128 0x13
 2271 00e9 02       		.uleb128 0x2
 2272 00ea 17       		.uleb128 0x17
 2273 00eb 00       		.byte	0
 2274 00ec 00       		.byte	0
 2275 00ed 12       		.uleb128 0x12
 2276 00ee 34       		.uleb128 0x34
ARM GAS  /tmp/ccB6GPXT.s 			page 41


 2277 00ef 00       		.byte	0
 2278 00f0 03       		.uleb128 0x3
 2279 00f1 0E       		.uleb128 0xe
 2280 00f2 3A       		.uleb128 0x3a
 2281 00f3 0B       		.uleb128 0xb
 2282 00f4 3B       		.uleb128 0x3b
 2283 00f5 05       		.uleb128 0x5
 2284 00f6 49       		.uleb128 0x49
 2285 00f7 13       		.uleb128 0x13
 2286 00f8 3F       		.uleb128 0x3f
 2287 00f9 19       		.uleb128 0x19
 2288 00fa 3C       		.uleb128 0x3c
 2289 00fb 19       		.uleb128 0x19
 2290 00fc 00       		.byte	0
 2291 00fd 00       		.byte	0
 2292 00fe 00       		.byte	0
 2293              		.section	.debug_loc,"",%progbits
 2294              	.Ldebug_loc0:
 2295              	.LLST0:
 2296 0000 04000000 		.4byte	.LVL0
 2297 0004 08000000 		.4byte	.LVL1
 2298 0008 0600     		.2byte	0x6
 2299 000a 73       		.byte	0x73
 2300 000b 00       		.sleb128 0
 2301 000c 09       		.byte	0x9
 2302 000d FB       		.byte	0xfb
 2303 000e 1A       		.byte	0x1a
 2304 000f 9F       		.byte	0x9f
 2305 0010 08000000 		.4byte	.LVL1
 2306 0014 0C000000 		.4byte	.LVL2
 2307 0018 0100     		.2byte	0x1
 2308 001a 53       		.byte	0x53
 2309 001b 0C000000 		.4byte	.LVL2
 2310 001f 16000000 		.4byte	.LVL3
 2311 0023 0300     		.2byte	0x3
 2312 0025 71       		.byte	0x71
 2313 0026 FC00     		.sleb128 124
 2314 0028 16000000 		.4byte	.LVL3
 2315 002c 22000000 		.4byte	.LVL4
 2316 0030 0300     		.2byte	0x3
 2317 0032 72       		.byte	0x72
 2318 0033 FC00     		.sleb128 124
 2319 0035 00000000 		.4byte	0
 2320 0039 00000000 		.4byte	0
 2321              	.LLST1:
 2322 003d 3A000000 		.4byte	.LVL5
 2323 0041 42000000 		.4byte	.LVL6
 2324 0045 0900     		.2byte	0x9
 2325 0047 71       		.byte	0x71
 2326 0048 00       		.sleb128 0
 2327 0049 0C       		.byte	0xc
 2328 004a 03003013 		.4byte	0x13300003
 2329 004e 21       		.byte	0x21
 2330 004f 9F       		.byte	0x9f
 2331 0050 42000000 		.4byte	.LVL6
 2332 0054 58000000 		.4byte	.LFE119
 2333 0058 0100     		.2byte	0x1
ARM GAS  /tmp/ccB6GPXT.s 			page 42


 2334 005a 53       		.byte	0x53
 2335 005b 00000000 		.4byte	0
 2336 005f 00000000 		.4byte	0
 2337              		.section	.debug_aranges,"",%progbits
 2338 0000 24000000 		.4byte	0x24
 2339 0004 0200     		.2byte	0x2
 2340 0006 00000000 		.4byte	.Ldebug_info0
 2341 000a 04       		.byte	0x4
 2342 000b 00       		.byte	0
 2343 000c 0000     		.2byte	0
 2344 000e 0000     		.2byte	0
 2345 0010 00000000 		.4byte	.LFB118
 2346 0014 02000000 		.4byte	.LFE118-.LFB118
 2347 0018 00000000 		.4byte	.LFB119
 2348 001c 58000000 		.4byte	.LFE119-.LFB119
 2349 0020 00000000 		.4byte	0
 2350 0024 00000000 		.4byte	0
 2351              		.section	.debug_ranges,"",%progbits
 2352              	.Ldebug_ranges0:
 2353 0000 00000000 		.4byte	.LFB118
 2354 0004 02000000 		.4byte	.LFE118
 2355 0008 00000000 		.4byte	.LFB119
 2356 000c 58000000 		.4byte	.LFE119
 2357 0010 00000000 		.4byte	0
 2358 0014 00000000 		.4byte	0
 2359              		.section	.debug_line,"",%progbits
 2360              	.Ldebug_line0:
 2361 0000 51010000 		.section	.debug_str,"MS",%progbits,1
 2361      0200FA00 
 2361      00000201 
 2361      FB0E0D00 
 2361      01010101 
 2362              	.LASF14:
 2363 0000 73697A65 		.ascii	"sizetype\000"
 2363      74797065 
 2363      00
 2364              	.LASF192:
 2365 0009 44434743 		.ascii	"DCGCCAN\000"
 2365      43414E00 
 2366              	.LASF127:
 2367 0011 5352454D 		.ascii	"SREMAC\000"
 2367      414300
 2368              	.LASF114:
 2369 0018 53525553 		.ascii	"SRUSB\000"
 2369      4200
 2370              	.LASF43:
 2371 001e 534C5050 		.ascii	"SLPPWRCFG\000"
 2371      57524346 
 2371      4700
 2372              	.LASF181:
 2373 0028 44434743 		.ascii	"DCGCGPIO\000"
 2373      4750494F 
 2373      00
 2374              	.LASF220:
 2375 0031 50435057 		.ascii	"PCPWM\000"
 2375      4D00
 2376              	.LASF11:
ARM GAS  /tmp/ccB6GPXT.s 			page 43


 2377 0037 696E7433 		.ascii	"int32_t\000"
 2377      325F7400 
 2378              	.LASF142:
 2379 003f 52434743 		.ascii	"RCGCCAN\000"
 2379      43414E00 
 2380              	.LASF65:
 2381 0047 43414E30 		.ascii	"CAN0MPC\000"
 2381      4D504300 
 2382              	.LASF171:
 2383 004f 53434743 		.ascii	"SCGCQEI\000"
 2383      51454900 
 2384              	.LASF71:
 2385 0057 50504750 		.ascii	"PPGPIO\000"
 2385      494F00
 2386              	.LASF206:
 2387 005e 50434750 		.ascii	"PCGPIO\000"
 2387      494F00
 2388              	.LASF256:
 2389 0065 7273636C 		.ascii	"rsclkcfg\000"
 2389      6B636667 
 2389      00
 2390              	.LASF154:
 2391 006e 53434743 		.ascii	"SCGCWD\000"
 2391      574400
 2392              	.LASF46:
 2393 0075 4E564D53 		.ascii	"NVMSTAT\000"
 2393      54415400 
 2394              	.LASF92:
 2395 007d 50505754 		.ascii	"PPWTIMER\000"
 2395      494D4552 
 2395      00
 2396              	.LASF109:
 2397 0086 53524849 		.ascii	"SRHIB\000"
 2397      4200
 2398              	.LASF76:
 2399 008c 50505353 		.ascii	"PPSSI\000"
 2399      4900
 2400              	.LASF235:
 2401 0092 50525541 		.ascii	"PRUART\000"
 2401      525400
 2402              	.LASF55:
 2403 0099 52455342 		.ascii	"RESBEHAVCTL\000"
 2403      45484156 
 2403      43544C00 
 2404              	.LASF236:
 2405 00a5 50525353 		.ascii	"PRSSI\000"
 2405      4900
 2406              	.LASF167:
 2407 00ab 53434743 		.ascii	"SCGCCAN\000"
 2407      43414E00 
 2408              	.LASF35:
 2409 00b3 53595350 		.ascii	"SYSPROP\000"
 2409      524F5000 
 2410              	.LASF253:
 2411 00bb 53595343 		.ascii	"SYSCTL_TypeDef\000"
 2411      544C5F54 
 2411      79706544 
ARM GAS  /tmp/ccB6GPXT.s 			page 44


 2411      656600
 2412              	.LASF44:
 2413 00ca 44534C50 		.ascii	"DSLPPWRCFG\000"
 2413      50575243 
 2413      464700
 2414              	.LASF31:
 2415 00d5 414C5443 		.ascii	"ALTCLKCFG\000"
 2415      4C4B4346 
 2415      4700
 2416              	.LASF37:
 2417 00df 50494F53 		.ascii	"PIOSCSTAT\000"
 2417      43535441 
 2417      5400
 2418              	.LASF97:
 2419 00e9 50504C43 		.ascii	"PPLCD\000"
 2419      4400
 2420              	.LASF189:
 2421 00ef 44434743 		.ascii	"DCGCUSB\000"
 2421      55534200 
 2422              	.LASF255:
 2423 00f7 6D6F7363 		.ascii	"moscctl\000"
 2423      63746C00 
 2424              	.LASF202:
 2425 00ff 44434743 		.ascii	"DCGCEMAC\000"
 2425      454D4143 
 2425      00
 2426              	.LASF21:
 2427 0108 52455343 		.ascii	"RESC\000"
 2427      00
 2428              	.LASF120:
 2429 010d 53525057 		.ascii	"SRPWM\000"
 2429      4D00
 2430              	.LASF5:
 2431 0113 6C6F6E67 		.ascii	"long int\000"
 2431      20696E74 
 2431      00
 2432              	.LASF73:
 2433 011c 50504550 		.ascii	"PPEPI\000"
 2433      4900
 2434              	.LASF175:
 2435 0122 53434743 		.ascii	"SCGCCCM\000"
 2435      43434D00 
 2436              	.LASF258:
 2437 012a 2E2E2F2E 		.ascii	"../../os/hal/platforms/TM4C129x/hal_lld.c\000"
 2437      2E2F6F73 
 2437      2F68616C 
 2437      2F706C61 
 2437      74666F72 
 2438              	.LASF100:
 2439 0154 5050454D 		.ascii	"PPEMAC\000"
 2439      414300
 2440              	.LASF233:
 2441 015b 50524550 		.ascii	"PREPI\000"
 2441      4900
 2442              	.LASF89:
 2443 0161 50505045 		.ascii	"PPPECI\000"
 2443      434900
ARM GAS  /tmp/ccB6GPXT.s 			page 45


 2444              	.LASF227:
 2445 0168 5043454D 		.ascii	"PCEMAC\000"
 2445      414300
 2446              	.LASF166:
 2447 016f 53434743 		.ascii	"SCGCEPHY\000"
 2447      45504859 
 2447      00
 2448              	.LASF41:
 2449 0178 504C4C53 		.ascii	"PLLSTAT\000"
 2449      54415400 
 2450              	.LASF50:
 2451 0180 4C444F44 		.ascii	"LDODPCTL\000"
 2451      5043544C 
 2451      00
 2452              	.LASF105:
 2453 0189 53525449 		.ascii	"SRTIMER\000"
 2453      4D455200 
 2454              	.LASF1:
 2455 0191 7369676E 		.ascii	"signed char\000"
 2455      65642063 
 2455      68617200 
 2456              	.LASF251:
 2457 019d 52455345 		.ascii	"RESERVED56\000"
 2457      52564544 
 2457      353600
 2458              	.LASF86:
 2459 01a8 50505145 		.ascii	"PPQEI\000"
 2459      4900
 2460              	.LASF244:
 2461 01ae 50524143 		.ascii	"PRACMP\000"
 2461      4D5000
 2462              	.LASF156:
 2463 01b5 53434743 		.ascii	"SCGCGPIO\000"
 2463      4750494F 
 2463      00
 2464              	.LASF260:
 2465 01be 68616C5F 		.ascii	"hal_lld_init\000"
 2465      6C6C645F 
 2465      696E6974 
 2465      00
 2466              	.LASF211:
 2467 01cb 50435353 		.ascii	"PCSSI\000"
 2467      4900
 2468              	.LASF246:
 2469 01d1 50525145 		.ascii	"PRQEI\000"
 2469      4900
 2470              	.LASF17:
 2471 01d7 52455345 		.ascii	"RESERVED0\000"
 2471      52564544 
 2471      3000
 2472              	.LASF19:
 2473 01e1 52455345 		.ascii	"RESERVED1\000"
 2473      52564544 
 2473      3100
 2474              	.LASF2:
 2475 01eb 756E7369 		.ascii	"unsigned char\000"
 2475      676E6564 
ARM GAS  /tmp/ccB6GPXT.s 			page 46


 2475      20636861 
 2475      7200
 2476              	.LASF26:
 2477 01f9 52455345 		.ascii	"RESERVED3\000"
 2477      52564544 
 2477      3300
 2478              	.LASF30:
 2479 0203 52455345 		.ascii	"RESERVED4\000"
 2479      52564544 
 2479      3400
 2480              	.LASF32:
 2481 020d 52455345 		.ascii	"RESERVED5\000"
 2481      52564544 
 2481      3500
 2482              	.LASF38:
 2483 0217 52455345 		.ascii	"RESERVED6\000"
 2483      52564544 
 2483      3600
 2484              	.LASF42:
 2485 0221 52455345 		.ascii	"RESERVED7\000"
 2485      52564544 
 2485      3700
 2486              	.LASF45:
 2487 022b 52455345 		.ascii	"RESERVED8\000"
 2487      52564544 
 2487      3800
 2488              	.LASF47:
 2489 0235 52455345 		.ascii	"RESERVED9\000"
 2489      52564544 
 2489      3900
 2490              	.LASF91:
 2491 023f 50504545 		.ascii	"PPEEPROM\000"
 2491      50524F4D 
 2491      00
 2492              	.LASF107:
 2493 0248 5352444D 		.ascii	"SRDMA\000"
 2493      4100
 2494              	.LASF49:
 2495 024e 4C444F53 		.ascii	"LDOSPCAL\000"
 2495      5043414C 
 2495      00
 2496              	.LASF110:
 2497 0257 53525541 		.ascii	"SRUART\000"
 2497      525400
 2498              	.LASF139:
 2499 025e 52434743 		.ascii	"RCGCUSB\000"
 2499      55534200 
 2500              	.LASF13:
 2501 0266 5F426F6F 		.ascii	"_Bool\000"
 2501      6C00
 2502              	.LASF82:
 2503 026c 50504341 		.ascii	"PPCAN\000"
 2503      4E00
 2504              	.LASF24:
 2505 0272 52455345 		.ascii	"RESERVED2\000"
 2505      52564544 
 2505      3200
ARM GAS  /tmp/ccB6GPXT.s 			page 47


 2506              	.LASF28:
 2507 027c 52455345 		.ascii	"RESERVEDx\000"
 2507      52564544 
 2507      7800
 2508              	.LASF144:
 2509 0286 52434743 		.ascii	"RCGCACMP\000"
 2509      41434D50 
 2509      00
 2510              	.LASF29:
 2511 028f 4D454D54 		.ascii	"MEMTIM0\000"
 2511      494D3000 
 2512              	.LASF242:
 2513 0297 50524341 		.ascii	"PRCAN\000"
 2513      4E00
 2514              	.LASF254:
 2515 029d 63686172 		.ascii	"char\000"
 2515      00
 2516              	.LASF184:
 2517 02a2 44434743 		.ascii	"DCGCHIB\000"
 2517      48494200 
 2518              	.LASF18:
 2519 02aa 50424F52 		.ascii	"PBORCTL\000"
 2519      43544C00 
 2520              	.LASF39:
 2521 02b2 504C4C46 		.ascii	"PLLFREQ0\000"
 2521      52455130 
 2521      00
 2522              	.LASF40:
 2523 02bb 504C4C46 		.ascii	"PLLFREQ1\000"
 2523      52455131 
 2523      00
 2524              	.LASF164:
 2525 02c4 53434743 		.ascii	"SCGCUSB\000"
 2525      55534200 
 2526              	.LASF134:
 2527 02cc 52434743 		.ascii	"RCGCHIB\000"
 2527      48494200 
 2528              	.LASF95:
 2529 02d4 50504343 		.ascii	"PPCCM\000"
 2529      4D00
 2530              	.LASF177:
 2531 02da 53434743 		.ascii	"SCGCEMAC\000"
 2531      454D4143 
 2531      00
 2532              	.LASF250:
 2533 02e3 50524343 		.ascii	"PRCCM\000"
 2533      4D00
 2534              	.LASF53:
 2535 02e9 5344504D 		.ascii	"SDPMST\000"
 2535      535400
 2536              	.LASF239:
 2537 02f0 50525553 		.ascii	"PRUSB\000"
 2537      4200
 2538              	.LASF159:
 2539 02f6 53434743 		.ascii	"SCGCHIB\000"
 2539      48494200 
 2540              	.LASF195:
ARM GAS  /tmp/ccB6GPXT.s 			page 48


 2541 02fe 44434743 		.ascii	"DCGCPWM\000"
 2541      50574D00 
 2542              	.LASF58:
 2543 0306 52455345 		.ascii	"RESERVED\000"
 2543      52564544 
 2543      00
 2544              	.LASF185:
 2545 030f 44434743 		.ascii	"DCGCUART\000"
 2545      55415254 
 2545      00
 2546              	.LASF15:
 2547 0318 44494430 		.ascii	"DID0\000"
 2547      00
 2548              	.LASF16:
 2549 031d 44494431 		.ascii	"DID1\000"
 2549      00
 2550              	.LASF145:
 2551 0322 52434743 		.ascii	"RCGCPWM\000"
 2551      50574D00 
 2552              	.LASF119:
 2553 032a 53524143 		.ascii	"SRACMP\000"
 2553      4D5000
 2554              	.LASF218:
 2555 0331 50434144 		.ascii	"PCADC\000"
 2555      4300
 2556              	.LASF75:
 2557 0337 50505541 		.ascii	"PPUART\000"
 2557      525400
 2558              	.LASF168:
 2559 033e 53434743 		.ascii	"SCGCADC\000"
 2559      41444300 
 2560              	.LASF60:
 2561 0346 5553424D 		.ascii	"USBMPC\000"
 2561      504300
 2562              	.LASF104:
 2563 034d 53525744 		.ascii	"SRWD\000"
 2563      00
 2564              	.LASF70:
 2565 0352 50505449 		.ascii	"PPTIMER\000"
 2565      4D455200 
 2566              	.LASF212:
 2567 035a 50434932 		.ascii	"PCI2C\000"
 2567      4300
 2568              	.LASF23:
 2569 0360 4E4D4943 		.ascii	"NMIC\000"
 2569      00
 2570              	.LASF8:
 2571 0365 6C6F6E67 		.ascii	"long unsigned int\000"
 2571      20756E73 
 2571      69676E65 
 2571      6420696E 
 2571      7400
 2572              	.LASF173:
 2573 0377 53434743 		.ascii	"SCGCEEPROM\000"
 2573      45455052 
 2573      4F4D00
 2574              	.LASF20:
ARM GAS  /tmp/ccB6GPXT.s 			page 49


 2575 0382 4D495343 		.ascii	"MISC\000"
 2575      00
 2576              	.LASF170:
 2577 0387 53434743 		.ascii	"SCGCPWM\000"
 2577      50574D00 
 2578              	.LASF101:
 2579 038f 50505052 		.ascii	"PPPRB\000"
 2579      4200
 2580              	.LASF22:
 2581 0395 50575254 		.ascii	"PWRTC\000"
 2581      4300
 2582              	.LASF129:
 2583 039b 52434743 		.ascii	"RCGCWD\000"
 2583      574400
 2584              	.LASF198:
 2585 03a2 44434743 		.ascii	"DCGCEEPROM\000"
 2585      45455052 
 2585      4F4D00
 2586              	.LASF64:
 2587 03ad 43414E30 		.ascii	"CAN0PDS\000"
 2587      50445300 
 2588              	.LASF79:
 2589 03b5 50505553 		.ascii	"PPUSB\000"
 2589      4200
 2590              	.LASF34:
 2591 03bb 44495653 		.ascii	"DIVSCLK\000"
 2591      434C4B00 
 2592              	.LASF69:
 2593 03c3 50505744 		.ascii	"PPWD\000"
 2593      00
 2594              	.LASF180:
 2595 03c8 44434743 		.ascii	"DCGCTIMER\000"
 2595      54494D45 
 2595      5200
 2596              	.LASF7:
 2597 03d2 5F5F7569 		.ascii	"__uint32_t\000"
 2597      6E743332 
 2597      5F7400
 2598              	.LASF118:
 2599 03dd 53524144 		.ascii	"SRADC\000"
 2599      4300
 2600              	.LASF27:
 2601 03e3 5253434C 		.ascii	"RSCLKCFG\000"
 2601      4B434647 
 2601      00
 2602              	.LASF9:
 2603 03ec 6C6F6E67 		.ascii	"long long int\000"
 2603      206C6F6E 
 2603      6720696E 
 2603      7400
 2604              	.LASF194:
 2605 03fa 44434743 		.ascii	"DCGCACMP\000"
 2605      41434D50 
 2605      00
 2606              	.LASF112:
 2607 0403 53524932 		.ascii	"SRI2C\000"
 2607      4300
ARM GAS  /tmp/ccB6GPXT.s 			page 50


 2608              	.LASF84:
 2609 0409 50504143 		.ascii	"PPACMP\000"
 2609      4D5000
 2610              	.LASF74:
 2611 0410 50504849 		.ascii	"PPHIB\000"
 2611      4200
 2612              	.LASF102:
 2613 0416 50504849 		.ascii	"PPHIM\000"
 2613      4D00
 2614              	.LASF234:
 2615 041c 50524849 		.ascii	"PRHIB\000"
 2615      4200
 2616              	.LASF219:
 2617 0422 50434143 		.ascii	"PCACMP\000"
 2617      4D5000
 2618              	.LASF262:
 2619 0429 49544D5F 		.ascii	"ITM_RxBuffer\000"
 2619      52784275 
 2619      66666572 
 2619      00
 2620              	.LASF141:
 2621 0436 52434743 		.ascii	"RCGCEPHY\000"
 2621      45504859 
 2621      00
 2622              	.LASF179:
 2623 043f 44434743 		.ascii	"DCGCWD\000"
 2623      574400
 2624              	.LASF87:
 2625 0446 50504C50 		.ascii	"PPLPC\000"
 2625      4300
 2626              	.LASF0:
 2627 044c 756E7369 		.ascii	"unsigned int\000"
 2627      676E6564 
 2627      20696E74 
 2627      00
 2628              	.LASF160:
 2629 0459 53434743 		.ascii	"SCGCUART\000"
 2629      55415254 
 2629      00
 2630              	.LASF123:
 2631 0462 53524545 		.ascii	"SREEPROM\000"
 2631      50524F4D 
 2631      00
 2632              	.LASF51:
 2633 046b 4C444F44 		.ascii	"LDODPCAL\000"
 2633      5043414C 
 2633      00
 2634              	.LASF261:
 2635 0474 74697661 		.ascii	"tiva_clock_init\000"
 2635      5F636C6F 
 2635      636B5F69 
 2635      6E697400 
 2636              	.LASF131:
 2637 0484 52434743 		.ascii	"RCGCGPIO\000"
 2637      4750494F 
 2637      00
 2638              	.LASF208:
ARM GAS  /tmp/ccB6GPXT.s 			page 51


 2639 048d 50434550 		.ascii	"PCEPI\000"
 2639      4900
 2640              	.LASF130:
 2641 0493 52434743 		.ascii	"RCGCTIMER\000"
 2641      54494D45 
 2641      5200
 2642              	.LASF223:
 2643 049d 50434545 		.ascii	"PCEEPROM\000"
 2643      50524F4D 
 2643      00
 2644              	.LASF245:
 2645 04a6 50525057 		.ascii	"PRPWM\000"
 2645      4D00
 2646              	.LASF148:
 2647 04ac 52434743 		.ascii	"RCGCEEPROM\000"
 2647      45455052 
 2647      4F4D00
 2648              	.LASF85:
 2649 04b7 50505057 		.ascii	"PPPWM\000"
 2649      4D00
 2650              	.LASF182:
 2651 04bd 44434743 		.ascii	"DCGCDMA\000"
 2651      444D4100 
 2652              	.LASF205:
 2653 04c5 50435449 		.ascii	"PCTIMER\000"
 2653      4D455200 
 2654              	.LASF59:
 2655 04cd 55534250 		.ascii	"USBPDS\000"
 2655      445300
 2656              	.LASF111:
 2657 04d4 53525353 		.ascii	"SRSSI\000"
 2657      4900
 2658              	.LASF132:
 2659 04da 52434743 		.ascii	"RCGCDMA\000"
 2659      444D4100 
 2660              	.LASF62:
 2661 04e2 454D4143 		.ascii	"EMACMPC\000"
 2661      4D504300 
 2662              	.LASF221:
 2663 04ea 50435145 		.ascii	"PCQEI\000"
 2663      4900
 2664              	.LASF207:
 2665 04f0 5043444D 		.ascii	"PCDMA\000"
 2665      4100
 2666              	.LASF248:
 2667 04f6 50524545 		.ascii	"PREEPROM\000"
 2667      50524F4D 
 2667      00
 2668              	.LASF157:
 2669 04ff 53434743 		.ascii	"SCGCDMA\000"
 2669      444D4100 
 2670              	.LASF241:
 2671 0507 50524550 		.ascii	"PREPHY\000"
 2671      485900
 2672              	.LASF217:
 2673 050e 50434341 		.ascii	"PCCAN\000"
 2673      4E00
ARM GAS  /tmp/ccB6GPXT.s 			page 52


 2674              	.LASF10:
 2675 0514 6C6F6E67 		.ascii	"long long unsigned int\000"
 2675      206C6F6E 
 2675      6720756E 
 2675      7369676E 
 2675      65642069 
 2676              	.LASF152:
 2677 052b 52434743 		.ascii	"RCGCEMAC\000"
 2677      454D4143 
 2677      00
 2678              	.LASF169:
 2679 0534 53434743 		.ascii	"SCGCACMP\000"
 2679      41434D50 
 2679      00
 2680              	.LASF108:
 2681 053d 53524550 		.ascii	"SREPI\000"
 2681      4900
 2682              	.LASF193:
 2683 0543 44434743 		.ascii	"DCGCADC\000"
 2683      41444300 
 2684              	.LASF52:
 2685 054b 52455345 		.ascii	"RESERVED10\000"
 2685      52564544 
 2685      313000
 2686              	.LASF54:
 2687 0556 52455345 		.ascii	"RESERVED11\000"
 2687      52564544 
 2687      313100
 2688              	.LASF56:
 2689 0561 52455345 		.ascii	"RESERVED12\000"
 2689      52564544 
 2689      313200
 2690              	.LASF63:
 2691 056c 52455345 		.ascii	"RESERVED13\000"
 2691      52564544 
 2691      313300
 2692              	.LASF68:
 2693 0577 52455345 		.ascii	"RESERVED14\000"
 2693      52564544 
 2693      313400
 2694              	.LASF78:
 2695 0582 52455345 		.ascii	"RESERVED15\000"
 2695      52564544 
 2695      313500
 2696              	.LASF80:
 2697 058d 52455345 		.ascii	"RESERVED16\000"
 2697      52564544 
 2697      313600
 2698              	.LASF88:
 2699 0598 52455345 		.ascii	"RESERVED17\000"
 2699      52564544 
 2699      313700
 2700              	.LASF93:
 2701 05a3 52455345 		.ascii	"RESERVED18\000"
 2701      52564544 
 2701      313800
 2702              	.LASF96:
ARM GAS  /tmp/ccB6GPXT.s 			page 53


 2703 05ae 52455345 		.ascii	"RESERVED19\000"
 2703      52564544 
 2703      313900
 2704              	.LASF187:
 2705 05b9 44434743 		.ascii	"DCGCI2C\000"
 2705      49324300 
 2706              	.LASF143:
 2707 05c1 52434743 		.ascii	"RCGCADC\000"
 2707      41444300 
 2708              	.LASF231:
 2709 05c9 50524750 		.ascii	"PRGPIO\000"
 2709      494F00
 2710              	.LASF67:
 2711 05d0 43414E31 		.ascii	"CAN1MPC\000"
 2711      4D504300 
 2712              	.LASF98:
 2713 05d8 52455345 		.ascii	"RESERVED20\000"
 2713      52564544 
 2713      323000
 2714              	.LASF103:
 2715 05e3 52455345 		.ascii	"RESERVED21\000"
 2715      52564544 
 2715      323100
 2716              	.LASF113:
 2717 05ee 52455345 		.ascii	"RESERVED22\000"
 2717      52564544 
 2717      323200
 2718              	.LASF115:
 2719 05f9 52455345 		.ascii	"RESERVED23\000"
 2719      52564544 
 2719      323300
 2720              	.LASF122:
 2721 0604 52455345 		.ascii	"RESERVED24\000"
 2721      52564544 
 2721      323400
 2722              	.LASF124:
 2723 060f 52455345 		.ascii	"RESERVED25\000"
 2723      52564544 
 2723      323500
 2724              	.LASF126:
 2725 061a 52455345 		.ascii	"RESERVED26\000"
 2725      52564544 
 2725      323600
 2726              	.LASF128:
 2727 0625 52455345 		.ascii	"RESERVED27\000"
 2727      52564544 
 2727      323700
 2728              	.LASF138:
 2729 0630 52455345 		.ascii	"RESERVED28\000"
 2729      52564544 
 2729      323800
 2730              	.LASF140:
 2731 063b 52455345 		.ascii	"RESERVED29\000"
 2731      52564544 
 2731      323900
 2732              	.LASF137:
 2733 0646 52434743 		.ascii	"RCGCI2C\000"
ARM GAS  /tmp/ccB6GPXT.s 			page 54


 2733      49324300 
 2734              	.LASF121:
 2735 064e 53525145 		.ascii	"SRQEI\000"
 2735      4900
 2736              	.LASF225:
 2737 0654 50434343 		.ascii	"PCCCM\000"
 2737      4D00
 2738              	.LASF147:
 2739 065a 52455345 		.ascii	"RESERVED30\000"
 2739      52564544 
 2739      333000
 2740              	.LASF149:
 2741 0665 52455345 		.ascii	"RESERVED31\000"
 2741      52564544 
 2741      333100
 2742              	.LASF151:
 2743 0670 52455345 		.ascii	"RESERVED32\000"
 2743      52564544 
 2743      333200
 2744              	.LASF153:
 2745 067b 52455345 		.ascii	"RESERVED33\000"
 2745      52564544 
 2745      333300
 2746              	.LASF163:
 2747 0686 52455345 		.ascii	"RESERVED34\000"
 2747      52564544 
 2747      333400
 2748              	.LASF165:
 2749 0691 52455345 		.ascii	"RESERVED35\000"
 2749      52564544 
 2749      333500
 2750              	.LASF172:
 2751 069c 52455345 		.ascii	"RESERVED36\000"
 2751      52564544 
 2751      333600
 2752              	.LASF174:
 2753 06a7 52455345 		.ascii	"RESERVED37\000"
 2753      52564544 
 2753      333700
 2754              	.LASF176:
 2755 06b2 52455345 		.ascii	"RESERVED38\000"
 2755      52564544 
 2755      333800
 2756              	.LASF178:
 2757 06bd 52455345 		.ascii	"RESERVED39\000"
 2757      52564544 
 2757      333900
 2758              	.LASF216:
 2759 06c8 50434550 		.ascii	"PCEPHY\000"
 2759      485900
 2760              	.LASF36:
 2761 06cf 50494F53 		.ascii	"PIOSCCAL\000"
 2761      4343414C 
 2761      00
 2762              	.LASF200:
 2763 06d8 44434743 		.ascii	"DCGCCCM\000"
 2763      43434D00 
ARM GAS  /tmp/ccB6GPXT.s 			page 55


 2764              	.LASF162:
 2765 06e0 53434743 		.ascii	"SCGCI2C\000"
 2765      49324300 
 2766              	.LASF117:
 2767 06e8 53524341 		.ascii	"SRCAN\000"
 2767      4E00
 2768              	.LASF155:
 2769 06ee 53434743 		.ascii	"SCGCTIMER\000"
 2769      54494D45 
 2769      5200
 2770              	.LASF188:
 2771 06f8 52455345 		.ascii	"RESERVED40\000"
 2771      52564544 
 2771      343000
 2772              	.LASF190:
 2773 0703 52455345 		.ascii	"RESERVED41\000"
 2773      52564544 
 2773      343100
 2774              	.LASF197:
 2775 070e 52455345 		.ascii	"RESERVED42\000"
 2775      52564544 
 2775      343200
 2776              	.LASF199:
 2777 0719 52455345 		.ascii	"RESERVED43\000"
 2777      52564544 
 2777      343300
 2778              	.LASF201:
 2779 0724 52455345 		.ascii	"RESERVED44\000"
 2779      52564544 
 2779      343400
 2780              	.LASF203:
 2781 072f 52455345 		.ascii	"RESERVED45\000"
 2781      52564544 
 2781      343500
 2782              	.LASF213:
 2783 073a 52455345 		.ascii	"RESERVED46\000"
 2783      52564544 
 2783      343600
 2784              	.LASF215:
 2785 0745 52455345 		.ascii	"RESERVED47\000"
 2785      52564544 
 2785      343700
 2786              	.LASF222:
 2787 0750 52455345 		.ascii	"RESERVED48\000"
 2787      52564544 
 2787      343800
 2788              	.LASF224:
 2789 075b 52455345 		.ascii	"RESERVED49\000"
 2789      52564544 
 2789      343900
 2790              	.LASF3:
 2791 0766 73686F72 		.ascii	"short int\000"
 2791      7420696E 
 2791      7400
 2792              	.LASF186:
 2793 0770 44434743 		.ascii	"DCGCSSI\000"
 2793      53534900 
ARM GAS  /tmp/ccB6GPXT.s 			page 56


 2794              	.LASF226:
 2795 0778 52455345 		.ascii	"RESERVED50\000"
 2795      52564544 
 2795      353000
 2796              	.LASF228:
 2797 0783 52455345 		.ascii	"RESERVED51\000"
 2797      52564544 
 2797      353100
 2798              	.LASF238:
 2799 078e 52455345 		.ascii	"RESERVED52\000"
 2799      52564544 
 2799      353200
 2800              	.LASF240:
 2801 0799 52455345 		.ascii	"RESERVED53\000"
 2801      52564544 
 2801      353300
 2802              	.LASF247:
 2803 07a4 52455345 		.ascii	"RESERVED54\000"
 2803      52564544 
 2803      353400
 2804              	.LASF249:
 2805 07af 52455345 		.ascii	"RESERVED55\000"
 2805      52564544 
 2805      353500
 2806              	.LASF210:
 2807 07ba 50435541 		.ascii	"PCUART\000"
 2807      525400
 2808              	.LASF61:
 2809 07c1 454D4143 		.ascii	"EMACPDS\000"
 2809      50445300 
 2810              	.LASF72:
 2811 07c9 5050444D 		.ascii	"PPDMA\000"
 2811      4100
 2812              	.LASF136:
 2813 07cf 52434743 		.ascii	"RCGCSSI\000"
 2813      53534900 
 2814              	.LASF232:
 2815 07d7 5052444D 		.ascii	"PRDMA\000"
 2815      4100
 2816              	.LASF116:
 2817 07dd 53524550 		.ascii	"SREPHY\000"
 2817      485900
 2818              	.LASF90:
 2819 07e4 50504641 		.ascii	"PPFAN\000"
 2819      4E00
 2820              	.LASF99:
 2821 07ea 50504F57 		.ascii	"PPOWIRE\000"
 2821      49524500 
 2822              	.LASF125:
 2823 07f2 53524343 		.ascii	"SRCCM\000"
 2823      4D00
 2824              	.LASF48:
 2825 07f8 4C444F53 		.ascii	"LDOSPCTL\000"
 2825      5043544C 
 2825      00
 2826              	.LASF229:
 2827 0801 50525744 		.ascii	"PRWD\000"
ARM GAS  /tmp/ccB6GPXT.s 			page 57


 2827      00
 2828              	.LASF150:
 2829 0806 52434743 		.ascii	"RCGCCCM\000"
 2829      43434D00 
 2830              	.LASF230:
 2831 080e 50525449 		.ascii	"PRTIMER\000"
 2831      4D455200 
 2832              	.LASF106:
 2833 0816 53524750 		.ascii	"SRGPIO\000"
 2833      494F00
 2834              	.LASF161:
 2835 081d 53434743 		.ascii	"SCGCSSI\000"
 2835      53534900 
 2836              	.LASF12:
 2837 0825 75696E74 		.ascii	"uint32_t\000"
 2837      33325F74 
 2837      00
 2838              	.LASF214:
 2839 082e 50435553 		.ascii	"PCUSB\000"
 2839      4200
 2840              	.LASF257:
 2841 0834 474E5520 		.ascii	"GNU C 4.8.3 20140820 (release) -mcpu=cortex-m4 -mno"
 2841      4320342E 
 2841      382E3320 
 2841      32303134 
 2841      30383230 
 2842 0867 2D746875 		.ascii	"-thumb-interwork -mthumb -ggdb -O2 -fomit-frame-poi"
 2842      6D622D69 
 2842      6E746572 
 2842      776F726B 
 2842      202D6D74 
 2843 089a 6E746572 		.ascii	"nter -falign-functions=16 -ffunction-sections -fdat"
 2843      202D6661 
 2843      6C69676E 
 2843      2D66756E 
 2843      6374696F 
 2844 08cd 612D7365 		.ascii	"a-sections -fno-common\000"
 2844      6374696F 
 2844      6E73202D 
 2844      666E6F2D 
 2844      636F6D6D 
 2845              	.LASF94:
 2846 08e4 50505254 		.ascii	"PPRTS\000"
 2846      5300
 2847              	.LASF183:
 2848 08ea 44434743 		.ascii	"DCGCEPI\000"
 2848      45504900 
 2849              	.LASF25:
 2850 08f2 4D4F5343 		.ascii	"MOSCCTL\000"
 2850      43544C00 
 2851              	.LASF57:
 2852 08fa 48535352 		.ascii	"HSSR\000"
 2852      00
 2853              	.LASF135:
 2854 08ff 52434743 		.ascii	"RCGCUART\000"
 2854      55415254 
 2854      00
ARM GAS  /tmp/ccB6GPXT.s 			page 58


 2855              	.LASF133:
 2856 0908 52434743 		.ascii	"RCGCEPI\000"
 2856      45504900 
 2857              	.LASF4:
 2858 0910 73686F72 		.ascii	"short unsigned int\000"
 2858      7420756E 
 2858      7369676E 
 2858      65642069 
 2858      6E7400
 2859              	.LASF259:
 2860 0923 2F706F6F 		.ascii	"/pool/prototipi/git/tiva-chibios2_6/demos/RT-TM4C12"
 2860      6C2F7072 
 2860      6F746F74 
 2860      6970692F 
 2860      6769742F 
 2861 0956 39342D4C 		.ascii	"94-LAUNCHPAD\000"
 2861      41554E43 
 2861      48504144 
 2861      00
 2862              	.LASF83:
 2863 0963 50504144 		.ascii	"PPADC\000"
 2863      4300
 2864              	.LASF6:
 2865 0969 5F5F696E 		.ascii	"__int32_t\000"
 2865      7433325F 
 2865      7400
 2866              	.LASF66:
 2867 0973 43414E31 		.ascii	"CAN1PDS\000"
 2867      50445300 
 2868              	.LASF209:
 2869 097b 50434849 		.ascii	"PCHIB\000"
 2869      4200
 2870              	.LASF243:
 2871 0981 50524144 		.ascii	"PRADC\000"
 2871      4300
 2872              	.LASF196:
 2873 0987 44434743 		.ascii	"DCGCQEI\000"
 2873      51454900 
 2874              	.LASF77:
 2875 098f 50504932 		.ascii	"PPI2C\000"
 2875      4300
 2876              	.LASF33:
 2877 0995 44534C50 		.ascii	"DSLPCLKCFG\000"
 2877      434C4B43 
 2877      464700
 2878              	.LASF237:
 2879 09a0 50524932 		.ascii	"PRI2C\000"
 2879      4300
 2880              	.LASF158:
 2881 09a6 53434743 		.ascii	"SCGCEPI\000"
 2881      45504900 
 2882              	.LASF191:
 2883 09ae 44434743 		.ascii	"DCGCEPHY\000"
 2883      45504859 
 2883      00
 2884              	.LASF146:
 2885 09b7 52434743 		.ascii	"RCGCQEI\000"
ARM GAS  /tmp/ccB6GPXT.s 			page 59


 2885      51454900 
 2886              	.LASF204:
 2887 09bf 50435744 		.ascii	"PCWD\000"
 2887      00
 2888              	.LASF252:
 2889 09c4 5052454D 		.ascii	"PREMAC\000"
 2889      414300
 2890              	.LASF81:
 2891 09cb 50504550 		.ascii	"PPEPHY\000"
 2891      485900
 2892              		.ident	"GCC: (4.8.3-9+11) 4.8.3 20140820 (release)"
ARM GAS  /tmp/ccB6GPXT.s 			page 60


DEFINED SYMBOLS
                            *ABS*:0000000000000000 hal_lld.c
     /tmp/ccB6GPXT.s:19     .text.hal_lld_init:0000000000000000 $t
     /tmp/ccB6GPXT.s:25     .text.hal_lld_init:0000000000000000 hal_lld_init
     /tmp/ccB6GPXT.s:38     .text.tiva_clock_init:0000000000000000 $t
     /tmp/ccB6GPXT.s:44     .text.tiva_clock_init:0000000000000000 tiva_clock_init
     /tmp/ccB6GPXT.s:112    .text.tiva_clock_init:0000000000000048 $d
                     .debug_frame:0000000000000010 $d
     /tmp/ccB6GPXT.s:119    .text.tiva_clock_init:0000000000000058 $t

NO UNDEFINED SYMBOLS
