ARM GAS  /tmp/ccC3veKt.s 			page 1


   1              		.syntax unified
   2              		.cpu cortex-m4
   3              		.fpu softvfp
   4              		.eabi_attribute 20, 1
   5              		.eabi_attribute 21, 1
   6              		.eabi_attribute 23, 3
   7              		.eabi_attribute 24, 1
   8              		.eabi_attribute 25, 1
   9              		.eabi_attribute 26, 1
  10              		.eabi_attribute 30, 2
  11              		.eabi_attribute 34, 1
  12              		.eabi_attribute 18, 4
  13              		.thumb
  14              		.file	"main.c"
  15              		.text
  16              	.Ltext0:
  17              		.cfi_sections	.debug_frame
  18              		.section	.text.startup.main,"ax",%progbits
  19              		.align	2
  20              		.p2align 4,,15
  21              		.global	main
  22              		.thumb
  23              		.thumb_func
  24              		.type	main, %function
  25              	main:
  26              	.LFB118:
  27              		.file 1 "main.c"
  28              		.loc 1 6 0
  29              		.cfi_startproc
  30              		@ Volatile: function does not return.
  31              		@ args = 0, pretend = 0, frame = 0
  32              		@ frame_needed = 0, uses_anonymous_args = 0
  33 0000 08B5     		push	{r3, lr}
  34              		.cfi_def_cfa_offset 8
  35              		.cfi_offset 3, -8
  36              		.cfi_offset 14, -4
  37              		.loc 1 9 0
  38 0002 FFF7FEFF 		bl	halInit
  39              	.LVL0:
  40              		.loc 1 10 0
  41 0006 FFF7FEFF 		bl	chSysInit
  42              	.LVL1:
  43              		.loc 1 13 0
  44 000a 064C     		ldr	r4, .L4
  45              	.L2:
  46              		.loc 1 13 0 is_stmt 0 discriminator 1
  47 000c D4F8FC33 		ldr	r3, [r4, #1020]
  48 0010 83F00103 		eor	r3, r3, #1
  49 0014 C4F8FC33 		str	r3, [r4, #1020]
  50              		.loc 1 14 0 is_stmt 1 discriminator 1
  51 0018 42F21070 		movw	r0, #10000
  52 001c FFF7FEFF 		bl	chThdSleep
  53              	.LVL2:
  54 0020 F4E7     		b	.L2
  55              	.L5:
  56 0022 00BF     		.align	2
  57              	.L4:
ARM GAS  /tmp/ccC3veKt.s 			page 2


  58 0024 00D00540 		.word	1074122752
  59              		.cfi_endproc
  60              	.LFE118:
  61              		.size	main, .-main
  62 0028 AFF30080 		.text
  62      AFF30080 
  63              	.Letext0:
  64              		.file 2 "/usr/include/newlib/machine/_default_types.h"
  65              		.file 3 "/usr/include/newlib/stdint.h"
  66              		.file 4 "../../os/ports/GCC/ARMCMx/chtypes.h"
  67              		.file 5 "../../os/ports/GCC/ARMCMx/TM4C129x/tm4c129x.h"
  68              		.file 6 "../../os/hal/platforms/TM4C129x/pal_lld.h"
  69              		.file 7 "../../os/hal/include/hal.h"
  70              		.file 8 "../../os/kernel/include/chsys.h"
  71              		.file 9 "../../os/ports/common/ARMCMx/CMSIS/include/core_cm4.h"
  72              		.file 10 "../../os/kernel/include/chthreads.h"
  73              		.section	.debug_info,"",%progbits
  74              	.Ldebug_info0:
  75 0000 B0030000 		.4byte	0x3b0
  76 0004 0400     		.2byte	0x4
  77 0006 00000000 		.4byte	.Ldebug_abbrev0
  78 000a 04       		.byte	0x4
  79 000b 01       		.uleb128 0x1
  80 000c 60010000 		.4byte	.LASF38
  81 0010 01       		.byte	0x1
  82 0011 2F020000 		.4byte	.LASF39
  83 0015 77000000 		.4byte	.LASF40
  84 0019 00000000 		.4byte	.Ldebug_ranges0+0
  85 001d 00000000 		.4byte	0
  86 0021 00000000 		.4byte	.Ldebug_line0
  87 0025 02       		.uleb128 0x2
  88 0026 04       		.byte	0x4
  89 0027 05       		.byte	0x5
  90 0028 696E7400 		.ascii	"int\000"
  91 002c 03       		.uleb128 0x3
  92 002d 04       		.byte	0x4
  93 002e 07       		.byte	0x7
  94 002f 49010000 		.4byte	.LASF0
  95 0033 03       		.uleb128 0x3
  96 0034 01       		.byte	0x1
  97 0035 06       		.byte	0x6
  98 0036 6E020000 		.4byte	.LASF1
  99 003a 03       		.uleb128 0x3
 100 003b 01       		.byte	0x1
 101 003c 08       		.byte	0x8
 102 003d E4000000 		.4byte	.LASF2
 103 0041 03       		.uleb128 0x3
 104 0042 02       		.byte	0x2
 105 0043 05       		.byte	0x5
 106 0044 46020000 		.4byte	.LASF3
 107 0048 03       		.uleb128 0x3
 108 0049 02       		.byte	0x2
 109 004a 07       		.byte	0x7
 110 004b 2B000000 		.4byte	.LASF4
 111 004f 04       		.uleb128 0x4
 112 0050 21000000 		.4byte	.LASF6
 113 0054 02       		.byte	0x2
ARM GAS  /tmp/ccC3veKt.s 			page 3


 114 0055 3F       		.byte	0x3f
 115 0056 5A000000 		.4byte	0x5a
 116 005a 03       		.uleb128 0x3
 117 005b 04       		.byte	0x4
 118 005c 05       		.byte	0x5
 119 005d 5F020000 		.4byte	.LASF5
 120 0061 04       		.uleb128 0x4
 121 0062 1B010000 		.4byte	.LASF7
 122 0066 02       		.byte	0x2
 123 0067 41       		.byte	0x41
 124 0068 6C000000 		.4byte	0x6c
 125 006c 03       		.uleb128 0x3
 126 006d 04       		.byte	0x4
 127 006e 07       		.byte	0x7
 128 006f F7000000 		.4byte	.LASF8
 129 0073 03       		.uleb128 0x3
 130 0074 08       		.byte	0x8
 131 0075 05       		.byte	0x5
 132 0076 21020000 		.4byte	.LASF9
 133 007a 03       		.uleb128 0x3
 134 007b 08       		.byte	0x8
 135 007c 07       		.byte	0x7
 136 007d BF000000 		.4byte	.LASF10
 137 0081 04       		.uleb128 0x4
 138 0082 10020000 		.4byte	.LASF11
 139 0086 03       		.byte	0x3
 140 0087 41       		.byte	0x41
 141 0088 4F000000 		.4byte	0x4f
 142 008c 04       		.uleb128 0x4
 143 008d 56020000 		.4byte	.LASF12
 144 0091 03       		.byte	0x3
 145 0092 42       		.byte	0x42
 146 0093 61000000 		.4byte	0x61
 147 0097 03       		.uleb128 0x3
 148 0098 01       		.byte	0x1
 149 0099 02       		.byte	0x2
 150 009a 85020000 		.4byte	.LASF13
 151 009e 04       		.uleb128 0x4
 152 009f 17000000 		.4byte	.LASF14
 153 00a3 04       		.byte	0x4
 154 00a4 35       		.byte	0x35
 155 00a5 8C000000 		.4byte	0x8c
 156 00a9 03       		.uleb128 0x3
 157 00aa 04       		.byte	0x4
 158 00ab 07       		.byte	0x7
 159 00ac 18020000 		.4byte	.LASF15
 160 00b0 05       		.uleb128 0x5
 161 00b1 8C000000 		.4byte	0x8c
 162 00b5 06       		.uleb128 0x6
 163 00b6 B0000000 		.4byte	0xb0
 164 00ba 07       		.uleb128 0x7
 165 00bb 8C000000 		.4byte	0x8c
 166 00bf CA000000 		.4byte	0xca
 167 00c3 08       		.uleb128 0x8
 168 00c4 A9000000 		.4byte	0xa9
 169 00c8 36       		.byte	0x36
 170 00c9 00       		.byte	0
ARM GAS  /tmp/ccC3veKt.s 			page 4


 171 00ca 09       		.uleb128 0x9
 172 00cb 0004     		.2byte	0x400
 173 00cd 05       		.byte	0x5
 174 00ce 0502     		.2byte	0x205
 175 00d0 F0000000 		.4byte	0xf0
 176 00d4 0A       		.uleb128 0xa
 177 00d5 47000000 		.4byte	.LASF16
 178 00d9 05       		.byte	0x5
 179 00da 0602     		.2byte	0x206
 180 00dc 00010000 		.4byte	0x100
 181 00e0 00       		.byte	0
 182 00e1 0B       		.uleb128 0xb
 183 00e2 72000000 		.4byte	.LASF17
 184 00e6 05       		.byte	0x5
 185 00e7 0702     		.2byte	0x207
 186 00e9 B0000000 		.4byte	0xb0
 187 00ed FC03     		.2byte	0x3fc
 188 00ef 00       		.byte	0
 189 00f0 07       		.uleb128 0x7
 190 00f1 8C000000 		.4byte	0x8c
 191 00f5 00010000 		.4byte	0x100
 192 00f9 08       		.uleb128 0x8
 193 00fa A9000000 		.4byte	0xa9
 194 00fe FE       		.byte	0xfe
 195 00ff 00       		.byte	0
 196 0100 06       		.uleb128 0x6
 197 0101 05010000 		.4byte	0x105
 198 0105 05       		.uleb128 0x5
 199 0106 F0000000 		.4byte	0xf0
 200 010a 0C       		.uleb128 0xc
 201 010b 0004     		.2byte	0x400
 202 010d 05       		.byte	0x5
 203 010e 0302     		.2byte	0x203
 204 0110 26010000 		.4byte	0x126
 205 0114 0D       		.uleb128 0xd
 206 0115 D6000000 		.4byte	.LASF41
 207 0119 05       		.byte	0x5
 208 011a 0402     		.2byte	0x204
 209 011c 36010000 		.4byte	0x136
 210 0120 0E       		.uleb128 0xe
 211 0121 CA000000 		.4byte	0xca
 212 0125 00       		.byte	0
 213 0126 07       		.uleb128 0x7
 214 0127 8C000000 		.4byte	0x8c
 215 012b 36010000 		.4byte	0x136
 216 012f 08       		.uleb128 0x8
 217 0130 A9000000 		.4byte	0xa9
 218 0134 FF       		.byte	0xff
 219 0135 00       		.byte	0
 220 0136 05       		.uleb128 0x5
 221 0137 26010000 		.4byte	0x126
 222 013b 09       		.uleb128 0x9
 223 013c C80F     		.2byte	0xfc8
 224 013e 05       		.byte	0x5
 225 013f 0102     		.2byte	0x201
 226 0141 06030000 		.4byte	0x306
 227 0145 0F       		.uleb128 0xf
ARM GAS  /tmp/ccC3veKt.s 			page 5


 228 0146 0A010000 		.4byte	0x10a
 229 014a 00       		.byte	0
 230 014b 10       		.uleb128 0x10
 231 014c 44495200 		.ascii	"DIR\000"
 232 0150 05       		.byte	0x5
 233 0151 0A02     		.2byte	0x20a
 234 0153 B0000000 		.4byte	0xb0
 235 0157 0004     		.2byte	0x400
 236 0159 10       		.uleb128 0x10
 237 015a 495300   		.ascii	"IS\000"
 238 015d 05       		.byte	0x5
 239 015e 0B02     		.2byte	0x20b
 240 0160 B0000000 		.4byte	0xb0
 241 0164 0404     		.2byte	0x404
 242 0166 10       		.uleb128 0x10
 243 0167 49424500 		.ascii	"IBE\000"
 244 016b 05       		.byte	0x5
 245 016c 0C02     		.2byte	0x20c
 246 016e B0000000 		.4byte	0xb0
 247 0172 0804     		.2byte	0x408
 248 0174 10       		.uleb128 0x10
 249 0175 49455600 		.ascii	"IEV\000"
 250 0179 05       		.byte	0x5
 251 017a 0D02     		.2byte	0x20d
 252 017c B0000000 		.4byte	0xb0
 253 0180 0C04     		.2byte	0x40c
 254 0182 10       		.uleb128 0x10
 255 0183 494D00   		.ascii	"IM\000"
 256 0186 05       		.byte	0x5
 257 0187 0E02     		.2byte	0x20e
 258 0189 B0000000 		.4byte	0xb0
 259 018d 1004     		.2byte	0x410
 260 018f 10       		.uleb128 0x10
 261 0190 52495300 		.ascii	"RIS\000"
 262 0194 05       		.byte	0x5
 263 0195 0F02     		.2byte	0x20f
 264 0197 B5000000 		.4byte	0xb5
 265 019b 1404     		.2byte	0x414
 266 019d 10       		.uleb128 0x10
 267 019e 4D495300 		.ascii	"MIS\000"
 268 01a2 05       		.byte	0x5
 269 01a3 1002     		.2byte	0x210
 270 01a5 B5000000 		.4byte	0xb5
 271 01a9 1804     		.2byte	0x418
 272 01ab 10       		.uleb128 0x10
 273 01ac 49435200 		.ascii	"ICR\000"
 274 01b0 05       		.byte	0x5
 275 01b1 1102     		.2byte	0x211
 276 01b3 B0000000 		.4byte	0xb0
 277 01b7 1C04     		.2byte	0x41c
 278 01b9 0B       		.uleb128 0xb
 279 01ba 09010000 		.4byte	.LASF18
 280 01be 05       		.byte	0x5
 281 01bf 1202     		.2byte	0x212
 282 01c1 B0000000 		.4byte	0xb0
 283 01c5 2004     		.2byte	0x420
 284 01c7 0B       		.uleb128 0xb
ARM GAS  /tmp/ccC3veKt.s 			page 6


 285 01c8 51000000 		.4byte	.LASF19
 286 01cc 05       		.byte	0x5
 287 01cd 1302     		.2byte	0x213
 288 01cf 06030000 		.4byte	0x306
 289 01d3 2404     		.2byte	0x424
 290 01d5 0B       		.uleb128 0xb
 291 01d6 F2000000 		.4byte	.LASF20
 292 01da 05       		.byte	0x5
 293 01db 1402     		.2byte	0x214
 294 01dd B0000000 		.4byte	0xb0
 295 01e1 0005     		.2byte	0x500
 296 01e3 0B       		.uleb128 0xb
 297 01e4 16010000 		.4byte	.LASF21
 298 01e8 05       		.byte	0x5
 299 01e9 1502     		.2byte	0x215
 300 01eb B0000000 		.4byte	0xb0
 301 01ef 0405     		.2byte	0x504
 302 01f1 0B       		.uleb128 0xb
 303 01f2 37010000 		.4byte	.LASF22
 304 01f6 05       		.byte	0x5
 305 01f7 1602     		.2byte	0x216
 306 01f9 B0000000 		.4byte	0xb0
 307 01fd 0805     		.2byte	0x508
 308 01ff 10       		.uleb128 0x10
 309 0200 4F445200 		.ascii	"ODR\000"
 310 0204 05       		.byte	0x5
 311 0205 1702     		.2byte	0x217
 312 0207 B0000000 		.4byte	0xb0
 313 020b 0C05     		.2byte	0x50c
 314 020d 10       		.uleb128 0x10
 315 020e 50555200 		.ascii	"PUR\000"
 316 0212 05       		.byte	0x5
 317 0213 1802     		.2byte	0x218
 318 0215 B0000000 		.4byte	0xb0
 319 0219 1005     		.2byte	0x510
 320 021b 10       		.uleb128 0x10
 321 021c 50445200 		.ascii	"PDR\000"
 322 0220 05       		.byte	0x5
 323 0221 1902     		.2byte	0x219
 324 0223 B0000000 		.4byte	0xb0
 325 0227 1405     		.2byte	0x514
 326 0229 10       		.uleb128 0x10
 327 022a 534C5200 		.ascii	"SLR\000"
 328 022e 05       		.byte	0x5
 329 022f 1A02     		.2byte	0x21a
 330 0231 B0000000 		.4byte	0xb0
 331 0235 1805     		.2byte	0x518
 332 0237 10       		.uleb128 0x10
 333 0238 44454E00 		.ascii	"DEN\000"
 334 023c 05       		.byte	0x5
 335 023d 1B02     		.2byte	0x21b
 336 023f B0000000 		.4byte	0xb0
 337 0243 1C05     		.2byte	0x51c
 338 0245 0B       		.uleb128 0xb
 339 0246 2D010000 		.4byte	.LASF23
 340 024a 05       		.byte	0x5
 341 024b 1C02     		.2byte	0x21c
ARM GAS  /tmp/ccC3veKt.s 			page 7


 342 024d B0000000 		.4byte	0xb0
 343 0251 2005     		.2byte	0x520
 344 0253 10       		.uleb128 0x10
 345 0254 435200   		.ascii	"CR\000"
 346 0257 05       		.byte	0x5
 347 0258 1D02     		.2byte	0x21d
 348 025a B0000000 		.4byte	0xb0
 349 025e 2405     		.2byte	0x524
 350 0260 0B       		.uleb128 0xb
 351 0261 50020000 		.4byte	.LASF24
 352 0265 05       		.byte	0x5
 353 0266 1E02     		.2byte	0x21e
 354 0268 B0000000 		.4byte	0xb0
 355 026c 2805     		.2byte	0x528
 356 026e 0B       		.uleb128 0xb
 357 026f 56010000 		.4byte	.LASF25
 358 0273 05       		.byte	0x5
 359 0274 1F02     		.2byte	0x21f
 360 0276 B0000000 		.4byte	0xb0
 361 027a 2C05     		.2byte	0x52c
 362 027c 0B       		.uleb128 0xb
 363 027d 0F010000 		.4byte	.LASF26
 364 0281 05       		.byte	0x5
 365 0282 2002     		.2byte	0x220
 366 0284 B0000000 		.4byte	0xb0
 367 0288 3005     		.2byte	0x530
 368 028a 0B       		.uleb128 0xb
 369 028b 26010000 		.4byte	.LASF27
 370 028f 05       		.byte	0x5
 371 0290 2102     		.2byte	0x221
 372 0292 B0000000 		.4byte	0xb0
 373 0296 3405     		.2byte	0x534
 374 0298 10       		.uleb128 0x10
 375 0299 534900   		.ascii	"SI\000"
 376 029c 05       		.byte	0x5
 377 029d 2202     		.2byte	0x222
 378 029f B0000000 		.4byte	0xb0
 379 02a3 3805     		.2byte	0x538
 380 02a5 0B       		.uleb128 0xb
 381 02a6 68020000 		.4byte	.LASF28
 382 02aa 05       		.byte	0x5
 383 02ab 2302     		.2byte	0x223
 384 02ad B0000000 		.4byte	0xb0
 385 02b1 3C05     		.2byte	0x53c
 386 02b3 0B       		.uleb128 0xb
 387 02b4 36020000 		.4byte	.LASF29
 388 02b8 05       		.byte	0x5
 389 02b9 2402     		.2byte	0x224
 390 02bb B0000000 		.4byte	0xb0
 391 02bf 4005     		.2byte	0x540
 392 02c1 0B       		.uleb128 0xb
 393 02c2 3E020000 		.4byte	.LASF30
 394 02c6 05       		.byte	0x5
 395 02c7 2502     		.2byte	0x225
 396 02c9 B0000000 		.4byte	0xb0
 397 02cd 4405     		.2byte	0x544
 398 02cf 0B       		.uleb128 0xb
ARM GAS  /tmp/ccC3veKt.s 			page 8


 399 02d0 3E000000 		.4byte	.LASF31
 400 02d4 05       		.byte	0x5
 401 02d5 2602     		.2byte	0x226
 402 02d7 B0000000 		.4byte	0xb0
 403 02db 4805     		.2byte	0x548
 404 02dd 0B       		.uleb128 0xb
 405 02de 5B000000 		.4byte	.LASF32
 406 02e2 05       		.byte	0x5
 407 02e3 2702     		.2byte	0x227
 408 02e5 21030000 		.4byte	0x321
 409 02e9 4C05     		.2byte	0x54c
 410 02eb 10       		.uleb128 0x10
 411 02ec 505000   		.ascii	"PP\000"
 412 02ef 05       		.byte	0x5
 413 02f0 2802     		.2byte	0x228
 414 02f2 B5000000 		.4byte	0xb5
 415 02f6 C00F     		.2byte	0xfc0
 416 02f8 10       		.uleb128 0x10
 417 02f9 504300   		.ascii	"PC\000"
 418 02fc 05       		.byte	0x5
 419 02fd 2902     		.2byte	0x229
 420 02ff B0000000 		.4byte	0xb0
 421 0303 C40F     		.2byte	0xfc4
 422 0305 00       		.byte	0
 423 0306 06       		.uleb128 0x6
 424 0307 0B030000 		.4byte	0x30b
 425 030b 05       		.uleb128 0x5
 426 030c BA000000 		.4byte	0xba
 427 0310 07       		.uleb128 0x7
 428 0311 8C000000 		.4byte	0x8c
 429 0315 21030000 		.4byte	0x321
 430 0319 11       		.uleb128 0x11
 431 031a A9000000 		.4byte	0xa9
 432 031e 9C02     		.2byte	0x29c
 433 0320 00       		.byte	0
 434 0321 06       		.uleb128 0x6
 435 0322 26030000 		.4byte	0x326
 436 0326 05       		.uleb128 0x5
 437 0327 10030000 		.4byte	0x310
 438 032b 12       		.uleb128 0x12
 439 032c 0A000000 		.4byte	.LASF33
 440 0330 05       		.byte	0x5
 441 0331 2A02     		.2byte	0x22a
 442 0333 3B010000 		.4byte	0x13b
 443 0337 03       		.uleb128 0x3
 444 0338 01       		.byte	0x1
 445 0339 08       		.byte	0x8
 446 033a 5B010000 		.4byte	.LASF34
 447 033e 04       		.uleb128 0x4
 448 033f 65000000 		.4byte	.LASF35
 449 0343 06       		.byte	0x6
 450 0344 A8       		.byte	0xa8
 451 0345 8C000000 		.4byte	0x8c
 452 0349 13       		.uleb128 0x13
 453 034a 32010000 		.4byte	.LASF42
 454 034e 01       		.byte	0x1
 455 034f 06       		.byte	0x6
ARM GAS  /tmp/ccC3veKt.s 			page 9


 456 0350 25000000 		.4byte	0x25
 457 0354 00000000 		.4byte	.LFB118
 458 0358 28000000 		.4byte	.LFE118-.LFB118
 459 035c 01       		.uleb128 0x1
 460 035d 9C       		.byte	0x9c
 461 035e 86030000 		.4byte	0x386
 462 0362 14       		.uleb128 0x14
 463 0363 06000000 		.4byte	.LVL0
 464 0367 97030000 		.4byte	0x397
 465 036b 14       		.uleb128 0x14
 466 036c 0A000000 		.4byte	.LVL1
 467 0370 9E030000 		.4byte	0x39e
 468 0374 15       		.uleb128 0x15
 469 0375 20000000 		.4byte	.LVL2
 470 0379 A5030000 		.4byte	0x3a5
 471 037d 16       		.uleb128 0x16
 472 037e 01       		.uleb128 0x1
 473 037f 50       		.byte	0x50
 474 0380 03       		.uleb128 0x3
 475 0381 0A       		.byte	0xa
 476 0382 1027     		.2byte	0x2710
 477 0384 00       		.byte	0
 478 0385 00       		.byte	0
 479 0386 17       		.uleb128 0x17
 480 0387 3C010000 		.4byte	.LASF43
 481 038b 09       		.byte	0x9
 482 038c 9806     		.2byte	0x698
 483 038e 92030000 		.4byte	0x392
 484 0392 05       		.uleb128 0x5
 485 0393 81000000 		.4byte	0x81
 486 0397 18       		.uleb128 0x18
 487 0398 B7000000 		.4byte	.LASF36
 488 039c 07       		.byte	0x7
 489 039d D0       		.byte	0xd0
 490 039e 18       		.uleb128 0x18
 491 039f 00000000 		.4byte	.LASF37
 492 03a3 08       		.byte	0x8
 493 03a4 F6       		.byte	0xf6
 494 03a5 19       		.uleb128 0x19
 495 03a6 7A020000 		.4byte	.LASF44
 496 03aa 0A       		.byte	0xa
 497 03ab 7501     		.2byte	0x175
 498 03ad 1A       		.uleb128 0x1a
 499 03ae 9E000000 		.4byte	0x9e
 500 03b2 00       		.byte	0
 501 03b3 00       		.byte	0
 502              		.section	.debug_abbrev,"",%progbits
 503              	.Ldebug_abbrev0:
 504 0000 01       		.uleb128 0x1
 505 0001 11       		.uleb128 0x11
 506 0002 01       		.byte	0x1
 507 0003 25       		.uleb128 0x25
 508 0004 0E       		.uleb128 0xe
 509 0005 13       		.uleb128 0x13
 510 0006 0B       		.uleb128 0xb
 511 0007 03       		.uleb128 0x3
 512 0008 0E       		.uleb128 0xe
ARM GAS  /tmp/ccC3veKt.s 			page 10


 513 0009 1B       		.uleb128 0x1b
 514 000a 0E       		.uleb128 0xe
 515 000b 55       		.uleb128 0x55
 516 000c 17       		.uleb128 0x17
 517 000d 11       		.uleb128 0x11
 518 000e 01       		.uleb128 0x1
 519 000f 10       		.uleb128 0x10
 520 0010 17       		.uleb128 0x17
 521 0011 00       		.byte	0
 522 0012 00       		.byte	0
 523 0013 02       		.uleb128 0x2
 524 0014 24       		.uleb128 0x24
 525 0015 00       		.byte	0
 526 0016 0B       		.uleb128 0xb
 527 0017 0B       		.uleb128 0xb
 528 0018 3E       		.uleb128 0x3e
 529 0019 0B       		.uleb128 0xb
 530 001a 03       		.uleb128 0x3
 531 001b 08       		.uleb128 0x8
 532 001c 00       		.byte	0
 533 001d 00       		.byte	0
 534 001e 03       		.uleb128 0x3
 535 001f 24       		.uleb128 0x24
 536 0020 00       		.byte	0
 537 0021 0B       		.uleb128 0xb
 538 0022 0B       		.uleb128 0xb
 539 0023 3E       		.uleb128 0x3e
 540 0024 0B       		.uleb128 0xb
 541 0025 03       		.uleb128 0x3
 542 0026 0E       		.uleb128 0xe
 543 0027 00       		.byte	0
 544 0028 00       		.byte	0
 545 0029 04       		.uleb128 0x4
 546 002a 16       		.uleb128 0x16
 547 002b 00       		.byte	0
 548 002c 03       		.uleb128 0x3
 549 002d 0E       		.uleb128 0xe
 550 002e 3A       		.uleb128 0x3a
 551 002f 0B       		.uleb128 0xb
 552 0030 3B       		.uleb128 0x3b
 553 0031 0B       		.uleb128 0xb
 554 0032 49       		.uleb128 0x49
 555 0033 13       		.uleb128 0x13
 556 0034 00       		.byte	0
 557 0035 00       		.byte	0
 558 0036 05       		.uleb128 0x5
 559 0037 35       		.uleb128 0x35
 560 0038 00       		.byte	0
 561 0039 49       		.uleb128 0x49
 562 003a 13       		.uleb128 0x13
 563 003b 00       		.byte	0
 564 003c 00       		.byte	0
 565 003d 06       		.uleb128 0x6
 566 003e 26       		.uleb128 0x26
 567 003f 00       		.byte	0
 568 0040 49       		.uleb128 0x49
 569 0041 13       		.uleb128 0x13
ARM GAS  /tmp/ccC3veKt.s 			page 11


 570 0042 00       		.byte	0
 571 0043 00       		.byte	0
 572 0044 07       		.uleb128 0x7
 573 0045 01       		.uleb128 0x1
 574 0046 01       		.byte	0x1
 575 0047 49       		.uleb128 0x49
 576 0048 13       		.uleb128 0x13
 577 0049 01       		.uleb128 0x1
 578 004a 13       		.uleb128 0x13
 579 004b 00       		.byte	0
 580 004c 00       		.byte	0
 581 004d 08       		.uleb128 0x8
 582 004e 21       		.uleb128 0x21
 583 004f 00       		.byte	0
 584 0050 49       		.uleb128 0x49
 585 0051 13       		.uleb128 0x13
 586 0052 2F       		.uleb128 0x2f
 587 0053 0B       		.uleb128 0xb
 588 0054 00       		.byte	0
 589 0055 00       		.byte	0
 590 0056 09       		.uleb128 0x9
 591 0057 13       		.uleb128 0x13
 592 0058 01       		.byte	0x1
 593 0059 0B       		.uleb128 0xb
 594 005a 05       		.uleb128 0x5
 595 005b 3A       		.uleb128 0x3a
 596 005c 0B       		.uleb128 0xb
 597 005d 3B       		.uleb128 0x3b
 598 005e 05       		.uleb128 0x5
 599 005f 01       		.uleb128 0x1
 600 0060 13       		.uleb128 0x13
 601 0061 00       		.byte	0
 602 0062 00       		.byte	0
 603 0063 0A       		.uleb128 0xa
 604 0064 0D       		.uleb128 0xd
 605 0065 00       		.byte	0
 606 0066 03       		.uleb128 0x3
 607 0067 0E       		.uleb128 0xe
 608 0068 3A       		.uleb128 0x3a
 609 0069 0B       		.uleb128 0xb
 610 006a 3B       		.uleb128 0x3b
 611 006b 05       		.uleb128 0x5
 612 006c 49       		.uleb128 0x49
 613 006d 13       		.uleb128 0x13
 614 006e 38       		.uleb128 0x38
 615 006f 0B       		.uleb128 0xb
 616 0070 00       		.byte	0
 617 0071 00       		.byte	0
 618 0072 0B       		.uleb128 0xb
 619 0073 0D       		.uleb128 0xd
 620 0074 00       		.byte	0
 621 0075 03       		.uleb128 0x3
 622 0076 0E       		.uleb128 0xe
 623 0077 3A       		.uleb128 0x3a
 624 0078 0B       		.uleb128 0xb
 625 0079 3B       		.uleb128 0x3b
 626 007a 05       		.uleb128 0x5
ARM GAS  /tmp/ccC3veKt.s 			page 12


 627 007b 49       		.uleb128 0x49
 628 007c 13       		.uleb128 0x13
 629 007d 38       		.uleb128 0x38
 630 007e 05       		.uleb128 0x5
 631 007f 00       		.byte	0
 632 0080 00       		.byte	0
 633 0081 0C       		.uleb128 0xc
 634 0082 17       		.uleb128 0x17
 635 0083 01       		.byte	0x1
 636 0084 0B       		.uleb128 0xb
 637 0085 05       		.uleb128 0x5
 638 0086 3A       		.uleb128 0x3a
 639 0087 0B       		.uleb128 0xb
 640 0088 3B       		.uleb128 0x3b
 641 0089 05       		.uleb128 0x5
 642 008a 01       		.uleb128 0x1
 643 008b 13       		.uleb128 0x13
 644 008c 00       		.byte	0
 645 008d 00       		.byte	0
 646 008e 0D       		.uleb128 0xd
 647 008f 0D       		.uleb128 0xd
 648 0090 00       		.byte	0
 649 0091 03       		.uleb128 0x3
 650 0092 0E       		.uleb128 0xe
 651 0093 3A       		.uleb128 0x3a
 652 0094 0B       		.uleb128 0xb
 653 0095 3B       		.uleb128 0x3b
 654 0096 05       		.uleb128 0x5
 655 0097 49       		.uleb128 0x49
 656 0098 13       		.uleb128 0x13
 657 0099 00       		.byte	0
 658 009a 00       		.byte	0
 659 009b 0E       		.uleb128 0xe
 660 009c 0D       		.uleb128 0xd
 661 009d 00       		.byte	0
 662 009e 49       		.uleb128 0x49
 663 009f 13       		.uleb128 0x13
 664 00a0 00       		.byte	0
 665 00a1 00       		.byte	0
 666 00a2 0F       		.uleb128 0xf
 667 00a3 0D       		.uleb128 0xd
 668 00a4 00       		.byte	0
 669 00a5 49       		.uleb128 0x49
 670 00a6 13       		.uleb128 0x13
 671 00a7 38       		.uleb128 0x38
 672 00a8 0B       		.uleb128 0xb
 673 00a9 00       		.byte	0
 674 00aa 00       		.byte	0
 675 00ab 10       		.uleb128 0x10
 676 00ac 0D       		.uleb128 0xd
 677 00ad 00       		.byte	0
 678 00ae 03       		.uleb128 0x3
 679 00af 08       		.uleb128 0x8
 680 00b0 3A       		.uleb128 0x3a
 681 00b1 0B       		.uleb128 0xb
 682 00b2 3B       		.uleb128 0x3b
 683 00b3 05       		.uleb128 0x5
ARM GAS  /tmp/ccC3veKt.s 			page 13


 684 00b4 49       		.uleb128 0x49
 685 00b5 13       		.uleb128 0x13
 686 00b6 38       		.uleb128 0x38
 687 00b7 05       		.uleb128 0x5
 688 00b8 00       		.byte	0
 689 00b9 00       		.byte	0
 690 00ba 11       		.uleb128 0x11
 691 00bb 21       		.uleb128 0x21
 692 00bc 00       		.byte	0
 693 00bd 49       		.uleb128 0x49
 694 00be 13       		.uleb128 0x13
 695 00bf 2F       		.uleb128 0x2f
 696 00c0 05       		.uleb128 0x5
 697 00c1 00       		.byte	0
 698 00c2 00       		.byte	0
 699 00c3 12       		.uleb128 0x12
 700 00c4 16       		.uleb128 0x16
 701 00c5 00       		.byte	0
 702 00c6 03       		.uleb128 0x3
 703 00c7 0E       		.uleb128 0xe
 704 00c8 3A       		.uleb128 0x3a
 705 00c9 0B       		.uleb128 0xb
 706 00ca 3B       		.uleb128 0x3b
 707 00cb 05       		.uleb128 0x5
 708 00cc 49       		.uleb128 0x49
 709 00cd 13       		.uleb128 0x13
 710 00ce 00       		.byte	0
 711 00cf 00       		.byte	0
 712 00d0 13       		.uleb128 0x13
 713 00d1 2E       		.uleb128 0x2e
 714 00d2 01       		.byte	0x1
 715 00d3 3F       		.uleb128 0x3f
 716 00d4 19       		.uleb128 0x19
 717 00d5 03       		.uleb128 0x3
 718 00d6 0E       		.uleb128 0xe
 719 00d7 3A       		.uleb128 0x3a
 720 00d8 0B       		.uleb128 0xb
 721 00d9 3B       		.uleb128 0x3b
 722 00da 0B       		.uleb128 0xb
 723 00db 27       		.uleb128 0x27
 724 00dc 19       		.uleb128 0x19
 725 00dd 49       		.uleb128 0x49
 726 00de 13       		.uleb128 0x13
 727 00df 11       		.uleb128 0x11
 728 00e0 01       		.uleb128 0x1
 729 00e1 12       		.uleb128 0x12
 730 00e2 06       		.uleb128 0x6
 731 00e3 40       		.uleb128 0x40
 732 00e4 18       		.uleb128 0x18
 733 00e5 9742     		.uleb128 0x2117
 734 00e7 19       		.uleb128 0x19
 735 00e8 01       		.uleb128 0x1
 736 00e9 13       		.uleb128 0x13
 737 00ea 00       		.byte	0
 738 00eb 00       		.byte	0
 739 00ec 14       		.uleb128 0x14
 740 00ed 898201   		.uleb128 0x4109
ARM GAS  /tmp/ccC3veKt.s 			page 14


 741 00f0 00       		.byte	0
 742 00f1 11       		.uleb128 0x11
 743 00f2 01       		.uleb128 0x1
 744 00f3 31       		.uleb128 0x31
 745 00f4 13       		.uleb128 0x13
 746 00f5 00       		.byte	0
 747 00f6 00       		.byte	0
 748 00f7 15       		.uleb128 0x15
 749 00f8 898201   		.uleb128 0x4109
 750 00fb 01       		.byte	0x1
 751 00fc 11       		.uleb128 0x11
 752 00fd 01       		.uleb128 0x1
 753 00fe 31       		.uleb128 0x31
 754 00ff 13       		.uleb128 0x13
 755 0100 00       		.byte	0
 756 0101 00       		.byte	0
 757 0102 16       		.uleb128 0x16
 758 0103 8A8201   		.uleb128 0x410a
 759 0106 00       		.byte	0
 760 0107 02       		.uleb128 0x2
 761 0108 18       		.uleb128 0x18
 762 0109 9142     		.uleb128 0x2111
 763 010b 18       		.uleb128 0x18
 764 010c 00       		.byte	0
 765 010d 00       		.byte	0
 766 010e 17       		.uleb128 0x17
 767 010f 34       		.uleb128 0x34
 768 0110 00       		.byte	0
 769 0111 03       		.uleb128 0x3
 770 0112 0E       		.uleb128 0xe
 771 0113 3A       		.uleb128 0x3a
 772 0114 0B       		.uleb128 0xb
 773 0115 3B       		.uleb128 0x3b
 774 0116 05       		.uleb128 0x5
 775 0117 49       		.uleb128 0x49
 776 0118 13       		.uleb128 0x13
 777 0119 3F       		.uleb128 0x3f
 778 011a 19       		.uleb128 0x19
 779 011b 3C       		.uleb128 0x3c
 780 011c 19       		.uleb128 0x19
 781 011d 00       		.byte	0
 782 011e 00       		.byte	0
 783 011f 18       		.uleb128 0x18
 784 0120 2E       		.uleb128 0x2e
 785 0121 00       		.byte	0
 786 0122 3F       		.uleb128 0x3f
 787 0123 19       		.uleb128 0x19
 788 0124 03       		.uleb128 0x3
 789 0125 0E       		.uleb128 0xe
 790 0126 3A       		.uleb128 0x3a
 791 0127 0B       		.uleb128 0xb
 792 0128 3B       		.uleb128 0x3b
 793 0129 0B       		.uleb128 0xb
 794 012a 27       		.uleb128 0x27
 795 012b 19       		.uleb128 0x19
 796 012c 3C       		.uleb128 0x3c
 797 012d 19       		.uleb128 0x19
ARM GAS  /tmp/ccC3veKt.s 			page 15


 798 012e 00       		.byte	0
 799 012f 00       		.byte	0
 800 0130 19       		.uleb128 0x19
 801 0131 2E       		.uleb128 0x2e
 802 0132 01       		.byte	0x1
 803 0133 3F       		.uleb128 0x3f
 804 0134 19       		.uleb128 0x19
 805 0135 03       		.uleb128 0x3
 806 0136 0E       		.uleb128 0xe
 807 0137 3A       		.uleb128 0x3a
 808 0138 0B       		.uleb128 0xb
 809 0139 3B       		.uleb128 0x3b
 810 013a 05       		.uleb128 0x5
 811 013b 27       		.uleb128 0x27
 812 013c 19       		.uleb128 0x19
 813 013d 3C       		.uleb128 0x3c
 814 013e 19       		.uleb128 0x19
 815 013f 00       		.byte	0
 816 0140 00       		.byte	0
 817 0141 1A       		.uleb128 0x1a
 818 0142 05       		.uleb128 0x5
 819 0143 00       		.byte	0
 820 0144 49       		.uleb128 0x49
 821 0145 13       		.uleb128 0x13
 822 0146 00       		.byte	0
 823 0147 00       		.byte	0
 824 0148 00       		.byte	0
 825              		.section	.debug_aranges,"",%progbits
 826 0000 1C000000 		.4byte	0x1c
 827 0004 0200     		.2byte	0x2
 828 0006 00000000 		.4byte	.Ldebug_info0
 829 000a 04       		.byte	0x4
 830 000b 00       		.byte	0
 831 000c 0000     		.2byte	0
 832 000e 0000     		.2byte	0
 833 0010 00000000 		.4byte	.LFB118
 834 0014 28000000 		.4byte	.LFE118-.LFB118
 835 0018 00000000 		.4byte	0
 836 001c 00000000 		.4byte	0
 837              		.section	.debug_ranges,"",%progbits
 838              	.Ldebug_ranges0:
 839 0000 00000000 		.4byte	.LFB118
 840 0004 28000000 		.4byte	.LFE118
 841 0008 00000000 		.4byte	0
 842 000c 00000000 		.4byte	0
 843              		.section	.debug_line,"",%progbits
 844              	.Ldebug_line0:
 845 0000 9D010000 		.section	.debug_str,"MS",%progbits,1
 845      02007B01 
 845      00000201 
 845      FB0E0D00 
 845      01010101 
 846              	.LASF37:
 847 0000 63685379 		.ascii	"chSysInit\000"
 847      73496E69 
 847      7400
 848              	.LASF33:
ARM GAS  /tmp/ccC3veKt.s 			page 16


 849 000a 4750494F 		.ascii	"GPIO_TypeDef\000"
 849      5F547970 
 849      65446566 
 849      00
 850              	.LASF14:
 851 0017 73797374 		.ascii	"systime_t\000"
 851      696D655F 
 851      7400
 852              	.LASF6:
 853 0021 5F5F696E 		.ascii	"__int32_t\000"
 853      7433325F 
 853      7400
 854              	.LASF4:
 855 002b 73686F72 		.ascii	"short unsigned int\000"
 855      7420756E 
 855      7369676E 
 855      65642069 
 855      6E7400
 856              	.LASF31:
 857 003e 57414B45 		.ascii	"WAKESTAT\000"
 857      53544154 
 857      00
 858              	.LASF16:
 859 0047 52455345 		.ascii	"RESERVED0\000"
 859      52564544 
 859      3000
 860              	.LASF19:
 861 0051 52455345 		.ascii	"RESERVED1\000"
 861      52564544 
 861      3100
 862              	.LASF32:
 863 005b 52455345 		.ascii	"RESERVED2\000"
 863      52564544 
 863      3200
 864              	.LASF35:
 865 0065 696F706F 		.ascii	"ioportmask_t\000"
 865      72746D61 
 865      736B5F74 
 865      00
 866              	.LASF17:
 867 0072 44415441 		.ascii	"DATA\000"
 867      00
 868              	.LASF40:
 869 0077 2F706F6F 		.ascii	"/pool/prototipi/git/tiva-chibios2_6/demos/RT-TM4C12"
 869      6C2F7072 
 869      6F746F74 
 869      6970692F 
 869      6769742F 
 870 00aa 39342D4C 		.ascii	"94-LAUNCHPAD\000"
 870      41554E43 
 870      48504144 
 870      00
 871              	.LASF36:
 872 00b7 68616C49 		.ascii	"halInit\000"
 872      6E697400 
 873              	.LASF10:
 874 00bf 6C6F6E67 		.ascii	"long long unsigned int\000"
ARM GAS  /tmp/ccC3veKt.s 			page 17


 874      206C6F6E 
 874      6720756E 
 874      7369676E 
 874      65642069 
 875              	.LASF41:
 876 00d6 4D41534B 		.ascii	"MASKED_ACCESS\000"
 876      45445F41 
 876      43434553 
 876      5300
 877              	.LASF2:
 878 00e4 756E7369 		.ascii	"unsigned char\000"
 878      676E6564 
 878      20636861 
 878      7200
 879              	.LASF20:
 880 00f2 44523252 		.ascii	"DR2R\000"
 880      00
 881              	.LASF8:
 882 00f7 6C6F6E67 		.ascii	"long unsigned int\000"
 882      20756E73 
 882      69676E65 
 882      6420696E 
 882      7400
 883              	.LASF18:
 884 0109 41465345 		.ascii	"AFSEL\000"
 884      4C00
 885              	.LASF26:
 886 010f 41444343 		.ascii	"ADCCTL\000"
 886      544C00
 887              	.LASF21:
 888 0116 44523452 		.ascii	"DR4R\000"
 888      00
 889              	.LASF7:
 890 011b 5F5F7569 		.ascii	"__uint32_t\000"
 890      6E743332 
 890      5F7400
 891              	.LASF27:
 892 0126 444D4143 		.ascii	"DMACTL\000"
 892      544C00
 893              	.LASF23:
 894 012d 4C4F434B 		.ascii	"LOCK\000"
 894      00
 895              	.LASF42:
 896 0132 6D61696E 		.ascii	"main\000"
 896      00
 897              	.LASF22:
 898 0137 44523852 		.ascii	"DR8R\000"
 898      00
 899              	.LASF43:
 900 013c 49544D5F 		.ascii	"ITM_RxBuffer\000"
 900      52784275 
 900      66666572 
 900      00
 901              	.LASF0:
 902 0149 756E7369 		.ascii	"unsigned int\000"
 902      676E6564 
 902      20696E74 
ARM GAS  /tmp/ccC3veKt.s 			page 18


 902      00
 903              	.LASF25:
 904 0156 5043544C 		.ascii	"PCTL\000"
 904      00
 905              	.LASF34:
 906 015b 63686172 		.ascii	"char\000"
 906      00
 907              	.LASF38:
 908 0160 474E5520 		.ascii	"GNU C 4.8.3 20140820 (release) -mcpu=cortex-m4 -mno"
 908      4320342E 
 908      382E3320 
 908      32303134 
 908      30383230 
 909 0193 2D746875 		.ascii	"-thumb-interwork -mthumb -ggdb -O2 -fomit-frame-poi"
 909      6D622D69 
 909      6E746572 
 909      776F726B 
 909      202D6D74 
 910 01c6 6E746572 		.ascii	"nter -falign-functions=16 -ffunction-sections -fdat"
 910      202D6661 
 910      6C69676E 
 910      2D66756E 
 910      6374696F 
 911 01f9 612D7365 		.ascii	"a-sections -fno-common\000"
 911      6374696F 
 911      6E73202D 
 911      666E6F2D 
 911      636F6D6D 
 912              	.LASF11:
 913 0210 696E7433 		.ascii	"int32_t\000"
 913      325F7400 
 914              	.LASF15:
 915 0218 73697A65 		.ascii	"sizetype\000"
 915      74797065 
 915      00
 916              	.LASF9:
 917 0221 6C6F6E67 		.ascii	"long long int\000"
 917      206C6F6E 
 917      6720696E 
 917      7400
 918              	.LASF39:
 919 022f 6D61696E 		.ascii	"main.c\000"
 919      2E6300
 920              	.LASF29:
 921 0236 57414B45 		.ascii	"WAKEPEN\000"
 921      50454E00 
 922              	.LASF30:
 923 023e 57414B45 		.ascii	"WAKELVL\000"
 923      4C564C00 
 924              	.LASF3:
 925 0246 73686F72 		.ascii	"short int\000"
 925      7420696E 
 925      7400
 926              	.LASF24:
 927 0250 414D5345 		.ascii	"AMSEL\000"
 927      4C00
 928              	.LASF12:
ARM GAS  /tmp/ccC3veKt.s 			page 19


 929 0256 75696E74 		.ascii	"uint32_t\000"
 929      33325F74 
 929      00
 930              	.LASF5:
 931 025f 6C6F6E67 		.ascii	"long int\000"
 931      20696E74 
 931      00
 932              	.LASF28:
 933 0268 44523132 		.ascii	"DR12R\000"
 933      5200
 934              	.LASF1:
 935 026e 7369676E 		.ascii	"signed char\000"
 935      65642063 
 935      68617200 
 936              	.LASF44:
 937 027a 63685468 		.ascii	"chThdSleep\000"
 937      64536C65 
 937      657000
 938              	.LASF13:
 939 0285 5F426F6F 		.ascii	"_Bool\000"
 939      6C00
 940              		.ident	"GCC: (4.8.3-9+11) 4.8.3 20140820 (release)"
ARM GAS  /tmp/ccC3veKt.s 			page 20


DEFINED SYMBOLS
                            *ABS*:0000000000000000 main.c
     /tmp/ccC3veKt.s:19     .text.startup.main:0000000000000000 $t
     /tmp/ccC3veKt.s:25     .text.startup.main:0000000000000000 main
     /tmp/ccC3veKt.s:58     .text.startup.main:0000000000000024 $d
                     .debug_frame:0000000000000010 $d
     /tmp/ccC3veKt.s:62     .text.startup.main:0000000000000028 $t

UNDEFINED SYMBOLS
halInit
chSysInit
chThdSleep
