ARM GAS  /tmp/ccI6igM0.s 			page 1


   1              		.syntax unified
   2              		.cpu cortex-m4
   3              		.fpu softvfp
   4              		.eabi_attribute 20, 1
   5              		.eabi_attribute 21, 1
   6              		.eabi_attribute 23, 3
   7              		.eabi_attribute 24, 1
   8              		.eabi_attribute 25, 1
   9              		.eabi_attribute 26, 1
  10              		.eabi_attribute 30, 2
  11              		.eabi_attribute 34, 1
  12              		.eabi_attribute 18, 4
  13              		.thumb
  14              		.file	"nvic.c"
  15              		.text
  16              	.Ltext0:
  17              		.cfi_sections	.debug_frame
  18              		.section	.text.nvicEnableVector,"ax",%progbits
  19              		.align	2
  20              		.p2align 4,,15
  21              		.global	nvicEnableVector
  22              		.thumb
  23              		.thumb_func
  24              		.type	nvicEnableVector, %function
  25              	nvicEnableVector:
  26              	.LFB118:
  27              		.file 1 "../../os/ports/common/ARMCMx/nvic.c"
  28              		.loc 1 46 0
  29              		.cfi_startproc
  30              		@ args = 0, pretend = 0, frame = 0
  31              		@ frame_needed = 0, uses_anonymous_args = 0
  32              		@ link register save eliminated.
  33              	.LVL0:
  34 0000 20F00302 		bic	r2, r0, #3
  35 0004 02F16042 		add	r2, r2, #-536870912
  36 0008 02F56142 		add	r2, r2, #57600
  37 000c F0B4     		push	{r4, r5, r6, r7}
  38              		.cfi_def_cfa_offset 16
  39              		.cfi_offset 4, -16
  40              		.cfi_offset 5, -12
  41              		.cfi_offset 6, -8
  42              		.cfi_offset 7, -4
  43              		.loc 1 50 0
  44 000e 4309     		lsrs	r3, r0, #5
  45              		.loc 1 47 0
  46 0010 00F00304 		and	r4, r0, #3
  47              		.loc 1 49 0
  48 0014 D2F80053 		ldr	r5, [r2, #768]
  49              		.loc 1 47 0
  50 0018 E400     		lsls	r4, r4, #3
  51              	.LVL1:
  52              		.loc 1 49 0
  53 001a FF26     		movs	r6, #255
  54 001c 9B00     		lsls	r3, r3, #2
  55 001e A640     		lsls	r6, r6, r4
  56 0020 03F16043 		add	r3, r3, #-536870912
  57 0024 25EA0605 		bic	r5, r5, r6
ARM GAS  /tmp/ccI6igM0.s 			page 2


  58 0028 03F56143 		add	r3, r3, #57600
  59              		.loc 1 50 0
  60 002c 0127     		movs	r7, #1
  61              		.loc 1 49 0
  62 002e A140     		lsls	r1, r1, r4
  63              	.LVL2:
  64              		.loc 1 50 0
  65 0030 00F01F00 		and	r0, r0, #31
  66              	.LVL3:
  67 0034 07FA00F0 		lsl	r0, r7, r0
  68              		.loc 1 49 0
  69 0038 45EA0104 		orr	r4, r5, r1
  70              	.LVL4:
  71 003c C2F80043 		str	r4, [r2, #768]
  72              		.loc 1 50 0
  73 0040 C3F88001 		str	r0, [r3, #384]
  74              		.loc 1 52 0
  75 0044 F0BC     		pop	{r4, r5, r6, r7}
  76              		.loc 1 51 0
  77 0046 1860     		str	r0, [r3]
  78              		.loc 1 52 0
  79 0048 7047     		bx	lr
  80              		.cfi_endproc
  81              	.LFE118:
  82              		.size	nvicEnableVector, .-nvicEnableVector
  83 004a 00BFAFF3 		.section	.text.nvicDisableVector,"ax",%progbits
  83      0080
  84              		.align	2
  85              		.p2align 4,,15
  86              		.global	nvicDisableVector
  87              		.thumb
  88              		.thumb_func
  89              		.type	nvicDisableVector, %function
  90              	nvicDisableVector:
  91              	.LFB119:
  92              		.loc 1 60 0
  93              		.cfi_startproc
  94              		@ args = 0, pretend = 0, frame = 0
  95              		@ frame_needed = 0, uses_anonymous_args = 0
  96              		@ link register save eliminated.
  97              	.LVL5:
  98              		.loc 1 63 0
  99 0000 4109     		lsrs	r1, r0, #5
 100              		.loc 1 60 0
 101 0002 30B4     		push	{r4, r5}
 102              		.cfi_def_cfa_offset 8
 103              		.cfi_offset 4, -8
 104              		.cfi_offset 5, -4
 105              		.loc 1 63 0
 106 0004 2031     		adds	r1, r1, #32
 107 0006 00F01F04 		and	r4, r0, #31
 108 000a 0125     		movs	r5, #1
 109 000c 0C4A     		ldr	r2, .L3
 110 000e 20F00303 		bic	r3, r0, #3
 111 0012 05FA04F4 		lsl	r4, r5, r4
 112 0016 03F16043 		add	r3, r3, #-536870912
 113 001a 42F82140 		str	r4, [r2, r1, lsl #2]
ARM GAS  /tmp/ccI6igM0.s 			page 3


 114 001e 03F56143 		add	r3, r3, #57600
 115              		.loc 1 61 0
 116 0022 00F00300 		and	r0, r0, #3
 117              	.LVL6:
 118              		.loc 1 64 0
 119 0026 D3F80023 		ldr	r2, [r3, #768]
 120              		.loc 1 61 0
 121 002a C000     		lsls	r0, r0, #3
 122              	.LVL7:
 123              		.loc 1 64 0
 124 002c FF21     		movs	r1, #255
 125 002e 01FA00F0 		lsl	r0, r1, r0
 126              	.LVL8:
 127 0032 22EA0000 		bic	r0, r2, r0
 128 0036 C3F80003 		str	r0, [r3, #768]
 129              		.loc 1 65 0
 130 003a 30BC     		pop	{r4, r5}
 131 003c 7047     		bx	lr
 132              	.L4:
 133 003e 00BF     		.align	2
 134              	.L3:
 135 0040 00E100E0 		.word	-536813312
 136              		.cfi_endproc
 137              	.LFE119:
 138              		.size	nvicDisableVector, .-nvicDisableVector
 139 0044 AFF30080 		.section	.text.nvicSetSystemHandlerPriority,"ax",%progbits
 139      AFF30080 
 139      AFF30080 
 140              		.align	2
 141              		.p2align 4,,15
 142              		.global	nvicSetSystemHandlerPriority
 143              		.thumb
 144              		.thumb_func
 145              		.type	nvicSetSystemHandlerPriority, %function
 146              	nvicSetSystemHandlerPriority:
 147              	.LFB120:
 148              		.loc 1 74 0
 149              		.cfi_startproc
 150              		@ args = 0, pretend = 0, frame = 0
 151              		@ frame_needed = 0, uses_anonymous_args = 0
 152              		@ link register save eliminated.
 153              	.LVL9:
 154 0000 20F00303 		bic	r3, r0, #3
 155 0004 03F16043 		add	r3, r3, #-536870912
 156 0008 03F56D43 		add	r3, r3, #60672
 157              		.loc 1 75 0
 158 000c 00F00300 		and	r0, r0, #3
 159              	.LVL10:
 160              		.loc 1 74 0
 161 0010 10B4     		push	{r4}
 162              		.cfi_def_cfa_offset 4
 163              		.cfi_offset 4, -4
 164              		.loc 1 75 0
 165 0012 C000     		lsls	r0, r0, #3
 166              	.LVL11:
 167              		.loc 1 77 0
 168 0014 9A69     		ldr	r2, [r3, #24]
ARM GAS  /tmp/ccI6igM0.s 			page 4


 169              		.loc 1 78 0
 170 0016 FF24     		movs	r4, #255
 171 0018 8440     		lsls	r4, r4, r0
 172              		.loc 1 77 0
 173 001a 22EA0402 		bic	r2, r2, r4
 174              		.loc 1 78 0
 175 001e 8140     		lsls	r1, r1, r0
 176              	.LVL12:
 177 0020 0A43     		orrs	r2, r2, r1
 178              		.loc 1 77 0
 179 0022 9A61     		str	r2, [r3, #24]
 180              		.loc 1 79 0
 181 0024 5DF8044B 		ldr	r4, [sp], #4
 182 0028 7047     		bx	lr
 183              		.cfi_endproc
 184              	.LFE120:
 185              		.size	nvicSetSystemHandlerPriority, .-nvicSetSystemHandlerPriority
 186 002a 00BFAFF3 		.text
 186      0080
 187              	.Letext0:
 188              		.file 2 "/usr/include/newlib/machine/_default_types.h"
 189              		.file 3 "/usr/include/newlib/stdint.h"
 190              		.file 4 "../../os/ports/common/ARMCMx/nvic.h"
 191              		.file 5 "../../os/ports/common/ARMCMx/CMSIS/include/core_cm4.h"
 192              		.section	.debug_info,"",%progbits
 193              	.Ldebug_info0:
 194 0000 2D040000 		.4byte	0x42d
 195 0004 0400     		.2byte	0x4
 196 0006 00000000 		.4byte	.Ldebug_abbrev0
 197 000a 04       		.byte	0x4
 198 000b 01       		.uleb128 0x1
 199 000c 0E000000 		.4byte	.LASF50
 200 0010 01       		.byte	0x1
 201 0011 94020000 		.4byte	.LASF51
 202 0015 0D010000 		.4byte	.LASF52
 203 0019 00000000 		.4byte	.Ldebug_ranges0+0
 204 001d 00000000 		.4byte	0
 205 0021 00000000 		.4byte	.Ldebug_line0
 206 0025 02       		.uleb128 0x2
 207 0026 04       		.byte	0x4
 208 0027 05       		.byte	0x5
 209 0028 696E7400 		.ascii	"int\000"
 210 002c 03       		.uleb128 0x3
 211 002d 04       		.byte	0x4
 212 002e 07       		.byte	0x7
 213 002f EA010000 		.4byte	.LASF0
 214 0033 03       		.uleb128 0x3
 215 0034 01       		.byte	0x1
 216 0035 06       		.byte	0x6
 217 0036 BC010000 		.4byte	.LASF1
 218 003a 03       		.uleb128 0x3
 219 003b 01       		.byte	0x1
 220 003c 08       		.byte	0x8
 221 003d 8C010000 		.4byte	.LASF2
 222 0041 03       		.uleb128 0x3
 223 0042 02       		.byte	0x2
 224 0043 05       		.byte	0x5
ARM GAS  /tmp/ccI6igM0.s 			page 5


 225 0044 D5000000 		.4byte	.LASF3
 226 0048 03       		.uleb128 0x3
 227 0049 02       		.byte	0x2
 228 004a 07       		.byte	0x7
 229 004b 04020000 		.4byte	.LASF4
 230 004f 04       		.uleb128 0x4
 231 0050 8A020000 		.4byte	.LASF6
 232 0054 02       		.byte	0x2
 233 0055 3F       		.byte	0x3f
 234 0056 5A000000 		.4byte	0x5a
 235 005a 03       		.uleb128 0x3
 236 005b 04       		.byte	0x4
 237 005c 05       		.byte	0x5
 238 005d 70010000 		.4byte	.LASF5
 239 0061 04       		.uleb128 0x4
 240 0062 FA000000 		.4byte	.LASF7
 241 0066 02       		.byte	0x2
 242 0067 41       		.byte	0x41
 243 0068 6C000000 		.4byte	0x6c
 244 006c 03       		.uleb128 0x3
 245 006d 04       		.byte	0x4
 246 006e 07       		.byte	0x7
 247 006f 48020000 		.4byte	.LASF8
 248 0073 03       		.uleb128 0x3
 249 0074 08       		.byte	0x8
 250 0075 05       		.byte	0x5
 251 0076 5D010000 		.4byte	.LASF9
 252 007a 03       		.uleb128 0x3
 253 007b 08       		.byte	0x8
 254 007c 07       		.byte	0x7
 255 007d CD010000 		.4byte	.LASF10
 256 0081 04       		.uleb128 0x4
 257 0082 21020000 		.4byte	.LASF11
 258 0086 03       		.byte	0x3
 259 0087 41       		.byte	0x41
 260 0088 4F000000 		.4byte	0x4f
 261 008c 04       		.uleb128 0x4
 262 008d 00000000 		.4byte	.LASF12
 263 0091 03       		.byte	0x3
 264 0092 42       		.byte	0x42
 265 0093 61000000 		.4byte	0x61
 266 0097 03       		.uleb128 0x3
 267 0098 01       		.byte	0x1
 268 0099 02       		.byte	0x2
 269 009a 33020000 		.4byte	.LASF13
 270 009e 03       		.uleb128 0x3
 271 009f 04       		.byte	0x4
 272 00a0 07       		.byte	0x7
 273 00a1 DF000000 		.4byte	.LASF14
 274 00a5 05       		.uleb128 0x5
 275 00a6 8C000000 		.4byte	0x8c
 276 00aa 04       		.uleb128 0x4
 277 00ab FC010000 		.4byte	.LASF15
 278 00af 04       		.byte	0x4
 279 00b0 3A       		.byte	0x3a
 280 00b1 A5000000 		.4byte	0xa5
 281 00b5 06       		.uleb128 0x6
ARM GAS  /tmp/ccI6igM0.s 			page 6


 282 00b6 040E     		.2byte	0xe04
 283 00b8 04       		.byte	0x4
 284 00b9 6A       		.byte	0x6a
 285 00ba 64010000 		.4byte	0x164
 286 00be 07       		.uleb128 0x7
 287 00bf 43020000 		.4byte	.LASF16
 288 00c3 04       		.byte	0x4
 289 00c4 6B       		.byte	0x6b
 290 00c5 74010000 		.4byte	0x174
 291 00c9 00       		.byte	0
 292 00ca 07       		.uleb128 0x7
 293 00cb 5A020000 		.4byte	.LASF17
 294 00cf 04       		.byte	0x4
 295 00d0 6C       		.byte	0x6c
 296 00d1 89010000 		.4byte	0x189
 297 00d5 20       		.byte	0x20
 298 00d6 07       		.uleb128 0x7
 299 00d7 F7010000 		.4byte	.LASF18
 300 00db 04       		.byte	0x4
 301 00dc 6D       		.byte	0x6d
 302 00dd 8E010000 		.4byte	0x18e
 303 00e1 80       		.byte	0x80
 304 00e2 07       		.uleb128 0x7
 305 00e3 62020000 		.4byte	.LASF19
 306 00e7 04       		.byte	0x4
 307 00e8 6E       		.byte	0x6e
 308 00e9 93010000 		.4byte	0x193
 309 00ed A0       		.byte	0xa0
 310 00ee 08       		.uleb128 0x8
 311 00ef 29020000 		.4byte	.LASF20
 312 00f3 04       		.byte	0x4
 313 00f4 6F       		.byte	0x6f
 314 00f5 98010000 		.4byte	0x198
 315 00f9 0001     		.2byte	0x100
 316 00fb 08       		.uleb128 0x8
 317 00fc 6A020000 		.4byte	.LASF21
 318 0100 04       		.byte	0x4
 319 0101 70       		.byte	0x70
 320 0102 9D010000 		.4byte	0x19d
 321 0106 2001     		.2byte	0x120
 322 0108 08       		.uleb128 0x8
 323 0109 B7010000 		.4byte	.LASF22
 324 010d 04       		.byte	0x4
 325 010e 71       		.byte	0x71
 326 010f A2010000 		.4byte	0x1a2
 327 0113 8001     		.2byte	0x180
 328 0115 08       		.uleb128 0x8
 329 0116 72020000 		.4byte	.LASF23
 330 011a 04       		.byte	0x4
 331 011b 72       		.byte	0x72
 332 011c A7010000 		.4byte	0x1a7
 333 0120 A001     		.2byte	0x1a0
 334 0122 08       		.uleb128 0x8
 335 0123 09000000 		.4byte	.LASF24
 336 0127 04       		.byte	0x4
 337 0128 73       		.byte	0x73
 338 0129 AC010000 		.4byte	0x1ac
ARM GAS  /tmp/ccI6igM0.s 			page 7


 339 012d 0002     		.2byte	0x200
 340 012f 08       		.uleb128 0x8
 341 0130 7A020000 		.4byte	.LASF25
 342 0134 04       		.byte	0x4
 343 0135 74       		.byte	0x74
 344 0136 C1010000 		.4byte	0x1c1
 345 013a 2002     		.2byte	0x220
 346 013c 09       		.uleb128 0x9
 347 013d 49505200 		.ascii	"IPR\000"
 348 0141 04       		.byte	0x4
 349 0142 75       		.byte	0x75
 350 0143 D6010000 		.4byte	0x1d6
 351 0147 0003     		.2byte	0x300
 352 0149 08       		.uleb128 0x8
 353 014a 82020000 		.4byte	.LASF26
 354 014e 04       		.byte	0x4
 355 014f 76       		.byte	0x76
 356 0150 EC010000 		.4byte	0x1ec
 357 0154 F003     		.2byte	0x3f0
 358 0156 08       		.uleb128 0x8
 359 0157 53010000 		.4byte	.LASF27
 360 015b 04       		.byte	0x4
 361 015c 77       		.byte	0x77
 362 015d AA000000 		.4byte	0xaa
 363 0161 000E     		.2byte	0xe00
 364 0163 00       		.byte	0
 365 0164 0A       		.uleb128 0xa
 366 0165 AA000000 		.4byte	0xaa
 367 0169 74010000 		.4byte	0x174
 368 016d 0B       		.uleb128 0xb
 369 016e 9E000000 		.4byte	0x9e
 370 0172 07       		.byte	0x7
 371 0173 00       		.byte	0
 372 0174 05       		.uleb128 0x5
 373 0175 64010000 		.4byte	0x164
 374 0179 0A       		.uleb128 0xa
 375 017a AA000000 		.4byte	0xaa
 376 017e 89010000 		.4byte	0x189
 377 0182 0B       		.uleb128 0xb
 378 0183 9E000000 		.4byte	0x9e
 379 0187 17       		.byte	0x17
 380 0188 00       		.byte	0
 381 0189 05       		.uleb128 0x5
 382 018a 79010000 		.4byte	0x179
 383 018e 05       		.uleb128 0x5
 384 018f 64010000 		.4byte	0x164
 385 0193 05       		.uleb128 0x5
 386 0194 79010000 		.4byte	0x179
 387 0198 05       		.uleb128 0x5
 388 0199 64010000 		.4byte	0x164
 389 019d 05       		.uleb128 0x5
 390 019e 79010000 		.4byte	0x179
 391 01a2 05       		.uleb128 0x5
 392 01a3 64010000 		.4byte	0x164
 393 01a7 05       		.uleb128 0x5
 394 01a8 79010000 		.4byte	0x179
 395 01ac 05       		.uleb128 0x5
ARM GAS  /tmp/ccI6igM0.s 			page 8


 396 01ad 64010000 		.4byte	0x164
 397 01b1 0A       		.uleb128 0xa
 398 01b2 AA000000 		.4byte	0xaa
 399 01b6 C1010000 		.4byte	0x1c1
 400 01ba 0B       		.uleb128 0xb
 401 01bb 9E000000 		.4byte	0x9e
 402 01bf 37       		.byte	0x37
 403 01c0 00       		.byte	0
 404 01c1 05       		.uleb128 0x5
 405 01c2 B1010000 		.4byte	0x1b1
 406 01c6 0A       		.uleb128 0xa
 407 01c7 AA000000 		.4byte	0xaa
 408 01cb D6010000 		.4byte	0x1d6
 409 01cf 0B       		.uleb128 0xb
 410 01d0 9E000000 		.4byte	0x9e
 411 01d4 3B       		.byte	0x3b
 412 01d5 00       		.byte	0
 413 01d6 05       		.uleb128 0x5
 414 01d7 C6010000 		.4byte	0x1c6
 415 01db 0A       		.uleb128 0xa
 416 01dc AA000000 		.4byte	0xaa
 417 01e0 EC010000 		.4byte	0x1ec
 418 01e4 0C       		.uleb128 0xc
 419 01e5 9E000000 		.4byte	0x9e
 420 01e9 8302     		.2byte	0x283
 421 01eb 00       		.byte	0
 422 01ec 05       		.uleb128 0x5
 423 01ed DB010000 		.4byte	0x1db
 424 01f1 04       		.uleb128 0x4
 425 01f2 D5020000 		.4byte	.LASF28
 426 01f6 04       		.byte	0x4
 427 01f7 78       		.byte	0x78
 428 01f8 B5000000 		.4byte	0xb5
 429 01fc 0D       		.uleb128 0xd
 430 01fd 8C       		.byte	0x8c
 431 01fe 04       		.byte	0x4
 432 01ff 89       		.byte	0x89
 433 0200 01030000 		.4byte	0x301
 434 0204 07       		.uleb128 0x7
 435 0205 4D010000 		.4byte	.LASF29
 436 0209 04       		.byte	0x4
 437 020a 8A       		.byte	0x8a
 438 020b AA000000 		.4byte	0xaa
 439 020f 00       		.byte	0
 440 0210 07       		.uleb128 0x7
 441 0211 58010000 		.4byte	.LASF30
 442 0215 04       		.byte	0x4
 443 0216 8B       		.byte	0x8b
 444 0217 AA000000 		.4byte	0xaa
 445 021b 04       		.byte	0x4
 446 021c 07       		.uleb128 0x7
 447 021d 1C020000 		.4byte	.LASF31
 448 0221 04       		.byte	0x4
 449 0222 8C       		.byte	0x8c
 450 0223 AA000000 		.4byte	0xaa
 451 0227 08       		.byte	0x8
 452 0228 07       		.uleb128 0x7
ARM GAS  /tmp/ccI6igM0.s 			page 9


 453 0229 86010000 		.4byte	.LASF32
 454 022d 04       		.byte	0x4
 455 022e 8D       		.byte	0x8d
 456 022f AA000000 		.4byte	0xaa
 457 0233 0C       		.byte	0xc
 458 0234 0E       		.uleb128 0xe
 459 0235 53435200 		.ascii	"SCR\000"
 460 0239 04       		.byte	0x4
 461 023a 8E       		.byte	0x8e
 462 023b AA000000 		.4byte	0xaa
 463 023f 10       		.byte	0x10
 464 0240 0E       		.uleb128 0xe
 465 0241 43435200 		.ascii	"CCR\000"
 466 0245 04       		.byte	0x4
 467 0246 8F       		.byte	0x8f
 468 0247 AA000000 		.4byte	0xaa
 469 024b 14       		.byte	0x14
 470 024c 07       		.uleb128 0x7
 471 024d C8010000 		.4byte	.LASF33
 472 0251 04       		.byte	0x4
 473 0252 90       		.byte	0x90
 474 0253 11030000 		.4byte	0x311
 475 0257 18       		.byte	0x18
 476 0258 07       		.uleb128 0x7
 477 0259 E4010000 		.4byte	.LASF34
 478 025d 04       		.byte	0x4
 479 025e 91       		.byte	0x91
 480 025f AA000000 		.4byte	0xaa
 481 0263 24       		.byte	0x24
 482 0264 07       		.uleb128 0x7
 483 0265 81010000 		.4byte	.LASF35
 484 0269 04       		.byte	0x4
 485 026a 92       		.byte	0x92
 486 026b AA000000 		.4byte	0xaa
 487 026f 28       		.byte	0x28
 488 0270 07       		.uleb128 0x7
 489 0271 39020000 		.4byte	.LASF36
 490 0275 04       		.byte	0x4
 491 0276 93       		.byte	0x93
 492 0277 AA000000 		.4byte	0xaa
 493 027b 2C       		.byte	0x2c
 494 027c 07       		.uleb128 0x7
 495 027d 2E020000 		.4byte	.LASF37
 496 0281 04       		.byte	0x4
 497 0282 94       		.byte	0x94
 498 0283 AA000000 		.4byte	0xaa
 499 0287 30       		.byte	0x30
 500 0288 07       		.uleb128 0x7
 501 0289 CF000000 		.4byte	.LASF38
 502 028d 04       		.byte	0x4
 503 028e 95       		.byte	0x95
 504 028f AA000000 		.4byte	0xaa
 505 0293 34       		.byte	0x34
 506 0294 07       		.uleb128 0x7
 507 0295 6B010000 		.4byte	.LASF39
 508 0299 04       		.byte	0x4
 509 029a 96       		.byte	0x96
ARM GAS  /tmp/ccI6igM0.s 			page 10


 510 029b AA000000 		.4byte	0xaa
 511 029f 38       		.byte	0x38
 512 02a0 07       		.uleb128 0x7
 513 02a1 B8020000 		.4byte	.LASF40
 514 02a5 04       		.byte	0x4
 515 02a6 97       		.byte	0x97
 516 02a7 AA000000 		.4byte	0xaa
 517 02ab 3C       		.byte	0x3c
 518 02ac 0E       		.uleb128 0xe
 519 02ad 50465200 		.ascii	"PFR\000"
 520 02b1 04       		.byte	0x4
 521 02b2 98       		.byte	0x98
 522 02b3 26030000 		.4byte	0x326
 523 02b7 40       		.byte	0x40
 524 02b8 0E       		.uleb128 0xe
 525 02b9 44465200 		.ascii	"DFR\000"
 526 02bd 04       		.byte	0x4
 527 02be 99       		.byte	0x99
 528 02bf AA000000 		.4byte	0xaa
 529 02c3 48       		.byte	0x48
 530 02c4 0E       		.uleb128 0xe
 531 02c5 41445200 		.ascii	"ADR\000"
 532 02c9 04       		.byte	0x4
 533 02ca 9A       		.byte	0x9a
 534 02cb AA000000 		.4byte	0xaa
 535 02cf 4C       		.byte	0x4c
 536 02d0 07       		.uleb128 0x7
 537 02d1 3E020000 		.4byte	.LASF41
 538 02d5 04       		.byte	0x4
 539 02d6 9B       		.byte	0x9b
 540 02d7 3B030000 		.4byte	0x33b
 541 02db 50       		.byte	0x50
 542 02dc 0E       		.uleb128 0xe
 543 02dd 53415200 		.ascii	"SAR\000"
 544 02e1 04       		.byte	0x4
 545 02e2 9C       		.byte	0x9c
 546 02e3 50030000 		.4byte	0x350
 547 02e7 60       		.byte	0x60
 548 02e8 07       		.uleb128 0x7
 549 02e9 5A020000 		.4byte	.LASF17
 550 02ed 04       		.byte	0x4
 551 02ee 9D       		.byte	0x9d
 552 02ef 55030000 		.4byte	0x355
 553 02f3 74       		.byte	0x74
 554 02f4 07       		.uleb128 0x7
 555 02f5 CA020000 		.4byte	.LASF42
 556 02f9 04       		.byte	0x4
 557 02fa 9E       		.byte	0x9e
 558 02fb AA000000 		.4byte	0xaa
 559 02ff 88       		.byte	0x88
 560 0300 00       		.byte	0
 561 0301 0A       		.uleb128 0xa
 562 0302 AA000000 		.4byte	0xaa
 563 0306 11030000 		.4byte	0x311
 564 030a 0B       		.uleb128 0xb
 565 030b 9E000000 		.4byte	0x9e
 566 030f 02       		.byte	0x2
ARM GAS  /tmp/ccI6igM0.s 			page 11


 567 0310 00       		.byte	0
 568 0311 05       		.uleb128 0x5
 569 0312 01030000 		.4byte	0x301
 570 0316 0A       		.uleb128 0xa
 571 0317 AA000000 		.4byte	0xaa
 572 031b 26030000 		.4byte	0x326
 573 031f 0B       		.uleb128 0xb
 574 0320 9E000000 		.4byte	0x9e
 575 0324 01       		.byte	0x1
 576 0325 00       		.byte	0
 577 0326 05       		.uleb128 0x5
 578 0327 16030000 		.4byte	0x316
 579 032b 0A       		.uleb128 0xa
 580 032c AA000000 		.4byte	0xaa
 581 0330 3B030000 		.4byte	0x33b
 582 0334 0B       		.uleb128 0xb
 583 0335 9E000000 		.4byte	0x9e
 584 0339 03       		.byte	0x3
 585 033a 00       		.byte	0
 586 033b 05       		.uleb128 0x5
 587 033c 2B030000 		.4byte	0x32b
 588 0340 0A       		.uleb128 0xa
 589 0341 AA000000 		.4byte	0xaa
 590 0345 50030000 		.4byte	0x350
 591 0349 0B       		.uleb128 0xb
 592 034a 9E000000 		.4byte	0x9e
 593 034e 04       		.byte	0x4
 594 034f 00       		.byte	0
 595 0350 05       		.uleb128 0x5
 596 0351 40030000 		.4byte	0x340
 597 0355 05       		.uleb128 0x5
 598 0356 40030000 		.4byte	0x340
 599 035a 04       		.uleb128 0x4
 600 035b 79010000 		.4byte	.LASF43
 601 035f 04       		.byte	0x4
 602 0360 9F       		.byte	0x9f
 603 0361 FC010000 		.4byte	0x1fc
 604 0365 03       		.uleb128 0x3
 605 0366 01       		.byte	0x1
 606 0367 08       		.byte	0x8
 607 0368 17020000 		.4byte	.LASF44
 608 036c 0F       		.uleb128 0xf
 609 036d BE000000 		.4byte	.LASF46
 610 0371 01       		.byte	0x1
 611 0372 2E       		.byte	0x2e
 612 0373 00000000 		.4byte	.LFB118
 613 0377 4A000000 		.4byte	.LFE118-.LFB118
 614 037b 01       		.uleb128 0x1
 615 037c 9C       		.byte	0x9c
 616 037d AC030000 		.4byte	0x3ac
 617 0381 10       		.uleb128 0x10
 618 0382 6E00     		.ascii	"n\000"
 619 0384 01       		.byte	0x1
 620 0385 2E       		.byte	0x2e
 621 0386 8C000000 		.4byte	0x8c
 622 038a 00000000 		.4byte	.LLST0
 623 038e 11       		.uleb128 0x11
ARM GAS  /tmp/ccI6igM0.s 			page 12


 624 038f D0020000 		.4byte	.LASF45
 625 0393 01       		.byte	0x1
 626 0394 2E       		.byte	0x2e
 627 0395 8C000000 		.4byte	0x8c
 628 0399 21000000 		.4byte	.LLST1
 629 039d 12       		.uleb128 0x12
 630 039e 736800   		.ascii	"sh\000"
 631 03a1 01       		.byte	0x1
 632 03a2 2F       		.byte	0x2f
 633 03a3 2C000000 		.4byte	0x2c
 634 03a7 42000000 		.4byte	.LLST2
 635 03ab 00       		.byte	0
 636 03ac 0F       		.uleb128 0xf
 637 03ad E8000000 		.4byte	.LASF47
 638 03b1 01       		.byte	0x1
 639 03b2 3C       		.byte	0x3c
 640 03b3 00000000 		.4byte	.LFB119
 641 03b7 44000000 		.4byte	.LFE119-.LFB119
 642 03bb 01       		.uleb128 0x1
 643 03bc 9C       		.byte	0x9c
 644 03bd DD030000 		.4byte	0x3dd
 645 03c1 10       		.uleb128 0x10
 646 03c2 6E00     		.ascii	"n\000"
 647 03c4 01       		.byte	0x1
 648 03c5 3C       		.byte	0x3c
 649 03c6 8C000000 		.4byte	0x8c
 650 03ca 78000000 		.4byte	.LLST3
 651 03ce 12       		.uleb128 0x12
 652 03cf 736800   		.ascii	"sh\000"
 653 03d2 01       		.byte	0x1
 654 03d3 3D       		.byte	0x3d
 655 03d4 2C000000 		.4byte	0x2c
 656 03d8 99000000 		.4byte	.LLST4
 657 03dc 00       		.byte	0
 658 03dd 0F       		.uleb128 0xf
 659 03de 9A010000 		.4byte	.LASF48
 660 03e2 01       		.byte	0x1
 661 03e3 4A       		.byte	0x4a
 662 03e4 00000000 		.4byte	.LFB120
 663 03e8 2A000000 		.4byte	.LFE120-.LFB120
 664 03ec 01       		.uleb128 0x1
 665 03ed 9C       		.byte	0x9c
 666 03ee 1F040000 		.4byte	0x41f
 667 03f2 11       		.uleb128 0x11
 668 03f3 05010000 		.4byte	.LASF49
 669 03f7 01       		.byte	0x1
 670 03f8 4A       		.byte	0x4a
 671 03f9 8C000000 		.4byte	0x8c
 672 03fd E1000000 		.4byte	.LLST5
 673 0401 11       		.uleb128 0x11
 674 0402 D0020000 		.4byte	.LASF45
 675 0406 01       		.byte	0x1
 676 0407 4A       		.byte	0x4a
 677 0408 8C000000 		.4byte	0x8c
 678 040c 02010000 		.4byte	.LLST6
 679 0410 12       		.uleb128 0x12
 680 0411 736800   		.ascii	"sh\000"
ARM GAS  /tmp/ccI6igM0.s 			page 13


 681 0414 01       		.byte	0x1
 682 0415 4B       		.byte	0x4b
 683 0416 2C000000 		.4byte	0x2c
 684 041a 23010000 		.4byte	.LLST7
 685 041e 00       		.byte	0
 686 041f 13       		.uleb128 0x13
 687 0420 BD020000 		.4byte	.LASF53
 688 0424 05       		.byte	0x5
 689 0425 9806     		.2byte	0x698
 690 0427 2B040000 		.4byte	0x42b
 691 042b 05       		.uleb128 0x5
 692 042c 81000000 		.4byte	0x81
 693 0430 00       		.byte	0
 694              		.section	.debug_abbrev,"",%progbits
 695              	.Ldebug_abbrev0:
 696 0000 01       		.uleb128 0x1
 697 0001 11       		.uleb128 0x11
 698 0002 01       		.byte	0x1
 699 0003 25       		.uleb128 0x25
 700 0004 0E       		.uleb128 0xe
 701 0005 13       		.uleb128 0x13
 702 0006 0B       		.uleb128 0xb
 703 0007 03       		.uleb128 0x3
 704 0008 0E       		.uleb128 0xe
 705 0009 1B       		.uleb128 0x1b
 706 000a 0E       		.uleb128 0xe
 707 000b 55       		.uleb128 0x55
 708 000c 17       		.uleb128 0x17
 709 000d 11       		.uleb128 0x11
 710 000e 01       		.uleb128 0x1
 711 000f 10       		.uleb128 0x10
 712 0010 17       		.uleb128 0x17
 713 0011 00       		.byte	0
 714 0012 00       		.byte	0
 715 0013 02       		.uleb128 0x2
 716 0014 24       		.uleb128 0x24
 717 0015 00       		.byte	0
 718 0016 0B       		.uleb128 0xb
 719 0017 0B       		.uleb128 0xb
 720 0018 3E       		.uleb128 0x3e
 721 0019 0B       		.uleb128 0xb
 722 001a 03       		.uleb128 0x3
 723 001b 08       		.uleb128 0x8
 724 001c 00       		.byte	0
 725 001d 00       		.byte	0
 726 001e 03       		.uleb128 0x3
 727 001f 24       		.uleb128 0x24
 728 0020 00       		.byte	0
 729 0021 0B       		.uleb128 0xb
 730 0022 0B       		.uleb128 0xb
 731 0023 3E       		.uleb128 0x3e
 732 0024 0B       		.uleb128 0xb
 733 0025 03       		.uleb128 0x3
 734 0026 0E       		.uleb128 0xe
 735 0027 00       		.byte	0
 736 0028 00       		.byte	0
 737 0029 04       		.uleb128 0x4
ARM GAS  /tmp/ccI6igM0.s 			page 14


 738 002a 16       		.uleb128 0x16
 739 002b 00       		.byte	0
 740 002c 03       		.uleb128 0x3
 741 002d 0E       		.uleb128 0xe
 742 002e 3A       		.uleb128 0x3a
 743 002f 0B       		.uleb128 0xb
 744 0030 3B       		.uleb128 0x3b
 745 0031 0B       		.uleb128 0xb
 746 0032 49       		.uleb128 0x49
 747 0033 13       		.uleb128 0x13
 748 0034 00       		.byte	0
 749 0035 00       		.byte	0
 750 0036 05       		.uleb128 0x5
 751 0037 35       		.uleb128 0x35
 752 0038 00       		.byte	0
 753 0039 49       		.uleb128 0x49
 754 003a 13       		.uleb128 0x13
 755 003b 00       		.byte	0
 756 003c 00       		.byte	0
 757 003d 06       		.uleb128 0x6
 758 003e 13       		.uleb128 0x13
 759 003f 01       		.byte	0x1
 760 0040 0B       		.uleb128 0xb
 761 0041 05       		.uleb128 0x5
 762 0042 3A       		.uleb128 0x3a
 763 0043 0B       		.uleb128 0xb
 764 0044 3B       		.uleb128 0x3b
 765 0045 0B       		.uleb128 0xb
 766 0046 01       		.uleb128 0x1
 767 0047 13       		.uleb128 0x13
 768 0048 00       		.byte	0
 769 0049 00       		.byte	0
 770 004a 07       		.uleb128 0x7
 771 004b 0D       		.uleb128 0xd
 772 004c 00       		.byte	0
 773 004d 03       		.uleb128 0x3
 774 004e 0E       		.uleb128 0xe
 775 004f 3A       		.uleb128 0x3a
 776 0050 0B       		.uleb128 0xb
 777 0051 3B       		.uleb128 0x3b
 778 0052 0B       		.uleb128 0xb
 779 0053 49       		.uleb128 0x49
 780 0054 13       		.uleb128 0x13
 781 0055 38       		.uleb128 0x38
 782 0056 0B       		.uleb128 0xb
 783 0057 00       		.byte	0
 784 0058 00       		.byte	0
 785 0059 08       		.uleb128 0x8
 786 005a 0D       		.uleb128 0xd
 787 005b 00       		.byte	0
 788 005c 03       		.uleb128 0x3
 789 005d 0E       		.uleb128 0xe
 790 005e 3A       		.uleb128 0x3a
 791 005f 0B       		.uleb128 0xb
 792 0060 3B       		.uleb128 0x3b
 793 0061 0B       		.uleb128 0xb
 794 0062 49       		.uleb128 0x49
ARM GAS  /tmp/ccI6igM0.s 			page 15


 795 0063 13       		.uleb128 0x13
 796 0064 38       		.uleb128 0x38
 797 0065 05       		.uleb128 0x5
 798 0066 00       		.byte	0
 799 0067 00       		.byte	0
 800 0068 09       		.uleb128 0x9
 801 0069 0D       		.uleb128 0xd
 802 006a 00       		.byte	0
 803 006b 03       		.uleb128 0x3
 804 006c 08       		.uleb128 0x8
 805 006d 3A       		.uleb128 0x3a
 806 006e 0B       		.uleb128 0xb
 807 006f 3B       		.uleb128 0x3b
 808 0070 0B       		.uleb128 0xb
 809 0071 49       		.uleb128 0x49
 810 0072 13       		.uleb128 0x13
 811 0073 38       		.uleb128 0x38
 812 0074 05       		.uleb128 0x5
 813 0075 00       		.byte	0
 814 0076 00       		.byte	0
 815 0077 0A       		.uleb128 0xa
 816 0078 01       		.uleb128 0x1
 817 0079 01       		.byte	0x1
 818 007a 49       		.uleb128 0x49
 819 007b 13       		.uleb128 0x13
 820 007c 01       		.uleb128 0x1
 821 007d 13       		.uleb128 0x13
 822 007e 00       		.byte	0
 823 007f 00       		.byte	0
 824 0080 0B       		.uleb128 0xb
 825 0081 21       		.uleb128 0x21
 826 0082 00       		.byte	0
 827 0083 49       		.uleb128 0x49
 828 0084 13       		.uleb128 0x13
 829 0085 2F       		.uleb128 0x2f
 830 0086 0B       		.uleb128 0xb
 831 0087 00       		.byte	0
 832 0088 00       		.byte	0
 833 0089 0C       		.uleb128 0xc
 834 008a 21       		.uleb128 0x21
 835 008b 00       		.byte	0
 836 008c 49       		.uleb128 0x49
 837 008d 13       		.uleb128 0x13
 838 008e 2F       		.uleb128 0x2f
 839 008f 05       		.uleb128 0x5
 840 0090 00       		.byte	0
 841 0091 00       		.byte	0
 842 0092 0D       		.uleb128 0xd
 843 0093 13       		.uleb128 0x13
 844 0094 01       		.byte	0x1
 845 0095 0B       		.uleb128 0xb
 846 0096 0B       		.uleb128 0xb
 847 0097 3A       		.uleb128 0x3a
 848 0098 0B       		.uleb128 0xb
 849 0099 3B       		.uleb128 0x3b
 850 009a 0B       		.uleb128 0xb
 851 009b 01       		.uleb128 0x1
ARM GAS  /tmp/ccI6igM0.s 			page 16


 852 009c 13       		.uleb128 0x13
 853 009d 00       		.byte	0
 854 009e 00       		.byte	0
 855 009f 0E       		.uleb128 0xe
 856 00a0 0D       		.uleb128 0xd
 857 00a1 00       		.byte	0
 858 00a2 03       		.uleb128 0x3
 859 00a3 08       		.uleb128 0x8
 860 00a4 3A       		.uleb128 0x3a
 861 00a5 0B       		.uleb128 0xb
 862 00a6 3B       		.uleb128 0x3b
 863 00a7 0B       		.uleb128 0xb
 864 00a8 49       		.uleb128 0x49
 865 00a9 13       		.uleb128 0x13
 866 00aa 38       		.uleb128 0x38
 867 00ab 0B       		.uleb128 0xb
 868 00ac 00       		.byte	0
 869 00ad 00       		.byte	0
 870 00ae 0F       		.uleb128 0xf
 871 00af 2E       		.uleb128 0x2e
 872 00b0 01       		.byte	0x1
 873 00b1 3F       		.uleb128 0x3f
 874 00b2 19       		.uleb128 0x19
 875 00b3 03       		.uleb128 0x3
 876 00b4 0E       		.uleb128 0xe
 877 00b5 3A       		.uleb128 0x3a
 878 00b6 0B       		.uleb128 0xb
 879 00b7 3B       		.uleb128 0x3b
 880 00b8 0B       		.uleb128 0xb
 881 00b9 27       		.uleb128 0x27
 882 00ba 19       		.uleb128 0x19
 883 00bb 11       		.uleb128 0x11
 884 00bc 01       		.uleb128 0x1
 885 00bd 12       		.uleb128 0x12
 886 00be 06       		.uleb128 0x6
 887 00bf 40       		.uleb128 0x40
 888 00c0 18       		.uleb128 0x18
 889 00c1 9742     		.uleb128 0x2117
 890 00c3 19       		.uleb128 0x19
 891 00c4 01       		.uleb128 0x1
 892 00c5 13       		.uleb128 0x13
 893 00c6 00       		.byte	0
 894 00c7 00       		.byte	0
 895 00c8 10       		.uleb128 0x10
 896 00c9 05       		.uleb128 0x5
 897 00ca 00       		.byte	0
 898 00cb 03       		.uleb128 0x3
 899 00cc 08       		.uleb128 0x8
 900 00cd 3A       		.uleb128 0x3a
 901 00ce 0B       		.uleb128 0xb
 902 00cf 3B       		.uleb128 0x3b
 903 00d0 0B       		.uleb128 0xb
 904 00d1 49       		.uleb128 0x49
 905 00d2 13       		.uleb128 0x13
 906 00d3 02       		.uleb128 0x2
 907 00d4 17       		.uleb128 0x17
 908 00d5 00       		.byte	0
ARM GAS  /tmp/ccI6igM0.s 			page 17


 909 00d6 00       		.byte	0
 910 00d7 11       		.uleb128 0x11
 911 00d8 05       		.uleb128 0x5
 912 00d9 00       		.byte	0
 913 00da 03       		.uleb128 0x3
 914 00db 0E       		.uleb128 0xe
 915 00dc 3A       		.uleb128 0x3a
 916 00dd 0B       		.uleb128 0xb
 917 00de 3B       		.uleb128 0x3b
 918 00df 0B       		.uleb128 0xb
 919 00e0 49       		.uleb128 0x49
 920 00e1 13       		.uleb128 0x13
 921 00e2 02       		.uleb128 0x2
 922 00e3 17       		.uleb128 0x17
 923 00e4 00       		.byte	0
 924 00e5 00       		.byte	0
 925 00e6 12       		.uleb128 0x12
 926 00e7 34       		.uleb128 0x34
 927 00e8 00       		.byte	0
 928 00e9 03       		.uleb128 0x3
 929 00ea 08       		.uleb128 0x8
 930 00eb 3A       		.uleb128 0x3a
 931 00ec 0B       		.uleb128 0xb
 932 00ed 3B       		.uleb128 0x3b
 933 00ee 0B       		.uleb128 0xb
 934 00ef 49       		.uleb128 0x49
 935 00f0 13       		.uleb128 0x13
 936 00f1 02       		.uleb128 0x2
 937 00f2 17       		.uleb128 0x17
 938 00f3 00       		.byte	0
 939 00f4 00       		.byte	0
 940 00f5 13       		.uleb128 0x13
 941 00f6 34       		.uleb128 0x34
 942 00f7 00       		.byte	0
 943 00f8 03       		.uleb128 0x3
 944 00f9 0E       		.uleb128 0xe
 945 00fa 3A       		.uleb128 0x3a
 946 00fb 0B       		.uleb128 0xb
 947 00fc 3B       		.uleb128 0x3b
 948 00fd 05       		.uleb128 0x5
 949 00fe 49       		.uleb128 0x49
 950 00ff 13       		.uleb128 0x13
 951 0100 3F       		.uleb128 0x3f
 952 0101 19       		.uleb128 0x19
 953 0102 3C       		.uleb128 0x3c
 954 0103 19       		.uleb128 0x19
 955 0104 00       		.byte	0
 956 0105 00       		.byte	0
 957 0106 00       		.byte	0
 958              		.section	.debug_loc,"",%progbits
 959              	.Ldebug_loc0:
 960              	.LLST0:
 961 0000 00000000 		.4byte	.LVL0
 962 0004 34000000 		.4byte	.LVL3
 963 0008 0100     		.2byte	0x1
 964 000a 50       		.byte	0x50
 965 000b 34000000 		.4byte	.LVL3
ARM GAS  /tmp/ccI6igM0.s 			page 18


 966 000f 4A000000 		.4byte	.LFE118
 967 0013 0400     		.2byte	0x4
 968 0015 F3       		.byte	0xf3
 969 0016 01       		.uleb128 0x1
 970 0017 50       		.byte	0x50
 971 0018 9F       		.byte	0x9f
 972 0019 00000000 		.4byte	0
 973 001d 00000000 		.4byte	0
 974              	.LLST1:
 975 0021 00000000 		.4byte	.LVL0
 976 0025 30000000 		.4byte	.LVL2
 977 0029 0100     		.2byte	0x1
 978 002b 51       		.byte	0x51
 979 002c 30000000 		.4byte	.LVL2
 980 0030 4A000000 		.4byte	.LFE118
 981 0034 0400     		.2byte	0x4
 982 0036 F3       		.byte	0xf3
 983 0037 01       		.uleb128 0x1
 984 0038 51       		.byte	0x51
 985 0039 9F       		.byte	0x9f
 986 003a 00000000 		.4byte	0
 987 003e 00000000 		.4byte	0
 988              	.LLST2:
 989 0042 00000000 		.4byte	.LVL0
 990 0046 1A000000 		.4byte	.LVL1
 991 004a 0700     		.2byte	0x7
 992 004c 70       		.byte	0x70
 993 004d 00       		.sleb128 0
 994 004e 33       		.byte	0x33
 995 004f 1A       		.byte	0x1a
 996 0050 33       		.byte	0x33
 997 0051 24       		.byte	0x24
 998 0052 9F       		.byte	0x9f
 999 0053 1A000000 		.4byte	.LVL1
 1000 0057 3C000000 		.4byte	.LVL4
 1001 005b 0100     		.2byte	0x1
 1002 005d 54       		.byte	0x54
 1003 005e 3C000000 		.4byte	.LVL4
 1004 0062 4A000000 		.4byte	.LFE118
 1005 0066 0800     		.2byte	0x8
 1006 0068 F3       		.byte	0xf3
 1007 0069 01       		.uleb128 0x1
 1008 006a 50       		.byte	0x50
 1009 006b 33       		.byte	0x33
 1010 006c 1A       		.byte	0x1a
 1011 006d 33       		.byte	0x33
 1012 006e 24       		.byte	0x24
 1013 006f 9F       		.byte	0x9f
 1014 0070 00000000 		.4byte	0
 1015 0074 00000000 		.4byte	0
 1016              	.LLST3:
 1017 0078 00000000 		.4byte	.LVL5
 1018 007c 26000000 		.4byte	.LVL6
 1019 0080 0100     		.2byte	0x1
 1020 0082 50       		.byte	0x50
 1021 0083 26000000 		.4byte	.LVL6
 1022 0087 44000000 		.4byte	.LFE119
ARM GAS  /tmp/ccI6igM0.s 			page 19


 1023 008b 0400     		.2byte	0x4
 1024 008d F3       		.byte	0xf3
 1025 008e 01       		.uleb128 0x1
 1026 008f 50       		.byte	0x50
 1027 0090 9F       		.byte	0x9f
 1028 0091 00000000 		.4byte	0
 1029 0095 00000000 		.4byte	0
 1030              	.LLST4:
 1031 0099 00000000 		.4byte	.LVL5
 1032 009d 26000000 		.4byte	.LVL6
 1033 00a1 0700     		.2byte	0x7
 1034 00a3 70       		.byte	0x70
 1035 00a4 00       		.sleb128 0
 1036 00a5 33       		.byte	0x33
 1037 00a6 1A       		.byte	0x1a
 1038 00a7 33       		.byte	0x33
 1039 00a8 24       		.byte	0x24
 1040 00a9 9F       		.byte	0x9f
 1041 00aa 26000000 		.4byte	.LVL6
 1042 00ae 2C000000 		.4byte	.LVL7
 1043 00b2 0800     		.2byte	0x8
 1044 00b4 F3       		.byte	0xf3
 1045 00b5 01       		.uleb128 0x1
 1046 00b6 50       		.byte	0x50
 1047 00b7 33       		.byte	0x33
 1048 00b8 1A       		.byte	0x1a
 1049 00b9 33       		.byte	0x33
 1050 00ba 24       		.byte	0x24
 1051 00bb 9F       		.byte	0x9f
 1052 00bc 2C000000 		.4byte	.LVL7
 1053 00c0 32000000 		.4byte	.LVL8
 1054 00c4 0100     		.2byte	0x1
 1055 00c6 50       		.byte	0x50
 1056 00c7 32000000 		.4byte	.LVL8
 1057 00cb 44000000 		.4byte	.LFE119
 1058 00cf 0800     		.2byte	0x8
 1059 00d1 F3       		.byte	0xf3
 1060 00d2 01       		.uleb128 0x1
 1061 00d3 50       		.byte	0x50
 1062 00d4 33       		.byte	0x33
 1063 00d5 1A       		.byte	0x1a
 1064 00d6 33       		.byte	0x33
 1065 00d7 24       		.byte	0x24
 1066 00d8 9F       		.byte	0x9f
 1067 00d9 00000000 		.4byte	0
 1068 00dd 00000000 		.4byte	0
 1069              	.LLST5:
 1070 00e1 00000000 		.4byte	.LVL9
 1071 00e5 10000000 		.4byte	.LVL10
 1072 00e9 0100     		.2byte	0x1
 1073 00eb 50       		.byte	0x50
 1074 00ec 10000000 		.4byte	.LVL10
 1075 00f0 2A000000 		.4byte	.LFE120
 1076 00f4 0400     		.2byte	0x4
 1077 00f6 F3       		.byte	0xf3
 1078 00f7 01       		.uleb128 0x1
 1079 00f8 50       		.byte	0x50
ARM GAS  /tmp/ccI6igM0.s 			page 20


 1080 00f9 9F       		.byte	0x9f
 1081 00fa 00000000 		.4byte	0
 1082 00fe 00000000 		.4byte	0
 1083              	.LLST6:
 1084 0102 00000000 		.4byte	.LVL9
 1085 0106 20000000 		.4byte	.LVL12
 1086 010a 0100     		.2byte	0x1
 1087 010c 51       		.byte	0x51
 1088 010d 20000000 		.4byte	.LVL12
 1089 0111 2A000000 		.4byte	.LFE120
 1090 0115 0400     		.2byte	0x4
 1091 0117 F3       		.byte	0xf3
 1092 0118 01       		.uleb128 0x1
 1093 0119 51       		.byte	0x51
 1094 011a 9F       		.byte	0x9f
 1095 011b 00000000 		.4byte	0
 1096 011f 00000000 		.4byte	0
 1097              	.LLST7:
 1098 0123 00000000 		.4byte	.LVL9
 1099 0127 10000000 		.4byte	.LVL10
 1100 012b 0700     		.2byte	0x7
 1101 012d 70       		.byte	0x70
 1102 012e 00       		.sleb128 0
 1103 012f 33       		.byte	0x33
 1104 0130 1A       		.byte	0x1a
 1105 0131 33       		.byte	0x33
 1106 0132 24       		.byte	0x24
 1107 0133 9F       		.byte	0x9f
 1108 0134 10000000 		.4byte	.LVL10
 1109 0138 14000000 		.4byte	.LVL11
 1110 013c 0800     		.2byte	0x8
 1111 013e F3       		.byte	0xf3
 1112 013f 01       		.uleb128 0x1
 1113 0140 50       		.byte	0x50
 1114 0141 33       		.byte	0x33
 1115 0142 1A       		.byte	0x1a
 1116 0143 33       		.byte	0x33
 1117 0144 24       		.byte	0x24
 1118 0145 9F       		.byte	0x9f
 1119 0146 14000000 		.4byte	.LVL11
 1120 014a 2A000000 		.4byte	.LFE120
 1121 014e 0100     		.2byte	0x1
 1122 0150 50       		.byte	0x50
 1123 0151 00000000 		.4byte	0
 1124 0155 00000000 		.4byte	0
 1125              		.section	.debug_aranges,"",%progbits
 1126 0000 2C000000 		.4byte	0x2c
 1127 0004 0200     		.2byte	0x2
 1128 0006 00000000 		.4byte	.Ldebug_info0
 1129 000a 04       		.byte	0x4
 1130 000b 00       		.byte	0
 1131 000c 0000     		.2byte	0
 1132 000e 0000     		.2byte	0
 1133 0010 00000000 		.4byte	.LFB118
 1134 0014 4A000000 		.4byte	.LFE118-.LFB118
 1135 0018 00000000 		.4byte	.LFB119
 1136 001c 44000000 		.4byte	.LFE119-.LFB119
ARM GAS  /tmp/ccI6igM0.s 			page 21


 1137 0020 00000000 		.4byte	.LFB120
 1138 0024 2A000000 		.4byte	.LFE120-.LFB120
 1139 0028 00000000 		.4byte	0
 1140 002c 00000000 		.4byte	0
 1141              		.section	.debug_ranges,"",%progbits
 1142              	.Ldebug_ranges0:
 1143 0000 00000000 		.4byte	.LFB118
 1144 0004 4A000000 		.4byte	.LFE118
 1145 0008 00000000 		.4byte	.LFB119
 1146 000c 44000000 		.4byte	.LFE119
 1147 0010 00000000 		.4byte	.LFB120
 1148 0014 2A000000 		.4byte	.LFE120
 1149 0018 00000000 		.4byte	0
 1150 001c 00000000 		.4byte	0
 1151              		.section	.debug_line,"",%progbits
 1152              	.Ldebug_line0:
 1153 0000 1F010000 		.section	.debug_str,"MS",%progbits,1
 1153      0200CD00 
 1153      00000201 
 1153      FB0E0D00 
 1153      01010101 
 1154              	.LASF12:
 1155 0000 75696E74 		.ascii	"uint32_t\000"
 1155      33325F74 
 1155      00
 1156              	.LASF24:
 1157 0009 49414252 		.ascii	"IABR\000"
 1157      00
 1158              	.LASF50:
 1159 000e 474E5520 		.ascii	"GNU C 4.8.3 20140820 (release) -mcpu=cortex-m4 -mno"
 1159      4320342E 
 1159      382E3320 
 1159      32303134 
 1159      30383230 
 1160 0041 2D746875 		.ascii	"-thumb-interwork -mthumb -ggdb -O2 -fomit-frame-poi"
 1160      6D622D69 
 1160      6E746572 
 1160      776F726B 
 1160      202D6D74 
 1161 0074 6E746572 		.ascii	"nter -falign-functions=16 -ffunction-sections -fdat"
 1161      202D6661 
 1161      6C69676E 
 1161      2D66756E 
 1161      6374696F 
 1162 00a7 612D7365 		.ascii	"a-sections -fno-common\000"
 1162      6374696F 
 1162      6E73202D 
 1162      666E6F2D 
 1162      636F6D6D 
 1163              	.LASF46:
 1164 00be 6E766963 		.ascii	"nvicEnableVector\000"
 1164      456E6162 
 1164      6C655665 
 1164      63746F72 
 1164      00
 1165              	.LASF38:
 1166 00cf 4D4D4641 		.ascii	"MMFAR\000"
ARM GAS  /tmp/ccI6igM0.s 			page 22


 1166      5200
 1167              	.LASF3:
 1168 00d5 73686F72 		.ascii	"short int\000"
 1168      7420696E 
 1168      7400
 1169              	.LASF14:
 1170 00df 73697A65 		.ascii	"sizetype\000"
 1170      74797065 
 1170      00
 1171              	.LASF47:
 1172 00e8 6E766963 		.ascii	"nvicDisableVector\000"
 1172      44697361 
 1172      626C6556 
 1172      6563746F 
 1172      7200
 1173              	.LASF7:
 1174 00fa 5F5F7569 		.ascii	"__uint32_t\000"
 1174      6E743332 
 1174      5F7400
 1175              	.LASF49:
 1176 0105 68616E64 		.ascii	"handler\000"
 1176      6C657200 
 1177              	.LASF52:
 1178 010d 2F706F6F 		.ascii	"/pool/prototipi/git/tiva-chibios2_6/demos/RT-TM4C12"
 1178      6C2F7072 
 1178      6F746F74 
 1178      6970692F 
 1178      6769742F 
 1179 0140 39342D4C 		.ascii	"94-LAUNCHPAD\000"
 1179      41554E43 
 1179      48504144 
 1179      00
 1180              	.LASF29:
 1181 014d 43505549 		.ascii	"CPUID\000"
 1181      4400
 1182              	.LASF27:
 1183 0153 53544952 		.ascii	"STIR\000"
 1183      00
 1184              	.LASF30:
 1185 0158 49435352 		.ascii	"ICSR\000"
 1185      00
 1186              	.LASF9:
 1187 015d 6C6F6E67 		.ascii	"long long int\000"
 1187      206C6F6E 
 1187      6720696E 
 1187      7400
 1188              	.LASF39:
 1189 016b 42464152 		.ascii	"BFAR\000"
 1189      00
 1190              	.LASF5:
 1191 0170 6C6F6E67 		.ascii	"long int\000"
 1191      20696E74 
 1191      00
 1192              	.LASF43:
 1193 0179 434D785F 		.ascii	"CMx_SCB\000"
 1193      53434200 
 1194              	.LASF35:
ARM GAS  /tmp/ccI6igM0.s 			page 23


 1195 0181 43465352 		.ascii	"CFSR\000"
 1195      00
 1196              	.LASF32:
 1197 0186 41495243 		.ascii	"AIRCR\000"
 1197      5200
 1198              	.LASF2:
 1199 018c 756E7369 		.ascii	"unsigned char\000"
 1199      676E6564 
 1199      20636861 
 1199      7200
 1200              	.LASF48:
 1201 019a 6E766963 		.ascii	"nvicSetSystemHandlerPriority\000"
 1201      53657453 
 1201      79737465 
 1201      6D48616E 
 1201      646C6572 
 1202              	.LASF22:
 1203 01b7 49435052 		.ascii	"ICPR\000"
 1203      00
 1204              	.LASF1:
 1205 01bc 7369676E 		.ascii	"signed char\000"
 1205      65642063 
 1205      68617200 
 1206              	.LASF33:
 1207 01c8 53485052 		.ascii	"SHPR\000"
 1207      00
 1208              	.LASF10:
 1209 01cd 6C6F6E67 		.ascii	"long long unsigned int\000"
 1209      206C6F6E 
 1209      6720756E 
 1209      7369676E 
 1209      65642069 
 1210              	.LASF34:
 1211 01e4 53484353 		.ascii	"SHCSR\000"
 1211      5200
 1212              	.LASF0:
 1213 01ea 756E7369 		.ascii	"unsigned int\000"
 1213      676E6564 
 1213      20696E74 
 1213      00
 1214              	.LASF18:
 1215 01f7 49434552 		.ascii	"ICER\000"
 1215      00
 1216              	.LASF15:
 1217 01fc 494F5245 		.ascii	"IOREG32\000"
 1217      47333200 
 1218              	.LASF4:
 1219 0204 73686F72 		.ascii	"short unsigned int\000"
 1219      7420756E 
 1219      7369676E 
 1219      65642069 
 1219      6E7400
 1220              	.LASF44:
 1221 0217 63686172 		.ascii	"char\000"
 1221      00
 1222              	.LASF31:
 1223 021c 56544F52 		.ascii	"VTOR\000"
ARM GAS  /tmp/ccI6igM0.s 			page 24


 1223      00
 1224              	.LASF11:
 1225 0221 696E7433 		.ascii	"int32_t\000"
 1225      325F7400 
 1226              	.LASF20:
 1227 0229 49535052 		.ascii	"ISPR\000"
 1227      00
 1228              	.LASF37:
 1229 022e 44465352 		.ascii	"DFSR\000"
 1229      00
 1230              	.LASF13:
 1231 0233 5F426F6F 		.ascii	"_Bool\000"
 1231      6C00
 1232              	.LASF36:
 1233 0239 48465352 		.ascii	"HFSR\000"
 1233      00
 1234              	.LASF41:
 1235 023e 4D4D4652 		.ascii	"MMFR\000"
 1235      00
 1236              	.LASF16:
 1237 0243 49534552 		.ascii	"ISER\000"
 1237      00
 1238              	.LASF8:
 1239 0248 6C6F6E67 		.ascii	"long unsigned int\000"
 1239      20756E73 
 1239      69676E65 
 1239      6420696E 
 1239      7400
 1240              	.LASF17:
 1241 025a 756E7573 		.ascii	"unused1\000"
 1241      65643100 
 1242              	.LASF19:
 1243 0262 756E7573 		.ascii	"unused2\000"
 1243      65643200 
 1244              	.LASF21:
 1245 026a 756E7573 		.ascii	"unused3\000"
 1245      65643300 
 1246              	.LASF23:
 1247 0272 756E7573 		.ascii	"unused4\000"
 1247      65643400 
 1248              	.LASF25:
 1249 027a 756E7573 		.ascii	"unused5\000"
 1249      65643500 
 1250              	.LASF26:
 1251 0282 756E7573 		.ascii	"unused6\000"
 1251      65643600 
 1252              	.LASF6:
 1253 028a 5F5F696E 		.ascii	"__int32_t\000"
 1253      7433325F 
 1253      7400
 1254              	.LASF51:
 1255 0294 2E2E2F2E 		.ascii	"../../os/ports/common/ARMCMx/nvic.c\000"
 1255      2E2F6F73 
 1255      2F706F72 
 1255      74732F63 
 1255      6F6D6D6F 
 1256              	.LASF40:
ARM GAS  /tmp/ccI6igM0.s 			page 25


 1257 02b8 41465352 		.ascii	"AFSR\000"
 1257      00
 1258              	.LASF53:
 1259 02bd 49544D5F 		.ascii	"ITM_RxBuffer\000"
 1259      52784275 
 1259      66666572 
 1259      00
 1260              	.LASF42:
 1261 02ca 43504143 		.ascii	"CPACR\000"
 1261      5200
 1262              	.LASF45:
 1263 02d0 7072696F 		.ascii	"prio\000"
 1263      00
 1264              	.LASF28:
 1265 02d5 434D785F 		.ascii	"CMx_NVIC\000"
 1265      4E564943 
 1265      00
 1266              		.ident	"GCC: (4.8.3-9+11) 4.8.3 20140820 (release)"
ARM GAS  /tmp/ccI6igM0.s 			page 26


DEFINED SYMBOLS
                            *ABS*:0000000000000000 nvic.c
     /tmp/ccI6igM0.s:19     .text.nvicEnableVector:0000000000000000 $t
     /tmp/ccI6igM0.s:25     .text.nvicEnableVector:0000000000000000 nvicEnableVector
     /tmp/ccI6igM0.s:84     .text.nvicDisableVector:0000000000000000 $t
     /tmp/ccI6igM0.s:90     .text.nvicDisableVector:0000000000000000 nvicDisableVector
     /tmp/ccI6igM0.s:135    .text.nvicDisableVector:0000000000000040 $d
     /tmp/ccI6igM0.s:140    .text.nvicSetSystemHandlerPriority:0000000000000000 $t
     /tmp/ccI6igM0.s:146    .text.nvicSetSystemHandlerPriority:0000000000000000 nvicSetSystemHandlerPriority
                     .debug_frame:0000000000000010 $d
     /tmp/ccI6igM0.s:139    .text.nvicDisableVector:0000000000000044 $t

NO UNDEFINED SYMBOLS
