ARM GAS  /tmp/ccGpVCVR.s 			page 1


   1              		.syntax unified
   2              		.cpu cortex-m4
   3              		.fpu softvfp
   4              		.eabi_attribute 20, 1
   5              		.eabi_attribute 21, 1
   6              		.eabi_attribute 23, 3
   7              		.eabi_attribute 24, 1
   8              		.eabi_attribute 25, 1
   9              		.eabi_attribute 26, 1
  10              		.eabi_attribute 30, 2
  11              		.eabi_attribute 34, 1
  12              		.eabi_attribute 18, 4
  13              		.thumb
  14              		.file	"pal.c"
  15              		.text
  16              	.Ltext0:
  17              		.cfi_sections	.debug_frame
  18              		.section	.text.palReadBus,"ax",%progbits
  19              		.align	2
  20              		.p2align 4,,15
  21              		.global	palReadBus
  22              		.thumb
  23              		.thumb_func
  24              		.type	palReadBus, %function
  25              	palReadBus:
  26              	.LFB118:
  27              		.file 1 "../../os/hal/src/pal.c"
  28              		.loc 1 77 0
  29              		.cfi_startproc
  30              		@ args = 0, pretend = 0, frame = 0
  31              		@ frame_needed = 0, uses_anonymous_args = 0
  32              		@ link register save eliminated.
  33              	.LVL0:
  34              		.loc 1 82 0
  35 0000 4168     		ldr	r1, [r0, #4]
  36 0002 8268     		ldr	r2, [r0, #8]
  37 0004 0368     		ldr	r3, [r0]
  38 0006 01FA02F2 		lsl	r2, r1, r2
  39 000a 53F82200 		ldr	r0, [r3, r2, lsl #2]
  40              	.LVL1:
  41              		.loc 1 83 0
  42 000e 7047     		bx	lr
  43              		.cfi_endproc
  44              	.LFE118:
  45              		.size	palReadBus, .-palReadBus
  46              		.section	.text.palWriteBus,"ax",%progbits
  47              		.align	2
  48              		.p2align 4,,15
  49              		.global	palWriteBus
  50              		.thumb
  51              		.thumb_func
  52              		.type	palWriteBus, %function
  53              	palWriteBus:
  54              	.LFB119:
  55              		.loc 1 103 0
  56              		.cfi_startproc
  57              		@ args = 0, pretend = 0, frame = 0
ARM GAS  /tmp/ccGpVCVR.s 			page 2


  58              		@ frame_needed = 0, uses_anonymous_args = 0
  59              		@ link register save eliminated.
  60              	.LVL2:
  61 0000 10B4     		push	{r4}
  62              		.cfi_def_cfa_offset 4
  63              		.cfi_offset 4, -4
  64              		.loc 1 108 0
  65 0002 8268     		ldr	r2, [r0, #8]
  66 0004 4468     		ldr	r4, [r0, #4]
  67 0006 0368     		ldr	r3, [r0]
  68 0008 04FA02F2 		lsl	r2, r4, r2
  69 000c 43F82210 		str	r1, [r3, r2, lsl #2]
  70              		.loc 1 109 0
  71 0010 5DF8044B 		ldr	r4, [sp], #4
  72 0014 7047     		bx	lr
  73              		.cfi_endproc
  74              	.LFE119:
  75              		.size	palWriteBus, .-palWriteBus
  76 0016 00BFAFF3 		.section	.text.palSetBusMode,"ax",%progbits
  76      0080AFF3 
  76      0080
  77              		.align	2
  78              		.p2align 4,,15
  79              		.global	palSetBusMode
  80              		.thumb
  81              		.thumb_func
  82              		.type	palSetBusMode, %function
  83              	palSetBusMode:
  84              	.LFB120:
  85              		.loc 1 127 0
  86              		.cfi_startproc
  87              		@ args = 0, pretend = 0, frame = 0
  88              		@ frame_needed = 0, uses_anonymous_args = 0
  89              		@ link register save eliminated.
  90              	.LVL3:
  91 0000 10B4     		push	{r4}
  92              		.cfi_def_cfa_offset 4
  93              		.cfi_offset 4, -4
  94              		.loc 1 127 0
  95 0002 0A46     		mov	r2, r1
  96              		.loc 1 132 0
  97 0004 4468     		ldr	r4, [r0, #4]
  98 0006 8168     		ldr	r1, [r0, #8]
  99              	.LVL4:
 100 0008 0068     		ldr	r0, [r0]
 101              	.LVL5:
 102 000a 04FA01F1 		lsl	r1, r4, r1
 103              		.loc 1 133 0
 104 000e 5DF8044B 		ldr	r4, [sp], #4
 105              		.loc 1 132 0
 106 0012 FFF7FEBF 		b	_pal_lld_setgroupmode
 107              	.LVL6:
 108              		.cfi_endproc
 109              	.LFE120:
 110              		.size	palSetBusMode, .-palSetBusMode
 111 0016 00BFAFF3 		.text
 111      0080AFF3 
ARM GAS  /tmp/ccGpVCVR.s 			page 3


 111      0080
 112              	.Letext0:
 113              		.file 2 "/usr/include/newlib/machine/_default_types.h"
 114              		.file 3 "/usr/include/newlib/stdint.h"
 115              		.file 4 "../../os/ports/GCC/ARMCMx/TM4C129x/tm4c129x.h"
 116              		.file 5 "../../os/hal/platforms/TM4C129x/pal_lld.h"
 117              		.file 6 "../../os/hal/include/pal.h"
 118              		.file 7 "../../os/ports/common/ARMCMx/CMSIS/include/core_cm4.h"
 119              		.section	.debug_info,"",%progbits
 120              	.Ldebug_info0:
 121 0000 67040000 		.4byte	0x467
 122 0004 0400     		.2byte	0x4
 123 0006 00000000 		.4byte	.Ldebug_abbrev0
 124 000a 04       		.byte	0x4
 125 000b 01       		.uleb128 0x1
 126 000c 0E000000 		.4byte	.LASF46
 127 0010 01       		.byte	0x1
 128 0011 1C010000 		.4byte	.LASF47
 129 0015 A7010000 		.4byte	.LASF48
 130 0019 00000000 		.4byte	.Ldebug_ranges0+0
 131 001d 00000000 		.4byte	0
 132 0021 00000000 		.4byte	.Ldebug_line0
 133 0025 02       		.uleb128 0x2
 134 0026 04       		.byte	0x4
 135 0027 05       		.byte	0x5
 136 0028 696E7400 		.ascii	"int\000"
 137 002c 03       		.uleb128 0x3
 138 002d 04       		.byte	0x4
 139 002e 07       		.byte	0x7
 140 002f 20020000 		.4byte	.LASF0
 141 0033 03       		.uleb128 0x3
 142 0034 01       		.byte	0x1
 143 0035 06       		.byte	0x6
 144 0036 E7010000 		.4byte	.LASF1
 145 003a 03       		.uleb128 0x3
 146 003b 01       		.byte	0x1
 147 003c 08       		.byte	0x8
 148 003d 99010000 		.4byte	.LASF2
 149 0041 03       		.uleb128 0x3
 150 0042 02       		.byte	0x2
 151 0043 05       		.byte	0x5
 152 0044 E7000000 		.4byte	.LASF3
 153 0048 03       		.uleb128 0x3
 154 0049 02       		.byte	0x2
 155 004a 07       		.byte	0x7
 156 004b 38020000 		.4byte	.LASF4
 157 004f 04       		.uleb128 0x4
 158 0050 B4020000 		.4byte	.LASF6
 159 0054 02       		.byte	0x2
 160 0055 3F       		.byte	0x3f
 161 0056 5A000000 		.4byte	0x5a
 162 005a 03       		.uleb128 0x3
 163 005b 04       		.byte	0x4
 164 005c 05       		.byte	0x5
 165 005d 6A010000 		.4byte	.LASF5
 166 0061 04       		.uleb128 0x4
 167 0062 06010000 		.4byte	.LASF7
ARM GAS  /tmp/ccGpVCVR.s 			page 4


 168 0066 02       		.byte	0x2
 169 0067 41       		.byte	0x41
 170 0068 6C000000 		.4byte	0x6c
 171 006c 03       		.uleb128 0x3
 172 006d 04       		.byte	0x4
 173 006e 07       		.byte	0x7
 174 006f 83020000 		.4byte	.LASF8
 175 0073 03       		.uleb128 0x3
 176 0074 08       		.byte	0x8
 177 0075 05       		.byte	0x5
 178 0076 49010000 		.4byte	.LASF9
 179 007a 03       		.uleb128 0x3
 180 007b 08       		.byte	0x8
 181 007c 07       		.byte	0x7
 182 007d F3010000 		.4byte	.LASF10
 183 0081 04       		.uleb128 0x4
 184 0082 50020000 		.4byte	.LASF11
 185 0086 03       		.byte	0x3
 186 0087 41       		.byte	0x41
 187 0088 4F000000 		.4byte	0x4f
 188 008c 04       		.uleb128 0x4
 189 008d 17020000 		.4byte	.LASF12
 190 0091 03       		.byte	0x3
 191 0092 42       		.byte	0x42
 192 0093 61000000 		.4byte	0x61
 193 0097 04       		.uleb128 0x4
 194 0098 0A020000 		.4byte	.LASF13
 195 009c 03       		.byte	0x3
 196 009d 60       		.byte	0x60
 197 009e 2C000000 		.4byte	0x2c
 198 00a2 03       		.uleb128 0x3
 199 00a3 01       		.byte	0x1
 200 00a4 02       		.byte	0x2
 201 00a5 5F020000 		.4byte	.LASF14
 202 00a9 03       		.uleb128 0x3
 203 00aa 04       		.byte	0x4
 204 00ab 07       		.byte	0x7
 205 00ac F7000000 		.4byte	.LASF15
 206 00b0 05       		.uleb128 0x5
 207 00b1 8C000000 		.4byte	0x8c
 208 00b5 06       		.uleb128 0x6
 209 00b6 B0000000 		.4byte	0xb0
 210 00ba 07       		.uleb128 0x7
 211 00bb 8C000000 		.4byte	0x8c
 212 00bf CA000000 		.4byte	0xca
 213 00c3 08       		.uleb128 0x8
 214 00c4 A9000000 		.4byte	0xa9
 215 00c8 36       		.byte	0x36
 216 00c9 00       		.byte	0
 217 00ca 09       		.uleb128 0x9
 218 00cb 0004     		.2byte	0x400
 219 00cd 04       		.byte	0x4
 220 00ce 0502     		.2byte	0x205
 221 00d0 F0000000 		.4byte	0xf0
 222 00d4 0A       		.uleb128 0xa
 223 00d5 65020000 		.4byte	.LASF16
 224 00d9 04       		.byte	0x4
ARM GAS  /tmp/ccGpVCVR.s 			page 5


 225 00da 0602     		.2byte	0x206
 226 00dc 00010000 		.4byte	0x100
 227 00e0 00       		.byte	0
 228 00e1 0B       		.uleb128 0xb
 229 00e2 84010000 		.4byte	.LASF17
 230 00e6 04       		.byte	0x4
 231 00e7 0702     		.2byte	0x207
 232 00e9 B0000000 		.4byte	0xb0
 233 00ed FC03     		.2byte	0x3fc
 234 00ef 00       		.byte	0
 235 00f0 07       		.uleb128 0x7
 236 00f1 8C000000 		.4byte	0x8c
 237 00f5 00010000 		.4byte	0x100
 238 00f9 08       		.uleb128 0x8
 239 00fa A9000000 		.4byte	0xa9
 240 00fe FE       		.byte	0xfe
 241 00ff 00       		.byte	0
 242 0100 06       		.uleb128 0x6
 243 0101 05010000 		.4byte	0x105
 244 0105 05       		.uleb128 0x5
 245 0106 F0000000 		.4byte	0xf0
 246 010a 0C       		.uleb128 0xc
 247 010b 0004     		.2byte	0x400
 248 010d 04       		.byte	0x4
 249 010e 0302     		.2byte	0x203
 250 0110 26010000 		.4byte	0x126
 251 0114 0D       		.uleb128 0xd
 252 0115 5C010000 		.4byte	.LASF49
 253 0119 04       		.byte	0x4
 254 011a 0402     		.2byte	0x204
 255 011c 36010000 		.4byte	0x136
 256 0120 0E       		.uleb128 0xe
 257 0121 CA000000 		.4byte	0xca
 258 0125 00       		.byte	0
 259 0126 07       		.uleb128 0x7
 260 0127 8C000000 		.4byte	0x8c
 261 012b 36010000 		.4byte	0x136
 262 012f 08       		.uleb128 0x8
 263 0130 A9000000 		.4byte	0xa9
 264 0134 FF       		.byte	0xff
 265 0135 00       		.byte	0
 266 0136 05       		.uleb128 0x5
 267 0137 26010000 		.4byte	0x126
 268 013b 09       		.uleb128 0x9
 269 013c C80F     		.2byte	0xfc8
 270 013e 04       		.byte	0x4
 271 013f 0102     		.2byte	0x201
 272 0141 06030000 		.4byte	0x306
 273 0145 0F       		.uleb128 0xf
 274 0146 0A010000 		.4byte	0x10a
 275 014a 00       		.byte	0
 276 014b 10       		.uleb128 0x10
 277 014c 44495200 		.ascii	"DIR\000"
 278 0150 04       		.byte	0x4
 279 0151 0A02     		.2byte	0x20a
 280 0153 B0000000 		.4byte	0xb0
 281 0157 0004     		.2byte	0x400
ARM GAS  /tmp/ccGpVCVR.s 			page 6


 282 0159 10       		.uleb128 0x10
 283 015a 495300   		.ascii	"IS\000"
 284 015d 04       		.byte	0x4
 285 015e 0B02     		.2byte	0x20b
 286 0160 B0000000 		.4byte	0xb0
 287 0164 0404     		.2byte	0x404
 288 0166 10       		.uleb128 0x10
 289 0167 49424500 		.ascii	"IBE\000"
 290 016b 04       		.byte	0x4
 291 016c 0C02     		.2byte	0x20c
 292 016e B0000000 		.4byte	0xb0
 293 0172 0804     		.2byte	0x408
 294 0174 10       		.uleb128 0x10
 295 0175 49455600 		.ascii	"IEV\000"
 296 0179 04       		.byte	0x4
 297 017a 0D02     		.2byte	0x20d
 298 017c B0000000 		.4byte	0xb0
 299 0180 0C04     		.2byte	0x40c
 300 0182 10       		.uleb128 0x10
 301 0183 494D00   		.ascii	"IM\000"
 302 0186 04       		.byte	0x4
 303 0187 0E02     		.2byte	0x20e
 304 0189 B0000000 		.4byte	0xb0
 305 018d 1004     		.2byte	0x410
 306 018f 10       		.uleb128 0x10
 307 0190 52495300 		.ascii	"RIS\000"
 308 0194 04       		.byte	0x4
 309 0195 0F02     		.2byte	0x20f
 310 0197 B5000000 		.4byte	0xb5
 311 019b 1404     		.2byte	0x414
 312 019d 10       		.uleb128 0x10
 313 019e 4D495300 		.ascii	"MIS\000"
 314 01a2 04       		.byte	0x4
 315 01a3 1002     		.2byte	0x210
 316 01a5 B5000000 		.4byte	0xb5
 317 01a9 1804     		.2byte	0x418
 318 01ab 10       		.uleb128 0x10
 319 01ac 49435200 		.ascii	"ICR\000"
 320 01b0 04       		.byte	0x4
 321 01b1 1102     		.2byte	0x211
 322 01b3 B0000000 		.4byte	0xb0
 323 01b7 1C04     		.2byte	0x41c
 324 01b9 0B       		.uleb128 0xb
 325 01ba F1000000 		.4byte	.LASF18
 326 01be 04       		.byte	0x4
 327 01bf 1202     		.2byte	0x212
 328 01c1 B0000000 		.4byte	0xb0
 329 01c5 2004     		.2byte	0x420
 330 01c7 0B       		.uleb128 0xb
 331 01c8 6F020000 		.4byte	.LASF19
 332 01cc 04       		.byte	0x4
 333 01cd 1302     		.2byte	0x213
 334 01cf 06030000 		.4byte	0x306
 335 01d3 2404     		.2byte	0x424
 336 01d5 0B       		.uleb128 0xb
 337 01d6 94010000 		.4byte	.LASF20
 338 01da 04       		.byte	0x4
ARM GAS  /tmp/ccGpVCVR.s 			page 7


 339 01db 1402     		.2byte	0x214
 340 01dd B0000000 		.4byte	0xb0
 341 01e1 0005     		.2byte	0x500
 342 01e3 0B       		.uleb128 0xb
 343 01e4 09000000 		.4byte	.LASF21
 344 01e8 04       		.byte	0x4
 345 01e9 1502     		.2byte	0x215
 346 01eb B0000000 		.4byte	0xb0
 347 01ef 0405     		.2byte	0x504
 348 01f1 0B       		.uleb128 0xb
 349 01f2 E2000000 		.4byte	.LASF22
 350 01f6 04       		.byte	0x4
 351 01f7 1602     		.2byte	0x216
 352 01f9 B0000000 		.4byte	0xb0
 353 01fd 0805     		.2byte	0x508
 354 01ff 10       		.uleb128 0x10
 355 0200 4F445200 		.ascii	"ODR\000"
 356 0204 04       		.byte	0x4
 357 0205 1702     		.2byte	0x217
 358 0207 B0000000 		.4byte	0xb0
 359 020b 0C05     		.2byte	0x50c
 360 020d 10       		.uleb128 0x10
 361 020e 50555200 		.ascii	"PUR\000"
 362 0212 04       		.byte	0x4
 363 0213 1802     		.2byte	0x218
 364 0215 B0000000 		.4byte	0xb0
 365 0219 1005     		.2byte	0x510
 366 021b 10       		.uleb128 0x10
 367 021c 50445200 		.ascii	"PDR\000"
 368 0220 04       		.byte	0x4
 369 0221 1902     		.2byte	0x219
 370 0223 B0000000 		.4byte	0xb0
 371 0227 1405     		.2byte	0x514
 372 0229 10       		.uleb128 0x10
 373 022a 534C5200 		.ascii	"SLR\000"
 374 022e 04       		.byte	0x4
 375 022f 1A02     		.2byte	0x21a
 376 0231 B0000000 		.4byte	0xb0
 377 0235 1805     		.2byte	0x518
 378 0237 10       		.uleb128 0x10
 379 0238 44454E00 		.ascii	"DEN\000"
 380 023c 04       		.byte	0x4
 381 023d 1B02     		.2byte	0x21b
 382 023f B0000000 		.4byte	0xb0
 383 0243 1C05     		.2byte	0x51c
 384 0245 0B       		.uleb128 0xb
 385 0246 7F010000 		.4byte	.LASF23
 386 024a 04       		.byte	0x4
 387 024b 1C02     		.2byte	0x21c
 388 024d B0000000 		.4byte	0xb0
 389 0251 2005     		.2byte	0x520
 390 0253 10       		.uleb128 0x10
 391 0254 435200   		.ascii	"CR\000"
 392 0257 04       		.byte	0x4
 393 0258 1D02     		.2byte	0x21d
 394 025a B0000000 		.4byte	0xb0
 395 025e 2405     		.2byte	0x524
ARM GAS  /tmp/ccGpVCVR.s 			page 8


 396 0260 0B       		.uleb128 0xb
 397 0261 BE020000 		.4byte	.LASF24
 398 0265 04       		.byte	0x4
 399 0266 1E02     		.2byte	0x21e
 400 0268 B0000000 		.4byte	0xb0
 401 026c 2805     		.2byte	0x528
 402 026e 0B       		.uleb128 0xb
 403 026f 73010000 		.4byte	.LASF25
 404 0273 04       		.byte	0x4
 405 0274 1F02     		.2byte	0x21f
 406 0276 B0000000 		.4byte	0xb0
 407 027a 2C05     		.2byte	0x52c
 408 027c 0B       		.uleb128 0xb
 409 027d DB000000 		.4byte	.LASF26
 410 0281 04       		.byte	0x4
 411 0282 2002     		.2byte	0x220
 412 0284 B0000000 		.4byte	0xb0
 413 0288 3005     		.2byte	0x530
 414 028a 0B       		.uleb128 0xb
 415 028b 58020000 		.4byte	.LASF27
 416 028f 04       		.byte	0x4
 417 0290 2102     		.2byte	0x221
 418 0292 B0000000 		.4byte	0xb0
 419 0296 3405     		.2byte	0x534
 420 0298 10       		.uleb128 0x10
 421 0299 534900   		.ascii	"SI\000"
 422 029c 04       		.byte	0x4
 423 029d 2202     		.2byte	0x222
 424 029f B0000000 		.4byte	0xb0
 425 02a3 3805     		.2byte	0x538
 426 02a5 0B       		.uleb128 0xb
 427 02a6 00010000 		.4byte	.LASF28
 428 02aa 04       		.byte	0x4
 429 02ab 2302     		.2byte	0x223
 430 02ad B0000000 		.4byte	0xb0
 431 02b1 3C05     		.2byte	0x53c
 432 02b3 0B       		.uleb128 0xb
 433 02b4 D9020000 		.4byte	.LASF29
 434 02b8 04       		.byte	0x4
 435 02b9 2402     		.2byte	0x224
 436 02bb B0000000 		.4byte	0xb0
 437 02bf 4005     		.2byte	0x540
 438 02c1 0B       		.uleb128 0xb
 439 02c2 C4020000 		.4byte	.LASF30
 440 02c6 04       		.byte	0x4
 441 02c7 2502     		.2byte	0x225
 442 02c9 B0000000 		.4byte	0xb0
 443 02cd 4405     		.2byte	0x544
 444 02cf 0B       		.uleb128 0xb
 445 02d0 00000000 		.4byte	.LASF31
 446 02d4 04       		.byte	0x4
 447 02d5 2602     		.2byte	0x226
 448 02d7 B0000000 		.4byte	0xb0
 449 02db 4805     		.2byte	0x548
 450 02dd 0B       		.uleb128 0xb
 451 02de 79020000 		.4byte	.LASF32
 452 02e2 04       		.byte	0x4
ARM GAS  /tmp/ccGpVCVR.s 			page 9


 453 02e3 2702     		.2byte	0x227
 454 02e5 21030000 		.4byte	0x321
 455 02e9 4C05     		.2byte	0x54c
 456 02eb 10       		.uleb128 0x10
 457 02ec 505000   		.ascii	"PP\000"
 458 02ef 04       		.byte	0x4
 459 02f0 2802     		.2byte	0x228
 460 02f2 B5000000 		.4byte	0xb5
 461 02f6 C00F     		.2byte	0xfc0
 462 02f8 10       		.uleb128 0x10
 463 02f9 504300   		.ascii	"PC\000"
 464 02fc 04       		.byte	0x4
 465 02fd 2902     		.2byte	0x229
 466 02ff B0000000 		.4byte	0xb0
 467 0303 C40F     		.2byte	0xfc4
 468 0305 00       		.byte	0
 469 0306 06       		.uleb128 0x6
 470 0307 0B030000 		.4byte	0x30b
 471 030b 05       		.uleb128 0x5
 472 030c BA000000 		.4byte	0xba
 473 0310 07       		.uleb128 0x7
 474 0311 8C000000 		.4byte	0x8c
 475 0315 21030000 		.4byte	0x321
 476 0319 11       		.uleb128 0x11
 477 031a A9000000 		.4byte	0xa9
 478 031e 9C02     		.2byte	0x29c
 479 0320 00       		.byte	0
 480 0321 06       		.uleb128 0x6
 481 0322 26030000 		.4byte	0x326
 482 0326 05       		.uleb128 0x5
 483 0327 10030000 		.4byte	0x310
 484 032b 12       		.uleb128 0x12
 485 032c E1020000 		.4byte	.LASF33
 486 0330 04       		.byte	0x4
 487 0331 2A02     		.2byte	0x22a
 488 0333 3B010000 		.4byte	0x13b
 489 0337 03       		.uleb128 0x3
 490 0338 01       		.byte	0x1
 491 0339 08       		.byte	0x8
 492 033a 4B020000 		.4byte	.LASF34
 493 033e 04       		.uleb128 0x4
 494 033f 3C010000 		.4byte	.LASF35
 495 0343 05       		.byte	0x5
 496 0344 A8       		.byte	0xa8
 497 0345 8C000000 		.4byte	0x8c
 498 0349 04       		.uleb128 0x4
 499 034a 33010000 		.4byte	.LASF36
 500 034e 05       		.byte	0x5
 501 034f AD       		.byte	0xad
 502 0350 8C000000 		.4byte	0x8c
 503 0354 04       		.uleb128 0x4
 504 0355 89010000 		.4byte	.LASF37
 505 0359 05       		.byte	0x5
 506 035a B2       		.byte	0xb2
 507 035b 5F030000 		.4byte	0x35f
 508 035f 13       		.uleb128 0x13
 509 0360 04       		.byte	0x4
ARM GAS  /tmp/ccGpVCVR.s 			page 10


 510 0361 2B030000 		.4byte	0x32b
 511 0365 14       		.uleb128 0x14
 512 0366 0C       		.byte	0xc
 513 0367 06       		.byte	0x6
 514 0368 85       		.byte	0x85
 515 0369 92030000 		.4byte	0x392
 516 036d 15       		.uleb128 0x15
 517 036e BE000000 		.4byte	.LASF38
 518 0372 06       		.byte	0x6
 519 0373 89       		.byte	0x89
 520 0374 54030000 		.4byte	0x354
 521 0378 00       		.byte	0
 522 0379 15       		.uleb128 0x15
 523 037a AF020000 		.4byte	.LASF39
 524 037e 06       		.byte	0x6
 525 037f 8F       		.byte	0x8f
 526 0380 3E030000 		.4byte	0x33e
 527 0384 04       		.byte	0x4
 528 0385 15       		.uleb128 0x15
 529 0386 78010000 		.4byte	.LASF40
 530 038a 06       		.byte	0x6
 531 038b 93       		.byte	0x93
 532 038c 97000000 		.4byte	0x97
 533 0390 08       		.byte	0x8
 534 0391 00       		.byte	0
 535 0392 04       		.uleb128 0x4
 536 0393 11010000 		.4byte	.LASF41
 537 0397 06       		.byte	0x6
 538 0398 94       		.byte	0x94
 539 0399 65030000 		.4byte	0x365
 540 039d 16       		.uleb128 0x16
 541 039e 2D020000 		.4byte	.LASF50
 542 03a2 01       		.byte	0x1
 543 03a3 4D       		.byte	0x4d
 544 03a4 3E030000 		.4byte	0x33e
 545 03a8 00000000 		.4byte	.LFB118
 546 03ac 10000000 		.4byte	.LFE118-.LFB118
 547 03b0 01       		.uleb128 0x1
 548 03b1 9C       		.byte	0x9c
 549 03b2 C6030000 		.4byte	0x3c6
 550 03b6 17       		.uleb128 0x17
 551 03b7 62757300 		.ascii	"bus\000"
 552 03bb 01       		.byte	0x1
 553 03bc 4D       		.byte	0x4d
 554 03bd C6030000 		.4byte	0x3c6
 555 03c1 00000000 		.4byte	.LLST0
 556 03c5 00       		.byte	0
 557 03c6 13       		.uleb128 0x13
 558 03c7 04       		.byte	0x4
 559 03c8 92030000 		.4byte	0x392
 560 03cc 18       		.uleb128 0x18
 561 03cd A3020000 		.4byte	.LASF43
 562 03d1 01       		.byte	0x1
 563 03d2 67       		.byte	0x67
 564 03d3 00000000 		.4byte	.LFB119
 565 03d7 16000000 		.4byte	.LFE119-.LFB119
 566 03db 01       		.uleb128 0x1
ARM GAS  /tmp/ccGpVCVR.s 			page 11


 567 03dc 9C       		.byte	0x9c
 568 03dd FC030000 		.4byte	0x3fc
 569 03e1 19       		.uleb128 0x19
 570 03e2 62757300 		.ascii	"bus\000"
 571 03e6 01       		.byte	0x1
 572 03e7 67       		.byte	0x67
 573 03e8 C6030000 		.4byte	0x3c6
 574 03ec 01       		.uleb128 0x1
 575 03ed 50       		.byte	0x50
 576 03ee 1A       		.uleb128 0x1a
 577 03ef 57010000 		.4byte	.LASF42
 578 03f3 01       		.byte	0x1
 579 03f4 67       		.byte	0x67
 580 03f5 3E030000 		.4byte	0x33e
 581 03f9 01       		.uleb128 0x1
 582 03fa 51       		.byte	0x51
 583 03fb 00       		.byte	0
 584 03fc 18       		.uleb128 0x18
 585 03fd 95020000 		.4byte	.LASF44
 586 0401 01       		.byte	0x1
 587 0402 7F       		.byte	0x7f
 588 0403 00000000 		.4byte	.LFB120
 589 0407 16000000 		.4byte	.LFE120-.LFB120
 590 040b 01       		.uleb128 0x1
 591 040c 9C       		.byte	0x9c
 592 040d 41040000 		.4byte	0x441
 593 0411 17       		.uleb128 0x17
 594 0412 62757300 		.ascii	"bus\000"
 595 0416 01       		.byte	0x1
 596 0417 7F       		.byte	0x7f
 597 0418 C6030000 		.4byte	0x3c6
 598 041c 21000000 		.4byte	.LLST1
 599 0420 1B       		.uleb128 0x1b
 600 0421 17010000 		.4byte	.LASF45
 601 0425 01       		.byte	0x1
 602 0426 7F       		.byte	0x7f
 603 0427 49030000 		.4byte	0x349
 604 042b 42000000 		.4byte	.LLST2
 605 042f 1C       		.uleb128 0x1c
 606 0430 16000000 		.4byte	.LVL6
 607 0434 52040000 		.4byte	0x452
 608 0438 1D       		.uleb128 0x1d
 609 0439 01       		.uleb128 0x1
 610 043a 52       		.byte	0x52
 611 043b 03       		.uleb128 0x3
 612 043c F3       		.byte	0xf3
 613 043d 01       		.uleb128 0x1
 614 043e 51       		.byte	0x51
 615 043f 00       		.byte	0
 616 0440 00       		.byte	0
 617 0441 1E       		.uleb128 0x1e
 618 0442 CC020000 		.4byte	.LASF51
 619 0446 07       		.byte	0x7
 620 0447 9806     		.2byte	0x698
 621 0449 4D040000 		.4byte	0x44d
 622 044d 05       		.uleb128 0x5
 623 044e 81000000 		.4byte	0x81
ARM GAS  /tmp/ccGpVCVR.s 			page 12


 624 0452 1F       		.uleb128 0x1f
 625 0453 C5000000 		.4byte	.LASF52
 626 0457 05       		.byte	0x5
 627 0458 C501     		.2byte	0x1c5
 628 045a 20       		.uleb128 0x20
 629 045b 54030000 		.4byte	0x354
 630 045f 20       		.uleb128 0x20
 631 0460 3E030000 		.4byte	0x33e
 632 0464 20       		.uleb128 0x20
 633 0465 49030000 		.4byte	0x349
 634 0469 00       		.byte	0
 635 046a 00       		.byte	0
 636              		.section	.debug_abbrev,"",%progbits
 637              	.Ldebug_abbrev0:
 638 0000 01       		.uleb128 0x1
 639 0001 11       		.uleb128 0x11
 640 0002 01       		.byte	0x1
 641 0003 25       		.uleb128 0x25
 642 0004 0E       		.uleb128 0xe
 643 0005 13       		.uleb128 0x13
 644 0006 0B       		.uleb128 0xb
 645 0007 03       		.uleb128 0x3
 646 0008 0E       		.uleb128 0xe
 647 0009 1B       		.uleb128 0x1b
 648 000a 0E       		.uleb128 0xe
 649 000b 55       		.uleb128 0x55
 650 000c 17       		.uleb128 0x17
 651 000d 11       		.uleb128 0x11
 652 000e 01       		.uleb128 0x1
 653 000f 10       		.uleb128 0x10
 654 0010 17       		.uleb128 0x17
 655 0011 00       		.byte	0
 656 0012 00       		.byte	0
 657 0013 02       		.uleb128 0x2
 658 0014 24       		.uleb128 0x24
 659 0015 00       		.byte	0
 660 0016 0B       		.uleb128 0xb
 661 0017 0B       		.uleb128 0xb
 662 0018 3E       		.uleb128 0x3e
 663 0019 0B       		.uleb128 0xb
 664 001a 03       		.uleb128 0x3
 665 001b 08       		.uleb128 0x8
 666 001c 00       		.byte	0
 667 001d 00       		.byte	0
 668 001e 03       		.uleb128 0x3
 669 001f 24       		.uleb128 0x24
 670 0020 00       		.byte	0
 671 0021 0B       		.uleb128 0xb
 672 0022 0B       		.uleb128 0xb
 673 0023 3E       		.uleb128 0x3e
 674 0024 0B       		.uleb128 0xb
 675 0025 03       		.uleb128 0x3
 676 0026 0E       		.uleb128 0xe
 677 0027 00       		.byte	0
 678 0028 00       		.byte	0
 679 0029 04       		.uleb128 0x4
 680 002a 16       		.uleb128 0x16
ARM GAS  /tmp/ccGpVCVR.s 			page 13


 681 002b 00       		.byte	0
 682 002c 03       		.uleb128 0x3
 683 002d 0E       		.uleb128 0xe
 684 002e 3A       		.uleb128 0x3a
 685 002f 0B       		.uleb128 0xb
 686 0030 3B       		.uleb128 0x3b
 687 0031 0B       		.uleb128 0xb
 688 0032 49       		.uleb128 0x49
 689 0033 13       		.uleb128 0x13
 690 0034 00       		.byte	0
 691 0035 00       		.byte	0
 692 0036 05       		.uleb128 0x5
 693 0037 35       		.uleb128 0x35
 694 0038 00       		.byte	0
 695 0039 49       		.uleb128 0x49
 696 003a 13       		.uleb128 0x13
 697 003b 00       		.byte	0
 698 003c 00       		.byte	0
 699 003d 06       		.uleb128 0x6
 700 003e 26       		.uleb128 0x26
 701 003f 00       		.byte	0
 702 0040 49       		.uleb128 0x49
 703 0041 13       		.uleb128 0x13
 704 0042 00       		.byte	0
 705 0043 00       		.byte	0
 706 0044 07       		.uleb128 0x7
 707 0045 01       		.uleb128 0x1
 708 0046 01       		.byte	0x1
 709 0047 49       		.uleb128 0x49
 710 0048 13       		.uleb128 0x13
 711 0049 01       		.uleb128 0x1
 712 004a 13       		.uleb128 0x13
 713 004b 00       		.byte	0
 714 004c 00       		.byte	0
 715 004d 08       		.uleb128 0x8
 716 004e 21       		.uleb128 0x21
 717 004f 00       		.byte	0
 718 0050 49       		.uleb128 0x49
 719 0051 13       		.uleb128 0x13
 720 0052 2F       		.uleb128 0x2f
 721 0053 0B       		.uleb128 0xb
 722 0054 00       		.byte	0
 723 0055 00       		.byte	0
 724 0056 09       		.uleb128 0x9
 725 0057 13       		.uleb128 0x13
 726 0058 01       		.byte	0x1
 727 0059 0B       		.uleb128 0xb
 728 005a 05       		.uleb128 0x5
 729 005b 3A       		.uleb128 0x3a
 730 005c 0B       		.uleb128 0xb
 731 005d 3B       		.uleb128 0x3b
 732 005e 05       		.uleb128 0x5
 733 005f 01       		.uleb128 0x1
 734 0060 13       		.uleb128 0x13
 735 0061 00       		.byte	0
 736 0062 00       		.byte	0
 737 0063 0A       		.uleb128 0xa
ARM GAS  /tmp/ccGpVCVR.s 			page 14


 738 0064 0D       		.uleb128 0xd
 739 0065 00       		.byte	0
 740 0066 03       		.uleb128 0x3
 741 0067 0E       		.uleb128 0xe
 742 0068 3A       		.uleb128 0x3a
 743 0069 0B       		.uleb128 0xb
 744 006a 3B       		.uleb128 0x3b
 745 006b 05       		.uleb128 0x5
 746 006c 49       		.uleb128 0x49
 747 006d 13       		.uleb128 0x13
 748 006e 38       		.uleb128 0x38
 749 006f 0B       		.uleb128 0xb
 750 0070 00       		.byte	0
 751 0071 00       		.byte	0
 752 0072 0B       		.uleb128 0xb
 753 0073 0D       		.uleb128 0xd
 754 0074 00       		.byte	0
 755 0075 03       		.uleb128 0x3
 756 0076 0E       		.uleb128 0xe
 757 0077 3A       		.uleb128 0x3a
 758 0078 0B       		.uleb128 0xb
 759 0079 3B       		.uleb128 0x3b
 760 007a 05       		.uleb128 0x5
 761 007b 49       		.uleb128 0x49
 762 007c 13       		.uleb128 0x13
 763 007d 38       		.uleb128 0x38
 764 007e 05       		.uleb128 0x5
 765 007f 00       		.byte	0
 766 0080 00       		.byte	0
 767 0081 0C       		.uleb128 0xc
 768 0082 17       		.uleb128 0x17
 769 0083 01       		.byte	0x1
 770 0084 0B       		.uleb128 0xb
 771 0085 05       		.uleb128 0x5
 772 0086 3A       		.uleb128 0x3a
 773 0087 0B       		.uleb128 0xb
 774 0088 3B       		.uleb128 0x3b
 775 0089 05       		.uleb128 0x5
 776 008a 01       		.uleb128 0x1
 777 008b 13       		.uleb128 0x13
 778 008c 00       		.byte	0
 779 008d 00       		.byte	0
 780 008e 0D       		.uleb128 0xd
 781 008f 0D       		.uleb128 0xd
 782 0090 00       		.byte	0
 783 0091 03       		.uleb128 0x3
 784 0092 0E       		.uleb128 0xe
 785 0093 3A       		.uleb128 0x3a
 786 0094 0B       		.uleb128 0xb
 787 0095 3B       		.uleb128 0x3b
 788 0096 05       		.uleb128 0x5
 789 0097 49       		.uleb128 0x49
 790 0098 13       		.uleb128 0x13
 791 0099 00       		.byte	0
 792 009a 00       		.byte	0
 793 009b 0E       		.uleb128 0xe
 794 009c 0D       		.uleb128 0xd
ARM GAS  /tmp/ccGpVCVR.s 			page 15


 795 009d 00       		.byte	0
 796 009e 49       		.uleb128 0x49
 797 009f 13       		.uleb128 0x13
 798 00a0 00       		.byte	0
 799 00a1 00       		.byte	0
 800 00a2 0F       		.uleb128 0xf
 801 00a3 0D       		.uleb128 0xd
 802 00a4 00       		.byte	0
 803 00a5 49       		.uleb128 0x49
 804 00a6 13       		.uleb128 0x13
 805 00a7 38       		.uleb128 0x38
 806 00a8 0B       		.uleb128 0xb
 807 00a9 00       		.byte	0
 808 00aa 00       		.byte	0
 809 00ab 10       		.uleb128 0x10
 810 00ac 0D       		.uleb128 0xd
 811 00ad 00       		.byte	0
 812 00ae 03       		.uleb128 0x3
 813 00af 08       		.uleb128 0x8
 814 00b0 3A       		.uleb128 0x3a
 815 00b1 0B       		.uleb128 0xb
 816 00b2 3B       		.uleb128 0x3b
 817 00b3 05       		.uleb128 0x5
 818 00b4 49       		.uleb128 0x49
 819 00b5 13       		.uleb128 0x13
 820 00b6 38       		.uleb128 0x38
 821 00b7 05       		.uleb128 0x5
 822 00b8 00       		.byte	0
 823 00b9 00       		.byte	0
 824 00ba 11       		.uleb128 0x11
 825 00bb 21       		.uleb128 0x21
 826 00bc 00       		.byte	0
 827 00bd 49       		.uleb128 0x49
 828 00be 13       		.uleb128 0x13
 829 00bf 2F       		.uleb128 0x2f
 830 00c0 05       		.uleb128 0x5
 831 00c1 00       		.byte	0
 832 00c2 00       		.byte	0
 833 00c3 12       		.uleb128 0x12
 834 00c4 16       		.uleb128 0x16
 835 00c5 00       		.byte	0
 836 00c6 03       		.uleb128 0x3
 837 00c7 0E       		.uleb128 0xe
 838 00c8 3A       		.uleb128 0x3a
 839 00c9 0B       		.uleb128 0xb
 840 00ca 3B       		.uleb128 0x3b
 841 00cb 05       		.uleb128 0x5
 842 00cc 49       		.uleb128 0x49
 843 00cd 13       		.uleb128 0x13
 844 00ce 00       		.byte	0
 845 00cf 00       		.byte	0
 846 00d0 13       		.uleb128 0x13
 847 00d1 0F       		.uleb128 0xf
 848 00d2 00       		.byte	0
 849 00d3 0B       		.uleb128 0xb
 850 00d4 0B       		.uleb128 0xb
 851 00d5 49       		.uleb128 0x49
ARM GAS  /tmp/ccGpVCVR.s 			page 16


 852 00d6 13       		.uleb128 0x13
 853 00d7 00       		.byte	0
 854 00d8 00       		.byte	0
 855 00d9 14       		.uleb128 0x14
 856 00da 13       		.uleb128 0x13
 857 00db 01       		.byte	0x1
 858 00dc 0B       		.uleb128 0xb
 859 00dd 0B       		.uleb128 0xb
 860 00de 3A       		.uleb128 0x3a
 861 00df 0B       		.uleb128 0xb
 862 00e0 3B       		.uleb128 0x3b
 863 00e1 0B       		.uleb128 0xb
 864 00e2 01       		.uleb128 0x1
 865 00e3 13       		.uleb128 0x13
 866 00e4 00       		.byte	0
 867 00e5 00       		.byte	0
 868 00e6 15       		.uleb128 0x15
 869 00e7 0D       		.uleb128 0xd
 870 00e8 00       		.byte	0
 871 00e9 03       		.uleb128 0x3
 872 00ea 0E       		.uleb128 0xe
 873 00eb 3A       		.uleb128 0x3a
 874 00ec 0B       		.uleb128 0xb
 875 00ed 3B       		.uleb128 0x3b
 876 00ee 0B       		.uleb128 0xb
 877 00ef 49       		.uleb128 0x49
 878 00f0 13       		.uleb128 0x13
 879 00f1 38       		.uleb128 0x38
 880 00f2 0B       		.uleb128 0xb
 881 00f3 00       		.byte	0
 882 00f4 00       		.byte	0
 883 00f5 16       		.uleb128 0x16
 884 00f6 2E       		.uleb128 0x2e
 885 00f7 01       		.byte	0x1
 886 00f8 3F       		.uleb128 0x3f
 887 00f9 19       		.uleb128 0x19
 888 00fa 03       		.uleb128 0x3
 889 00fb 0E       		.uleb128 0xe
 890 00fc 3A       		.uleb128 0x3a
 891 00fd 0B       		.uleb128 0xb
 892 00fe 3B       		.uleb128 0x3b
 893 00ff 0B       		.uleb128 0xb
 894 0100 27       		.uleb128 0x27
 895 0101 19       		.uleb128 0x19
 896 0102 49       		.uleb128 0x49
 897 0103 13       		.uleb128 0x13
 898 0104 11       		.uleb128 0x11
 899 0105 01       		.uleb128 0x1
 900 0106 12       		.uleb128 0x12
 901 0107 06       		.uleb128 0x6
 902 0108 40       		.uleb128 0x40
 903 0109 18       		.uleb128 0x18
 904 010a 9742     		.uleb128 0x2117
 905 010c 19       		.uleb128 0x19
 906 010d 01       		.uleb128 0x1
 907 010e 13       		.uleb128 0x13
 908 010f 00       		.byte	0
ARM GAS  /tmp/ccGpVCVR.s 			page 17


 909 0110 00       		.byte	0
 910 0111 17       		.uleb128 0x17
 911 0112 05       		.uleb128 0x5
 912 0113 00       		.byte	0
 913 0114 03       		.uleb128 0x3
 914 0115 08       		.uleb128 0x8
 915 0116 3A       		.uleb128 0x3a
 916 0117 0B       		.uleb128 0xb
 917 0118 3B       		.uleb128 0x3b
 918 0119 0B       		.uleb128 0xb
 919 011a 49       		.uleb128 0x49
 920 011b 13       		.uleb128 0x13
 921 011c 02       		.uleb128 0x2
 922 011d 17       		.uleb128 0x17
 923 011e 00       		.byte	0
 924 011f 00       		.byte	0
 925 0120 18       		.uleb128 0x18
 926 0121 2E       		.uleb128 0x2e
 927 0122 01       		.byte	0x1
 928 0123 3F       		.uleb128 0x3f
 929 0124 19       		.uleb128 0x19
 930 0125 03       		.uleb128 0x3
 931 0126 0E       		.uleb128 0xe
 932 0127 3A       		.uleb128 0x3a
 933 0128 0B       		.uleb128 0xb
 934 0129 3B       		.uleb128 0x3b
 935 012a 0B       		.uleb128 0xb
 936 012b 27       		.uleb128 0x27
 937 012c 19       		.uleb128 0x19
 938 012d 11       		.uleb128 0x11
 939 012e 01       		.uleb128 0x1
 940 012f 12       		.uleb128 0x12
 941 0130 06       		.uleb128 0x6
 942 0131 40       		.uleb128 0x40
 943 0132 18       		.uleb128 0x18
 944 0133 9742     		.uleb128 0x2117
 945 0135 19       		.uleb128 0x19
 946 0136 01       		.uleb128 0x1
 947 0137 13       		.uleb128 0x13
 948 0138 00       		.byte	0
 949 0139 00       		.byte	0
 950 013a 19       		.uleb128 0x19
 951 013b 05       		.uleb128 0x5
 952 013c 00       		.byte	0
 953 013d 03       		.uleb128 0x3
 954 013e 08       		.uleb128 0x8
 955 013f 3A       		.uleb128 0x3a
 956 0140 0B       		.uleb128 0xb
 957 0141 3B       		.uleb128 0x3b
 958 0142 0B       		.uleb128 0xb
 959 0143 49       		.uleb128 0x49
 960 0144 13       		.uleb128 0x13
 961 0145 02       		.uleb128 0x2
 962 0146 18       		.uleb128 0x18
 963 0147 00       		.byte	0
 964 0148 00       		.byte	0
 965 0149 1A       		.uleb128 0x1a
ARM GAS  /tmp/ccGpVCVR.s 			page 18


 966 014a 05       		.uleb128 0x5
 967 014b 00       		.byte	0
 968 014c 03       		.uleb128 0x3
 969 014d 0E       		.uleb128 0xe
 970 014e 3A       		.uleb128 0x3a
 971 014f 0B       		.uleb128 0xb
 972 0150 3B       		.uleb128 0x3b
 973 0151 0B       		.uleb128 0xb
 974 0152 49       		.uleb128 0x49
 975 0153 13       		.uleb128 0x13
 976 0154 02       		.uleb128 0x2
 977 0155 18       		.uleb128 0x18
 978 0156 00       		.byte	0
 979 0157 00       		.byte	0
 980 0158 1B       		.uleb128 0x1b
 981 0159 05       		.uleb128 0x5
 982 015a 00       		.byte	0
 983 015b 03       		.uleb128 0x3
 984 015c 0E       		.uleb128 0xe
 985 015d 3A       		.uleb128 0x3a
 986 015e 0B       		.uleb128 0xb
 987 015f 3B       		.uleb128 0x3b
 988 0160 0B       		.uleb128 0xb
 989 0161 49       		.uleb128 0x49
 990 0162 13       		.uleb128 0x13
 991 0163 02       		.uleb128 0x2
 992 0164 17       		.uleb128 0x17
 993 0165 00       		.byte	0
 994 0166 00       		.byte	0
 995 0167 1C       		.uleb128 0x1c
 996 0168 898201   		.uleb128 0x4109
 997 016b 01       		.byte	0x1
 998 016c 11       		.uleb128 0x11
 999 016d 01       		.uleb128 0x1
 1000 016e 9542     		.uleb128 0x2115
 1001 0170 19       		.uleb128 0x19
 1002 0171 31       		.uleb128 0x31
 1003 0172 13       		.uleb128 0x13
 1004 0173 00       		.byte	0
 1005 0174 00       		.byte	0
 1006 0175 1D       		.uleb128 0x1d
 1007 0176 8A8201   		.uleb128 0x410a
 1008 0179 00       		.byte	0
 1009 017a 02       		.uleb128 0x2
 1010 017b 18       		.uleb128 0x18
 1011 017c 9142     		.uleb128 0x2111
 1012 017e 18       		.uleb128 0x18
 1013 017f 00       		.byte	0
 1014 0180 00       		.byte	0
 1015 0181 1E       		.uleb128 0x1e
 1016 0182 34       		.uleb128 0x34
 1017 0183 00       		.byte	0
 1018 0184 03       		.uleb128 0x3
 1019 0185 0E       		.uleb128 0xe
 1020 0186 3A       		.uleb128 0x3a
 1021 0187 0B       		.uleb128 0xb
 1022 0188 3B       		.uleb128 0x3b
ARM GAS  /tmp/ccGpVCVR.s 			page 19


 1023 0189 05       		.uleb128 0x5
 1024 018a 49       		.uleb128 0x49
 1025 018b 13       		.uleb128 0x13
 1026 018c 3F       		.uleb128 0x3f
 1027 018d 19       		.uleb128 0x19
 1028 018e 3C       		.uleb128 0x3c
 1029 018f 19       		.uleb128 0x19
 1030 0190 00       		.byte	0
 1031 0191 00       		.byte	0
 1032 0192 1F       		.uleb128 0x1f
 1033 0193 2E       		.uleb128 0x2e
 1034 0194 01       		.byte	0x1
 1035 0195 3F       		.uleb128 0x3f
 1036 0196 19       		.uleb128 0x19
 1037 0197 03       		.uleb128 0x3
 1038 0198 0E       		.uleb128 0xe
 1039 0199 3A       		.uleb128 0x3a
 1040 019a 0B       		.uleb128 0xb
 1041 019b 3B       		.uleb128 0x3b
 1042 019c 05       		.uleb128 0x5
 1043 019d 27       		.uleb128 0x27
 1044 019e 19       		.uleb128 0x19
 1045 019f 3C       		.uleb128 0x3c
 1046 01a0 19       		.uleb128 0x19
 1047 01a1 00       		.byte	0
 1048 01a2 00       		.byte	0
 1049 01a3 20       		.uleb128 0x20
 1050 01a4 05       		.uleb128 0x5
 1051 01a5 00       		.byte	0
 1052 01a6 49       		.uleb128 0x49
 1053 01a7 13       		.uleb128 0x13
 1054 01a8 00       		.byte	0
 1055 01a9 00       		.byte	0
 1056 01aa 00       		.byte	0
 1057              		.section	.debug_loc,"",%progbits
 1058              	.Ldebug_loc0:
 1059              	.LLST0:
 1060 0000 00000000 		.4byte	.LVL0
 1061 0004 0E000000 		.4byte	.LVL1
 1062 0008 0100     		.2byte	0x1
 1063 000a 50       		.byte	0x50
 1064 000b 0E000000 		.4byte	.LVL1
 1065 000f 10000000 		.4byte	.LFE118
 1066 0013 0400     		.2byte	0x4
 1067 0015 F3       		.byte	0xf3
 1068 0016 01       		.uleb128 0x1
 1069 0017 50       		.byte	0x50
 1070 0018 9F       		.byte	0x9f
 1071 0019 00000000 		.4byte	0
 1072 001d 00000000 		.4byte	0
 1073              	.LLST1:
 1074 0021 00000000 		.4byte	.LVL3
 1075 0025 0A000000 		.4byte	.LVL5
 1076 0029 0100     		.2byte	0x1
 1077 002b 50       		.byte	0x50
 1078 002c 0A000000 		.4byte	.LVL5
 1079 0030 16000000 		.4byte	.LFE120
ARM GAS  /tmp/ccGpVCVR.s 			page 20


 1080 0034 0400     		.2byte	0x4
 1081 0036 F3       		.byte	0xf3
 1082 0037 01       		.uleb128 0x1
 1083 0038 50       		.byte	0x50
 1084 0039 9F       		.byte	0x9f
 1085 003a 00000000 		.4byte	0
 1086 003e 00000000 		.4byte	0
 1087              	.LLST2:
 1088 0042 00000000 		.4byte	.LVL3
 1089 0046 08000000 		.4byte	.LVL4
 1090 004a 0100     		.2byte	0x1
 1091 004c 51       		.byte	0x51
 1092 004d 08000000 		.4byte	.LVL4
 1093 0051 15000000 		.4byte	.LVL6-1
 1094 0055 0100     		.2byte	0x1
 1095 0057 52       		.byte	0x52
 1096 0058 15000000 		.4byte	.LVL6-1
 1097 005c 16000000 		.4byte	.LFE120
 1098 0060 0400     		.2byte	0x4
 1099 0062 F3       		.byte	0xf3
 1100 0063 01       		.uleb128 0x1
 1101 0064 51       		.byte	0x51
 1102 0065 9F       		.byte	0x9f
 1103 0066 00000000 		.4byte	0
 1104 006a 00000000 		.4byte	0
 1105              		.section	.debug_aranges,"",%progbits
 1106 0000 2C000000 		.4byte	0x2c
 1107 0004 0200     		.2byte	0x2
 1108 0006 00000000 		.4byte	.Ldebug_info0
 1109 000a 04       		.byte	0x4
 1110 000b 00       		.byte	0
 1111 000c 0000     		.2byte	0
 1112 000e 0000     		.2byte	0
 1113 0010 00000000 		.4byte	.LFB118
 1114 0014 10000000 		.4byte	.LFE118-.LFB118
 1115 0018 00000000 		.4byte	.LFB119
 1116 001c 16000000 		.4byte	.LFE119-.LFB119
 1117 0020 00000000 		.4byte	.LFB120
 1118 0024 16000000 		.4byte	.LFE120-.LFB120
 1119 0028 00000000 		.4byte	0
 1120 002c 00000000 		.4byte	0
 1121              		.section	.debug_ranges,"",%progbits
 1122              	.Ldebug_ranges0:
 1123 0000 00000000 		.4byte	.LFB118
 1124 0004 10000000 		.4byte	.LFE118
 1125 0008 00000000 		.4byte	.LFB119
 1126 000c 16000000 		.4byte	.LFE119
 1127 0010 00000000 		.4byte	.LFB120
 1128 0014 16000000 		.4byte	.LFE120
 1129 0018 00000000 		.4byte	0
 1130 001c 00000000 		.4byte	0
 1131              		.section	.debug_line,"",%progbits
 1132              	.Ldebug_line0:
 1133 0000 70010000 		.section	.debug_str,"MS",%progbits,1
 1133      02003201 
 1133      00000201 
 1133      FB0E0D00 
ARM GAS  /tmp/ccGpVCVR.s 			page 21


 1133      01010101 
 1134              	.LASF31:
 1135 0000 57414B45 		.ascii	"WAKESTAT\000"
 1135      53544154 
 1135      00
 1136              	.LASF21:
 1137 0009 44523452 		.ascii	"DR4R\000"
 1137      00
 1138              	.LASF46:
 1139 000e 474E5520 		.ascii	"GNU C 4.8.3 20140820 (release) -mcpu=cortex-m4 -mno"
 1139      4320342E 
 1139      382E3320 
 1139      32303134 
 1139      30383230 
 1140 0041 2D746875 		.ascii	"-thumb-interwork -mthumb -ggdb -O2 -fomit-frame-poi"
 1140      6D622D69 
 1140      6E746572 
 1140      776F726B 
 1140      202D6D74 
 1141 0074 6E746572 		.ascii	"nter -falign-functions=16 -ffunction-sections -fdat"
 1141      202D6661 
 1141      6C69676E 
 1141      2D66756E 
 1141      6374696F 
 1142 00a7 612D7365 		.ascii	"a-sections -fno-common\000"
 1142      6374696F 
 1142      6E73202D 
 1142      666E6F2D 
 1142      636F6D6D 
 1143              	.LASF38:
 1144 00be 706F7274 		.ascii	"portid\000"
 1144      696400
 1145              	.LASF52:
 1146 00c5 5F70616C 		.ascii	"_pal_lld_setgroupmode\000"
 1146      5F6C6C64 
 1146      5F736574 
 1146      67726F75 
 1146      706D6F64 
 1147              	.LASF26:
 1148 00db 41444343 		.ascii	"ADCCTL\000"
 1148      544C00
 1149              	.LASF22:
 1150 00e2 44523852 		.ascii	"DR8R\000"
 1150      00
 1151              	.LASF3:
 1152 00e7 73686F72 		.ascii	"short int\000"
 1152      7420696E 
 1152      7400
 1153              	.LASF18:
 1154 00f1 41465345 		.ascii	"AFSEL\000"
 1154      4C00
 1155              	.LASF15:
 1156 00f7 73697A65 		.ascii	"sizetype\000"
 1156      74797065 
 1156      00
 1157              	.LASF28:
 1158 0100 44523132 		.ascii	"DR12R\000"
ARM GAS  /tmp/ccGpVCVR.s 			page 22


 1158      5200
 1159              	.LASF7:
 1160 0106 5F5F7569 		.ascii	"__uint32_t\000"
 1160      6E743332 
 1160      5F7400
 1161              	.LASF41:
 1162 0111 494F4275 		.ascii	"IOBus\000"
 1162      7300
 1163              	.LASF45:
 1164 0117 6D6F6465 		.ascii	"mode\000"
 1164      00
 1165              	.LASF47:
 1166 011c 2E2E2F2E 		.ascii	"../../os/hal/src/pal.c\000"
 1166      2E2F6F73 
 1166      2F68616C 
 1166      2F737263 
 1166      2F70616C 
 1167              	.LASF36:
 1168 0133 696F6D6F 		.ascii	"iomode_t\000"
 1168      64655F74 
 1168      00
 1169              	.LASF35:
 1170 013c 696F706F 		.ascii	"ioportmask_t\000"
 1170      72746D61 
 1170      736B5F74 
 1170      00
 1171              	.LASF9:
 1172 0149 6C6F6E67 		.ascii	"long long int\000"
 1172      206C6F6E 
 1172      6720696E 
 1172      7400
 1173              	.LASF42:
 1174 0157 62697473 		.ascii	"bits\000"
 1174      00
 1175              	.LASF49:
 1176 015c 4D41534B 		.ascii	"MASKED_ACCESS\000"
 1176      45445F41 
 1176      43434553 
 1176      5300
 1177              	.LASF5:
 1178 016a 6C6F6E67 		.ascii	"long int\000"
 1178      20696E74 
 1178      00
 1179              	.LASF25:
 1180 0173 5043544C 		.ascii	"PCTL\000"
 1180      00
 1181              	.LASF40:
 1182 0178 6F666673 		.ascii	"offset\000"
 1182      657400
 1183              	.LASF23:
 1184 017f 4C4F434B 		.ascii	"LOCK\000"
 1184      00
 1185              	.LASF17:
 1186 0184 44415441 		.ascii	"DATA\000"
 1186      00
 1187              	.LASF37:
 1188 0189 696F706F 		.ascii	"ioportid_t\000"
ARM GAS  /tmp/ccGpVCVR.s 			page 23


 1188      72746964 
 1188      5F7400
 1189              	.LASF20:
 1190 0194 44523252 		.ascii	"DR2R\000"
 1190      00
 1191              	.LASF2:
 1192 0199 756E7369 		.ascii	"unsigned char\000"
 1192      676E6564 
 1192      20636861 
 1192      7200
 1193              	.LASF48:
 1194 01a7 2F706F6F 		.ascii	"/pool/prototipi/git/tiva-chibios2_6/demos/RT-TM4C12"
 1194      6C2F7072 
 1194      6F746F74 
 1194      6970692F 
 1194      6769742F 
 1195 01da 39342D4C 		.ascii	"94-LAUNCHPAD\000"
 1195      41554E43 
 1195      48504144 
 1195      00
 1196              	.LASF1:
 1197 01e7 7369676E 		.ascii	"signed char\000"
 1197      65642063 
 1197      68617200 
 1198              	.LASF10:
 1199 01f3 6C6F6E67 		.ascii	"long long unsigned int\000"
 1199      206C6F6E 
 1199      6720756E 
 1199      7369676E 
 1199      65642069 
 1200              	.LASF13:
 1201 020a 75696E74 		.ascii	"uint_fast8_t\000"
 1201      5F666173 
 1201      74385F74 
 1201      00
 1202              	.LASF12:
 1203 0217 75696E74 		.ascii	"uint32_t\000"
 1203      33325F74 
 1203      00
 1204              	.LASF0:
 1205 0220 756E7369 		.ascii	"unsigned int\000"
 1205      676E6564 
 1205      20696E74 
 1205      00
 1206              	.LASF50:
 1207 022d 70616C52 		.ascii	"palReadBus\000"
 1207      65616442 
 1207      757300
 1208              	.LASF4:
 1209 0238 73686F72 		.ascii	"short unsigned int\000"
 1209      7420756E 
 1209      7369676E 
 1209      65642069 
 1209      6E7400
 1210              	.LASF34:
 1211 024b 63686172 		.ascii	"char\000"
 1211      00
ARM GAS  /tmp/ccGpVCVR.s 			page 24


 1212              	.LASF11:
 1213 0250 696E7433 		.ascii	"int32_t\000"
 1213      325F7400 
 1214              	.LASF27:
 1215 0258 444D4143 		.ascii	"DMACTL\000"
 1215      544C00
 1216              	.LASF14:
 1217 025f 5F426F6F 		.ascii	"_Bool\000"
 1217      6C00
 1218              	.LASF16:
 1219 0265 52455345 		.ascii	"RESERVED0\000"
 1219      52564544 
 1219      3000
 1220              	.LASF19:
 1221 026f 52455345 		.ascii	"RESERVED1\000"
 1221      52564544 
 1221      3100
 1222              	.LASF32:
 1223 0279 52455345 		.ascii	"RESERVED2\000"
 1223      52564544 
 1223      3200
 1224              	.LASF8:
 1225 0283 6C6F6E67 		.ascii	"long unsigned int\000"
 1225      20756E73 
 1225      69676E65 
 1225      6420696E 
 1225      7400
 1226              	.LASF44:
 1227 0295 70616C53 		.ascii	"palSetBusMode\000"
 1227      65744275 
 1227      734D6F64 
 1227      6500
 1228              	.LASF43:
 1229 02a3 70616C57 		.ascii	"palWriteBus\000"
 1229      72697465 
 1229      42757300 
 1230              	.LASF39:
 1231 02af 6D61736B 		.ascii	"mask\000"
 1231      00
 1232              	.LASF6:
 1233 02b4 5F5F696E 		.ascii	"__int32_t\000"
 1233      7433325F 
 1233      7400
 1234              	.LASF24:
 1235 02be 414D5345 		.ascii	"AMSEL\000"
 1235      4C00
 1236              	.LASF30:
 1237 02c4 57414B45 		.ascii	"WAKELVL\000"
 1237      4C564C00 
 1238              	.LASF51:
 1239 02cc 49544D5F 		.ascii	"ITM_RxBuffer\000"
 1239      52784275 
 1239      66666572 
 1239      00
 1240              	.LASF29:
 1241 02d9 57414B45 		.ascii	"WAKEPEN\000"
 1241      50454E00 
ARM GAS  /tmp/ccGpVCVR.s 			page 25


 1242              	.LASF33:
 1243 02e1 4750494F 		.ascii	"GPIO_TypeDef\000"
 1243      5F547970 
 1243      65446566 
 1243      00
 1244              		.ident	"GCC: (4.8.3-9+11) 4.8.3 20140820 (release)"
ARM GAS  /tmp/ccGpVCVR.s 			page 26


DEFINED SYMBOLS
                            *ABS*:0000000000000000 pal.c
     /tmp/ccGpVCVR.s:19     .text.palReadBus:0000000000000000 $t
     /tmp/ccGpVCVR.s:25     .text.palReadBus:0000000000000000 palReadBus
     /tmp/ccGpVCVR.s:47     .text.palWriteBus:0000000000000000 $t
     /tmp/ccGpVCVR.s:53     .text.palWriteBus:0000000000000000 palWriteBus
     /tmp/ccGpVCVR.s:77     .text.palSetBusMode:0000000000000000 $t
     /tmp/ccGpVCVR.s:83     .text.palSetBusMode:0000000000000000 palSetBusMode
                     .debug_frame:0000000000000010 $d

UNDEFINED SYMBOLS
_pal_lld_setgroupmode
