ARM GAS  /tmp/ccGpVCVR.s 			page 1


   1              		.syntax unified
   2              		.cpu cortex-m4
   3              		.fpu softvfp
   4              		.eabi_attribute 20, 1
   5              		.eabi_attribute 21, 1
   6              		.eabi_attribute 23, 3
   7              		.eabi_attribute 24, 1
   8              		.eabi_attribute 25, 1
   9              		.eabi_attribute 26, 1
  10              		.eabi_attribute 30, 2
  11              		.eabi_attribute 34, 1
  12              		.eabi_attribute 18, 4
  13              		.thumb
  14              		.file	"pal.c"
  15              		.text
  16              	.Ltext0:
  17              		.cfi_sections	.debug_frame
  18              		.section	.text.palReadBus,"ax",%progbits
  19              		.align	2
  20              		.p2align 4,,15
  21              		.global	palReadBus
  22              		.thumb
  23              		.thumb_func
  24              		.type	palReadBus, %function
  25              	palReadBus:
  26              	.LFB118:
  27              		.file 1 "../../os/hal/src/pal.c"
  28              		.loc 1 77 0
  29              		.cfi_startproc
  30              		@ args = 0, pretend = 0, frame = 0
  31              		@ frame_needed = 0, uses_anonymous_args = 0
  32              		@ link register save eliminated.
  33              	.LVL0:
  34              		.loc 1 82 0
  35 0000 4168     		ldr	r1, [r0, #4]
  36 0002 8268     		ldr	r2, [r0, #8]
  37 0004 0368     		ldr	r3, [r0]
  38 0006 01FA02F2 		lsl	r2, r1, r2
  39 000a 53F82200 		ldr	r0, [r3, r2, lsl #2]
  40              	.LVL1:
  41              		.loc 1 83 0
  42 000e 7047     		bx	lr
  43              		.cfi_endproc
  44              	.LFE118:
  45              		.size	palReadBus, .-palReadBus
  46              		.section	.text.palWriteBus,"ax",%progbits
  47              		.align	2
  48              		.p2align 4,,15
  49              		.global	palWriteBus
  50              		.thumb
  51              		.thumb_func
  52              		.type	palWriteBus, %function
  53              	palWriteBus:
  54              	.LFB119:
  55              		.loc 1 103 0
  56              		.cfi_startproc
  57              		@ args = 0, pretend = 0, frame = 0
ARM GAS  /tmp/ccGpVCVR.s 			page 2


  58              		@ frame_needed = 0, uses_anonymous_args = 0
  59              		@ link register save eliminated.
  60              	.LVL2:
  61 0000 10B4     		push	{r4}
  62              		.cfi_def_cfa_offset 4
  63              		.cfi_offset 4, -4
  64              		.loc 1 108 0
  65 0002 8268     		ldr	r2, [r0, #8]
  66 0004 4468     		ldr	r4, [r0, #4]
  67 0006 0368     		ldr	r3, [r0]
  68 0008 04FA02F2 		lsl	r2, r4, r2
  69 000c 43F82210 		str	r1, [r3, r2, lsl #2]
  70              		.loc 1 109 0
  71 0010 5DF8044B 		ldr	r4, [sp], #4
  72 0014 7047     		bx	lr
  73              		.cfi_endproc
  74              	.LFE119:
  75              		.size	palWriteBus, .-palWriteBus
  76 0016 00BFAFF3 		.section	.text.palSetBusMode,"ax",%progbits
  76      0080AFF3 
  76      0080
  77              		.align	2
  78              		.p2align 4,,15
  79              		.global	palSetBusMode
  80              		.thumb
  81              		.thumb_func
  82              		.type	palSetBusMode, %function
  83              	palSetBusMode:
  84              	.LFB120:
  85              		.loc 1 127 0
  86              		.cfi_startproc
  87              		@ args = 0, pretend = 0, frame = 0
  88              		@ frame_needed = 0, uses_anonymous_args = 0
  89              		@ link register save eliminated.
  90              	.LVL3:
  91 0000 10B4     		push	{r4}
  92              		.cfi_def_cfa_offset 4
  93              		.cfi_offset 4, -4
  94              		.loc 1 127 0
  95 0002 0A46     		mov	r2, r1
  96              		.loc 1 132 0
  97 0004 4468     		ldr	r4, [r0, #4]
  98 0006 8168     		ldr	r1, [r0, #8]
  99              	.LVL4:
 100 0008 0068     		ldr	r0, [r0]
 101              	.LVL5:
 102 000a 04FA01F1 		lsl	r1, r4, r1
 103              		.loc 1 133 0
 104 000e 5DF8044B 		ldr	r4, [sp], #4
 105              		.loc 1 132 0
 106 0012 FFF7FEBF 		b	_pal_lld_setgroupmode
 107              	.LVL6:
 108              		.cfi_endproc
 109              	.LFE120:
 110              		.size	palSetBusMode, .-palSetBusMode
 111 0016 00BFAFF3 		.text
 111      0080AFF3 
ARM GAS  /tmp/ccGpVCVR.s 			page 3


 111      0080
 112              	.Letext0:
 113              		.file 2 "/usr/include/newlib/machine/_default_types.h"
 114              		.file 3 "/usr/include/newlib/stdint.h"
 115              		.file 4 "../../os/ports/GCC/ARMCMx/TM4C129x/tm4c129x.h"
 116              		.file 5 "../../os/hal/platforms/TM4C129x/pal_lld.h"
 117              		.file 6 "../../os/hal/include/pal.h"
 118              		.file 7 "../../os/ports/common/ARMCMx/CMSIS/include/core_cm4.h"