ARM GAS  /tmp/ccs6HPrS.s 			page 1


   1              		.syntax unified
   2              		.cpu cortex-m4
   3              		.fpu softvfp
   4              		.eabi_attribute 20, 1
   5              		.eabi_attribute 21, 1
   6              		.eabi_attribute 23, 3
   7              		.eabi_attribute 24, 1
   8              		.eabi_attribute 25, 1
   9              		.eabi_attribute 26, 1
  10              		.eabi_attribute 30, 2
  11              		.eabi_attribute 34, 1
  12              		.eabi_attribute 18, 4
  13              		.thumb
  14              		.file	"pal_lld.c"
  15              		.text
  16              	.Ltext0:
  17              		.cfi_sections	.debug_frame
  18              		.section	.text.gpio_init,"ax",%progbits
  19              		.align	2
  20              		.p2align 4,,15
  21              		.global	gpio_init
  22              		.thumb
  23              		.thumb_func
  24              		.type	gpio_init, %function
  25              	gpio_init:
  26              	.LFB118:
  27              		.file 1 "../../os/hal/platforms/TM4C129x/pal_lld.c"
  28              		.loc 1 135 0
  29              		.cfi_startproc
  30              		@ args = 0, pretend = 0, frame = 0
  31              		@ frame_needed = 0, uses_anonymous_args = 0
  32              		@ link register save eliminated.
  33              	.LVL0:
  34 0000 2DE9F00F 		push	{r4, r5, r6, r7, r8, r9, r10, fp}
  35              		.cfi_def_cfa_offset 32
  36              		.cfi_offset 4, -32
  37              		.cfi_offset 5, -28
  38              		.cfi_offset 6, -24
  39              		.cfi_offset 7, -20
  40              		.cfi_offset 8, -16
  41              		.cfi_offset 9, -12
  42              		.cfi_offset 10, -8
  43              		.cfi_offset 11, -4
  44              		.loc 1 136 0
  45 0004 0B68     		ldr	r3, [r1]
  46 0006 C0F8FC33 		str	r3, [r0, #1020]
  47              		.loc 1 137 0
  48 000a D1F804B0 		ldr	fp, [r1, #4]
  49              		.loc 1 138 0
  50 000e D1F808A0 		ldr	r10, [r1, #8]
  51              		.loc 1 139 0
  52 0012 D1F80C90 		ldr	r9, [r1, #12]
  53              		.loc 1 140 0
  54 0016 D1F81080 		ldr	r8, [r1, #16]
  55              		.loc 1 142 0
  56 001a 8F69     		ldr	r7, [r1, #24]
  57              		.loc 1 143 0
ARM GAS  /tmp/ccs6HPrS.s 			page 2


  58 001c CE69     		ldr	r6, [r1, #28]
  59              		.loc 1 144 0
  60 001e 0D6A     		ldr	r5, [r1, #32]
  61              		.loc 1 145 0
  62 0020 4C6A     		ldr	r4, [r1, #36]
  63              		.loc 1 141 0
  64 0022 D1F814C0 		ldr	ip, [r1, #20]
  65              		.loc 1 146 0
  66 0026 8A6A     		ldr	r2, [r1, #40]
  67              		.loc 1 147 0
  68 0028 CB6A     		ldr	r3, [r1, #44]
  69              		.loc 1 148 0
  70 002a 096B     		ldr	r1, [r1, #48]
  71              	.LVL1:
  72              		.loc 1 137 0
  73 002c C0F800B4 		str	fp, [r0, #1024]
  74              		.loc 1 138 0
  75 0030 C0F820A4 		str	r10, [r0, #1056]
  76              		.loc 1 139 0
  77 0034 C0F80095 		str	r9, [r0, #1280]
  78              		.loc 1 140 0
  79 0038 C0F80485 		str	r8, [r0, #1284]
  80              		.loc 1 141 0
  81 003c C0F808C5 		str	ip, [r0, #1288]
  82              		.loc 1 142 0
  83 0040 C0F80C75 		str	r7, [r0, #1292]
  84              		.loc 1 143 0
  85 0044 C0F81065 		str	r6, [r0, #1296]
  86              		.loc 1 144 0
  87 0048 C0F81455 		str	r5, [r0, #1300]
  88              		.loc 1 145 0
  89 004c C0F81845 		str	r4, [r0, #1304]
  90              		.loc 1 146 0
  91 0050 C0F81C25 		str	r2, [r0, #1308]
  92              		.loc 1 149 0
  93 0054 BDE8F00F 		pop	{r4, r5, r6, r7, r8, r9, r10, fp}
  94              		.loc 1 147 0
  95 0058 C0F82835 		str	r3, [r0, #1320]
  96              		.loc 1 148 0
  97 005c C0F82C15 		str	r1, [r0, #1324]
  98              		.loc 1 149 0
  99 0060 7047     		bx	lr
 100              		.cfi_endproc
 101              	.LFE118:
 102              		.size	gpio_init, .-gpio_init
 103 0062 00BFAFF3 		.section	.text._pal_lld_init,"ax",%progbits
 103      0080AFF3 
 103      0080AFF3 
 103      0080
 104              		.align	2
 105              		.p2align 4,,15
 106              		.global	_pal_lld_init
 107              		.thumb
 108              		.thumb_func
 109              		.type	_pal_lld_init, %function
 110              	_pal_lld_init:
 111              	.LFB119:
ARM GAS  /tmp/ccs6HPrS.s 			page 3


 112              		.loc 1 169 0
 113              		.cfi_startproc
 114              		@ args = 0, pretend = 0, frame = 0
 115              		@ frame_needed = 0, uses_anonymous_args = 0
 116              		@ link register save eliminated.
 117              	.LVL2:
 118              		.loc 1 170 0
 119 0000 E74B     		ldr	r3, .L3
 120 0002 47F6FF72 		movw	r2, #32767
 121              		.loc 1 169 0
 122 0006 70B4     		push	{r4, r5, r6}
 123              		.cfi_def_cfa_offset 12
 124              		.cfi_offset 4, -12
 125              		.cfi_offset 5, -8
 126              		.cfi_offset 6, -4
 127              		.loc 1 170 0
 128 0008 C3F80826 		str	r2, [r3, #1544]
 129              	.LBB38:
 130              	.LBB39:
 131              		.file 2 "../../os/ports/common/ARMCMx/CMSIS/include/core_cmInstr.h"
 132              		.loc 2 288 0
 133              	@ 288 "../../os/ports/common/ARMCMx/CMSIS/include/core_cmInstr.h" 1
 134 000c 00BF     		nop
 135              	@ 0 "" 2
 136              		.thumb
 137              	.LBE39:
 138              	.LBE38:
 139              	.LBB40:
 140              	.LBB41:
 141              	@ 288 "../../os/ports/common/ARMCMx/CMSIS/include/core_cmInstr.h" 1
 142 000e 00BF     		nop
 143              	@ 0 "" 2
 144              		.thumb
 145              	.LBE41:
 146              	.LBE40:
 147              	.LBB42:
 148              	.LBB43:
 149              	@ 288 "../../os/ports/common/ARMCMx/CMSIS/include/core_cmInstr.h" 1
 150 0010 00BF     		nop
 151              	@ 0 "" 2
 152              	.LVL3:
 153              		.thumb
 154              	.LBE43:
 155              	.LBE42:
 156              	.LBB44:
 157              	.LBB45:
 158              		.loc 1 136 0
 159 0012 A3F52623 		sub	r3, r3, #679936
 160 0016 0268     		ldr	r2, [r0]
 161 0018 C3F8FC23 		str	r2, [r3, #1020]
 162              		.loc 1 137 0
 163 001c 4268     		ldr	r2, [r0, #4]
 164 001e C3F80024 		str	r2, [r3, #1024]
 165              		.loc 1 138 0
 166 0022 8268     		ldr	r2, [r0, #8]
 167 0024 C3F82024 		str	r2, [r3, #1056]
 168              		.loc 1 139 0
ARM GAS  /tmp/ccs6HPrS.s 			page 4


 169 0028 C268     		ldr	r2, [r0, #12]
 170 002a C3F80025 		str	r2, [r3, #1280]
 171              		.loc 1 140 0
 172 002e 0269     		ldr	r2, [r0, #16]
 173 0030 C3F80425 		str	r2, [r3, #1284]
 174              		.loc 1 141 0
 175 0034 4269     		ldr	r2, [r0, #20]
 176 0036 C3F80825 		str	r2, [r3, #1288]
 177              		.loc 1 142 0
 178 003a 8269     		ldr	r2, [r0, #24]
 179 003c C3F80C25 		str	r2, [r3, #1292]
 180              		.loc 1 143 0
 181 0040 C269     		ldr	r2, [r0, #28]
 182 0042 C3F81025 		str	r2, [r3, #1296]
 183              		.loc 1 144 0
 184 0046 026A     		ldr	r2, [r0, #32]
 185 0048 C3F81425 		str	r2, [r3, #1300]
 186              		.loc 1 145 0
 187 004c 426A     		ldr	r2, [r0, #36]
 188 004e C3F81825 		str	r2, [r3, #1304]
 189              		.loc 1 146 0
 190 0052 826A     		ldr	r2, [r0, #40]
 191 0054 C3F81C25 		str	r2, [r3, #1308]
 192              		.loc 1 147 0
 193 0058 C26A     		ldr	r2, [r0, #44]
 194 005a C3F82825 		str	r2, [r3, #1320]
 195              		.loc 1 148 0
 196 005e 026B     		ldr	r2, [r0, #48]
 197 0060 C3F82C25 		str	r2, [r3, #1324]
 198              	.LVL4:
 199              	.LBE45:
 200              	.LBE44:
 201              	.LBB46:
 202              	.LBB47:
 203              		.loc 1 136 0
 204 0064 CF4A     		ldr	r2, .L3+4
 205 0066 436B     		ldr	r3, [r0, #52]
 206 0068 C2F8FC33 		str	r3, [r2, #1020]
 207              		.loc 1 137 0
 208 006c 836B     		ldr	r3, [r0, #56]
 209 006e C2F80034 		str	r3, [r2, #1024]
 210              		.loc 1 138 0
 211 0072 C36B     		ldr	r3, [r0, #60]
 212 0074 C2F82034 		str	r3, [r2, #1056]
 213              		.loc 1 139 0
 214 0078 036C     		ldr	r3, [r0, #64]
 215 007a C2F80035 		str	r3, [r2, #1280]
 216              		.loc 1 140 0
 217 007e 436C     		ldr	r3, [r0, #68]
 218 0080 C2F80435 		str	r3, [r2, #1284]
 219              		.loc 1 141 0
 220 0084 836C     		ldr	r3, [r0, #72]
 221 0086 C2F80835 		str	r3, [r2, #1288]
 222              		.loc 1 142 0
 223 008a C36C     		ldr	r3, [r0, #76]
 224 008c C2F80C35 		str	r3, [r2, #1292]
 225              		.loc 1 143 0
ARM GAS  /tmp/ccs6HPrS.s 			page 5


 226 0090 036D     		ldr	r3, [r0, #80]
 227 0092 C2F81035 		str	r3, [r2, #1296]
 228              		.loc 1 144 0
 229 0096 436D     		ldr	r3, [r0, #84]
 230 0098 C2F81435 		str	r3, [r2, #1300]
 231              		.loc 1 145 0
 232 009c 836D     		ldr	r3, [r0, #88]
 233 009e C2F81835 		str	r3, [r2, #1304]
 234              		.loc 1 146 0
 235 00a2 C36D     		ldr	r3, [r0, #92]
 236 00a4 C2F81C35 		str	r3, [r2, #1308]
 237              		.loc 1 147 0
 238 00a8 036E     		ldr	r3, [r0, #96]
 239 00aa C2F82835 		str	r3, [r2, #1320]
 240              	.LBE47:
 241              	.LBE46:
 242              		.loc 1 180 0
 243 00ae BE4B     		ldr	r3, .L3+8
 244              	.LBB50:
 245              	.LBB48:
 246              		.loc 1 148 0
 247 00b0 416E     		ldr	r1, [r0, #100]
 248              	.LBE48:
 249              	.LBE50:
 250              		.loc 1 180 0
 251 00b2 BE4D     		ldr	r5, .L3+12
 252              	.LBB51:
 253              	.LBB49:
 254              		.loc 1 148 0
 255 00b4 C2F82C15 		str	r1, [r2, #1324]
 256              	.LBE49:
 257              	.LBE51:
 258              		.loc 1 181 0
 259 00b8 0124     		movs	r4, #1
 260              		.loc 1 180 0
 261 00ba C3F82055 		str	r5, [r3, #1312]
 262              		.loc 1 181 0
 263 00be C3F82445 		str	r4, [r3, #1316]
 264              	.LVL5:
 265              	.LBB52:
 266              	.LBB53:
 267              		.loc 1 136 0
 268 00c2 826E     		ldr	r2, [r0, #104]
 269 00c4 C3F8FC23 		str	r2, [r3, #1020]
 270              		.loc 1 137 0
 271 00c8 C26E     		ldr	r2, [r0, #108]
 272 00ca C3F80024 		str	r2, [r3, #1024]
 273              		.loc 1 138 0
 274 00ce 026F     		ldr	r2, [r0, #112]
 275 00d0 C3F82024 		str	r2, [r3, #1056]
 276              		.loc 1 139 0
 277 00d4 426F     		ldr	r2, [r0, #116]
 278 00d6 C3F80025 		str	r2, [r3, #1280]
 279              		.loc 1 140 0
 280 00da 826F     		ldr	r2, [r0, #120]
 281 00dc C3F80425 		str	r2, [r3, #1284]
 282              		.loc 1 141 0
ARM GAS  /tmp/ccs6HPrS.s 			page 6


 283 00e0 C26F     		ldr	r2, [r0, #124]
 284 00e2 C3F80825 		str	r2, [r3, #1288]
 285              		.loc 1 142 0
 286 00e6 D0F88020 		ldr	r2, [r0, #128]
 287 00ea C3F80C25 		str	r2, [r3, #1292]
 288              		.loc 1 143 0
 289 00ee D0F88420 		ldr	r2, [r0, #132]
 290 00f2 C3F81025 		str	r2, [r3, #1296]
 291              		.loc 1 144 0
 292 00f6 D0F88820 		ldr	r2, [r0, #136]
 293 00fa C3F81425 		str	r2, [r3, #1300]
 294              		.loc 1 145 0
 295 00fe D0F88C20 		ldr	r2, [r0, #140]
 296 0102 C3F81825 		str	r2, [r3, #1304]
 297              		.loc 1 146 0
 298 0106 D0F89020 		ldr	r2, [r0, #144]
 299 010a C3F81C25 		str	r2, [r3, #1308]
 300              		.loc 1 147 0
 301 010e D0F89420 		ldr	r2, [r0, #148]
 302 0112 C3F82825 		str	r2, [r3, #1320]
 303              		.loc 1 148 0
 304 0116 D0F89820 		ldr	r2, [r0, #152]
 305 011a C3F82C25 		str	r2, [r3, #1324]
 306              	.LBE53:
 307              	.LBE52:
 308              		.loc 1 183 0
 309 011e 0021     		movs	r1, #0
 310 0120 C3F82015 		str	r1, [r3, #1312]
 311              	.LVL6:
 312              	.LBB54:
 313              	.LBB55:
 314              		.loc 1 136 0
 315 0124 03F58053 		add	r3, r3, #4096
 316 0128 D0F89C20 		ldr	r2, [r0, #156]
 317 012c C3F8FC23 		str	r2, [r3, #1020]
 318              		.loc 1 137 0
 319 0130 D0F8A020 		ldr	r2, [r0, #160]
 320 0134 C3F80024 		str	r2, [r3, #1024]
 321              		.loc 1 138 0
 322 0138 D0F8A420 		ldr	r2, [r0, #164]
 323 013c C3F82024 		str	r2, [r3, #1056]
 324              		.loc 1 139 0
 325 0140 D0F8A820 		ldr	r2, [r0, #168]
 326 0144 C3F80025 		str	r2, [r3, #1280]
 327              		.loc 1 140 0
 328 0148 D0F8AC20 		ldr	r2, [r0, #172]
 329 014c C3F80425 		str	r2, [r3, #1284]
 330              		.loc 1 141 0
 331 0150 D0F8B020 		ldr	r2, [r0, #176]
 332 0154 C3F80825 		str	r2, [r3, #1288]
 333              		.loc 1 142 0
 334 0158 D0F8B420 		ldr	r2, [r0, #180]
 335 015c C3F80C25 		str	r2, [r3, #1292]
 336              		.loc 1 143 0
 337 0160 D0F8B820 		ldr	r2, [r0, #184]
 338 0164 C3F81025 		str	r2, [r3, #1296]
 339              		.loc 1 144 0
ARM GAS  /tmp/ccs6HPrS.s 			page 7


 340 0168 D0F8BC20 		ldr	r2, [r0, #188]
 341 016c C3F81425 		str	r2, [r3, #1300]
 342              		.loc 1 145 0
 343 0170 D0F8C020 		ldr	r2, [r0, #192]
 344 0174 C3F81825 		str	r2, [r3, #1304]
 345              		.loc 1 146 0
 346 0178 D0F8C420 		ldr	r2, [r0, #196]
 347 017c C3F81C25 		str	r2, [r3, #1308]
 348              		.loc 1 147 0
 349 0180 D0F8C820 		ldr	r2, [r0, #200]
 350 0184 C3F82825 		str	r2, [r3, #1320]
 351              		.loc 1 148 0
 352 0188 D0F8CC20 		ldr	r2, [r0, #204]
 353 018c C3F82C25 		str	r2, [r3, #1324]
 354              	.LVL7:
 355              	.LBE55:
 356              	.LBE54:
 357              	.LBB56:
 358              	.LBB57:
 359              		.loc 1 136 0
 360 0190 874A     		ldr	r2, .L3+16
 361 0192 D0F8D030 		ldr	r3, [r0, #208]
 362 0196 C2F8FC33 		str	r3, [r2, #1020]
 363              		.loc 1 137 0
 364 019a D0F8D430 		ldr	r3, [r0, #212]
 365 019e C2F80034 		str	r3, [r2, #1024]
 366              		.loc 1 138 0
 367 01a2 D0F8D830 		ldr	r3, [r0, #216]
 368 01a6 C2F82034 		str	r3, [r2, #1056]
 369              		.loc 1 139 0
 370 01aa D0F8DC30 		ldr	r3, [r0, #220]
 371 01ae C2F80035 		str	r3, [r2, #1280]
 372              		.loc 1 140 0
 373 01b2 D0F8E030 		ldr	r3, [r0, #224]
 374 01b6 C2F80435 		str	r3, [r2, #1284]
 375              		.loc 1 141 0
 376 01ba D0F8E430 		ldr	r3, [r0, #228]
 377 01be C2F80835 		str	r3, [r2, #1288]
 378              		.loc 1 142 0
 379 01c2 D0F8E830 		ldr	r3, [r0, #232]
 380 01c6 C2F80C35 		str	r3, [r2, #1292]
 381              		.loc 1 143 0
 382 01ca D0F8EC30 		ldr	r3, [r0, #236]
 383 01ce C2F81035 		str	r3, [r2, #1296]
 384              		.loc 1 144 0
 385 01d2 D0F8F030 		ldr	r3, [r0, #240]
 386 01d6 C2F81435 		str	r3, [r2, #1300]
 387              		.loc 1 145 0
 388 01da D0F8F430 		ldr	r3, [r0, #244]
 389 01de C2F81835 		str	r3, [r2, #1304]
 390              		.loc 1 146 0
 391 01e2 D0F8F830 		ldr	r3, [r0, #248]
 392 01e6 C2F81C35 		str	r3, [r2, #1308]
 393              		.loc 1 147 0
 394 01ea D0F8FC30 		ldr	r3, [r0, #252]
 395 01ee C2F82835 		str	r3, [r2, #1320]
 396              	.LBE57:
ARM GAS  /tmp/ccs6HPrS.s 			page 8


 397              	.LBE56:
 398              		.loc 1 189 0
 399 01f2 704B     		ldr	r3, .L3+20
 400              	.LBB59:
 401              	.LBB58:
 402              		.loc 1 148 0
 403 01f4 D0F80061 		ldr	r6, [r0, #256]
 404 01f8 C2F82C65 		str	r6, [r2, #1324]
 405              	.LBE58:
 406              	.LBE59:
 407              		.loc 1 189 0
 408 01fc C3F82055 		str	r5, [r3, #1312]
 409              		.loc 1 190 0
 410 0200 C3F82445 		str	r4, [r3, #1316]
 411              	.LVL8:
 412              	.LBB60:
 413              	.LBB61:
 414              		.loc 1 136 0
 415 0204 D0F80421 		ldr	r2, [r0, #260]
 416 0208 C3F8FC23 		str	r2, [r3, #1020]
 417              		.loc 1 137 0
 418 020c D0F80821 		ldr	r2, [r0, #264]
 419 0210 C3F80024 		str	r2, [r3, #1024]
 420              		.loc 1 138 0
 421 0214 D0F80C21 		ldr	r2, [r0, #268]
 422 0218 C3F82024 		str	r2, [r3, #1056]
 423              		.loc 1 139 0
 424 021c D0F81021 		ldr	r2, [r0, #272]
 425 0220 C3F80025 		str	r2, [r3, #1280]
 426              		.loc 1 140 0
 427 0224 D0F81421 		ldr	r2, [r0, #276]
 428 0228 C3F80425 		str	r2, [r3, #1284]
 429              		.loc 1 141 0
 430 022c D0F81821 		ldr	r2, [r0, #280]
 431 0230 C3F80825 		str	r2, [r3, #1288]
 432              		.loc 1 142 0
 433 0234 D0F81C21 		ldr	r2, [r0, #284]
 434 0238 C3F80C25 		str	r2, [r3, #1292]
 435              		.loc 1 143 0
 436 023c D0F82021 		ldr	r2, [r0, #288]
 437 0240 C3F81025 		str	r2, [r3, #1296]
 438              		.loc 1 144 0
 439 0244 D0F82421 		ldr	r2, [r0, #292]
 440 0248 C3F81425 		str	r2, [r3, #1300]
 441              		.loc 1 145 0
 442 024c D0F82821 		ldr	r2, [r0, #296]
 443 0250 C3F81825 		str	r2, [r3, #1304]
 444              		.loc 1 146 0
 445 0254 D0F82C21 		ldr	r2, [r0, #300]
 446 0258 C3F81C25 		str	r2, [r3, #1308]
 447              		.loc 1 147 0
 448 025c D0F83021 		ldr	r2, [r0, #304]
 449 0260 C3F82825 		str	r2, [r3, #1320]
 450              		.loc 1 148 0
 451 0264 D0F83421 		ldr	r2, [r0, #308]
 452 0268 C3F82C25 		str	r2, [r3, #1324]
 453              	.LBE61:
ARM GAS  /tmp/ccs6HPrS.s 			page 9


 454              	.LBE60:
 455              	.LBB62:
 456              	.LBB63:
 457              		.loc 1 136 0
 458 026c 524A     		ldr	r2, .L3+24
 459              	.LBE63:
 460              	.LBE62:
 461              		.loc 1 192 0
 462 026e C3F82015 		str	r1, [r3, #1312]
 463              	.LVL9:
 464              	.LBB65:
 465              	.LBB64:
 466              		.loc 1 136 0
 467 0272 D0F83831 		ldr	r3, [r0, #312]
 468 0276 C2F8FC33 		str	r3, [r2, #1020]
 469              		.loc 1 137 0
 470 027a D0F83C31 		ldr	r3, [r0, #316]
 471 027e C2F80034 		str	r3, [r2, #1024]
 472              		.loc 1 138 0
 473 0282 D0F84031 		ldr	r3, [r0, #320]
 474 0286 C2F82034 		str	r3, [r2, #1056]
 475              		.loc 1 139 0
 476 028a D0F84431 		ldr	r3, [r0, #324]
 477 028e C2F80035 		str	r3, [r2, #1280]
 478              		.loc 1 140 0
 479 0292 D0F84831 		ldr	r3, [r0, #328]
 480 0296 C2F80435 		str	r3, [r2, #1284]
 481              		.loc 1 141 0
 482 029a D0F84C31 		ldr	r3, [r0, #332]
 483 029e C2F80835 		str	r3, [r2, #1288]
 484              		.loc 1 142 0
 485 02a2 D0F85031 		ldr	r3, [r0, #336]
 486 02a6 C2F80C35 		str	r3, [r2, #1292]
 487              		.loc 1 143 0
 488 02aa D0F85431 		ldr	r3, [r0, #340]
 489 02ae C2F81035 		str	r3, [r2, #1296]
 490              		.loc 1 144 0
 491 02b2 D0F85831 		ldr	r3, [r0, #344]
 492 02b6 C2F81435 		str	r3, [r2, #1300]
 493              		.loc 1 145 0
 494 02ba D0F85C31 		ldr	r3, [r0, #348]
 495 02be C2F81835 		str	r3, [r2, #1304]
 496              		.loc 1 146 0
 497 02c2 D0F86031 		ldr	r3, [r0, #352]
 498 02c6 C2F81C35 		str	r3, [r2, #1308]
 499              		.loc 1 147 0
 500 02ca D0F86431 		ldr	r3, [r0, #356]
 501 02ce C2F82835 		str	r3, [r2, #1320]
 502              		.loc 1 148 0
 503 02d2 D0F86831 		ldr	r3, [r0, #360]
 504 02d6 C2F82C35 		str	r3, [r2, #1324]
 505              	.LVL10:
 506              	.LBE64:
 507              	.LBE65:
 508              	.LBB66:
 509              	.LBB67:
 510              		.loc 1 136 0
ARM GAS  /tmp/ccs6HPrS.s 			page 10


 511 02da 384B     		ldr	r3, .L3+28
 512 02dc D0F86C21 		ldr	r2, [r0, #364]
 513 02e0 C3F8FC23 		str	r2, [r3, #1020]
 514              		.loc 1 137 0
 515 02e4 D0F87021 		ldr	r2, [r0, #368]
 516 02e8 C3F80024 		str	r2, [r3, #1024]
 517              		.loc 1 138 0
 518 02ec D0F87421 		ldr	r2, [r0, #372]
 519 02f0 C3F82024 		str	r2, [r3, #1056]
 520              		.loc 1 139 0
 521 02f4 D0F87821 		ldr	r2, [r0, #376]
 522 02f8 C3F80025 		str	r2, [r3, #1280]
 523              		.loc 1 140 0
 524 02fc D0F87C21 		ldr	r2, [r0, #380]
 525 0300 C3F80425 		str	r2, [r3, #1284]
 526              		.loc 1 141 0
 527 0304 D0F88021 		ldr	r2, [r0, #384]
 528 0308 C3F80825 		str	r2, [r3, #1288]
 529              		.loc 1 142 0
 530 030c D0F88421 		ldr	r2, [r0, #388]
 531 0310 C3F80C25 		str	r2, [r3, #1292]
 532              		.loc 1 143 0
 533 0314 D0F88821 		ldr	r2, [r0, #392]
 534 0318 C3F81025 		str	r2, [r3, #1296]
 535              		.loc 1 144 0
 536 031c D0F88C21 		ldr	r2, [r0, #396]
 537 0320 C3F81425 		str	r2, [r3, #1300]
 538              		.loc 1 145 0
 539 0324 D0F89021 		ldr	r2, [r0, #400]
 540 0328 C3F81825 		str	r2, [r3, #1304]
 541              		.loc 1 146 0
 542 032c D0F89421 		ldr	r2, [r0, #404]
 543 0330 C3F81C25 		str	r2, [r3, #1308]
 544              		.loc 1 147 0
 545 0334 D0F89821 		ldr	r2, [r0, #408]
 546 0338 C3F82825 		str	r2, [r3, #1320]
 547              		.loc 1 148 0
 548 033c D0F89C21 		ldr	r2, [r0, #412]
 549 0340 C3F82C25 		str	r2, [r3, #1324]
 550              	.LVL11:
 551              	.LBE67:
 552              	.LBE66:
 553              	.LBB68:
 554              	.LBB69:
 555              		.loc 1 136 0
 556 0344 1E4A     		ldr	r2, .L3+32
 557 0346 D0F8A031 		ldr	r3, [r0, #416]
 558 034a C2F8FC33 		str	r3, [r2, #1020]
 559              		.loc 1 137 0
 560 034e D0F8A431 		ldr	r3, [r0, #420]
 561 0352 C2F80034 		str	r3, [r2, #1024]
 562              		.loc 1 138 0
 563 0356 D0F8A831 		ldr	r3, [r0, #424]
 564 035a C2F82034 		str	r3, [r2, #1056]
 565              		.loc 1 139 0
 566 035e D0F8AC31 		ldr	r3, [r0, #428]
 567 0362 C2F80035 		str	r3, [r2, #1280]
ARM GAS  /tmp/ccs6HPrS.s 			page 11


 568              		.loc 1 140 0
 569 0366 D0F8B031 		ldr	r3, [r0, #432]
 570 036a C2F80435 		str	r3, [r2, #1284]
 571              		.loc 1 141 0
 572 036e D0F8B431 		ldr	r3, [r0, #436]
 573 0372 C2F80835 		str	r3, [r2, #1288]
 574              		.loc 1 142 0
 575 0376 D0F8B831 		ldr	r3, [r0, #440]
 576 037a C2F80C35 		str	r3, [r2, #1292]
 577              		.loc 1 143 0
 578 037e D0F8BC31 		ldr	r3, [r0, #444]
 579 0382 C2F81035 		str	r3, [r2, #1296]
 580              		.loc 1 144 0
 581 0386 D0F8C031 		ldr	r3, [r0, #448]
 582 038a C2F81435 		str	r3, [r2, #1300]
 583              		.loc 1 145 0
 584 038e D0F8C431 		ldr	r3, [r0, #452]
 585 0392 C2F81835 		str	r3, [r2, #1304]
 586              		.loc 1 146 0
 587 0396 D0F8C831 		ldr	r3, [r0, #456]
 588 039a C2F81C35 		str	r3, [r2, #1308]
 589 039e 11E0     		b	.L4
 590              	.L5:
 591              		.align	2
 592              	.L3:
 593 03a0 00E00F40 		.word	1074782208
 594 03a4 00900540 		.word	1074106368
 595 03a8 00A00540 		.word	1074110464
 596 03ac 4B434F4C 		.word	1280262987
 597 03b0 00C00540 		.word	1074118656
 598 03b4 00D00540 		.word	1074122752
 599 03b8 00E00540 		.word	1074126848
 600 03bc 00F00540 		.word	1074130944
 601 03c0 00000640 		.word	1074135040
 602              	.L4:
 603              		.loc 1 147 0
 604 03c4 D0F8CC31 		ldr	r3, [r0, #460]
 605 03c8 C2F82835 		str	r3, [r2, #1320]
 606              		.loc 1 148 0
 607 03cc D0F8D011 		ldr	r1, [r0, #464]
 608              	.LBE69:
 609              	.LBE68:
 610              	.LBB71:
 611              	.LBB72:
 612              		.loc 1 136 0
 613 03d0 A34B     		ldr	r3, .L6
 614              	.LBE72:
 615              	.LBE71:
 616              	.LBB74:
 617              	.LBB70:
 618              		.loc 1 148 0
 619 03d2 C2F82C15 		str	r1, [r2, #1324]
 620              	.LVL12:
 621              	.LBE70:
 622              	.LBE74:
 623              	.LBB75:
 624              	.LBB73:
ARM GAS  /tmp/ccs6HPrS.s 			page 12


 625              		.loc 1 136 0
 626 03d6 D0F8D421 		ldr	r2, [r0, #468]
 627 03da C3F8FC23 		str	r2, [r3, #1020]
 628              		.loc 1 137 0
 629 03de D0F8D821 		ldr	r2, [r0, #472]
 630 03e2 C3F80024 		str	r2, [r3, #1024]
 631              		.loc 1 138 0
 632 03e6 D0F8DC21 		ldr	r2, [r0, #476]
 633 03ea C3F82024 		str	r2, [r3, #1056]
 634              		.loc 1 139 0
 635 03ee D0F8E021 		ldr	r2, [r0, #480]
 636 03f2 C3F80025 		str	r2, [r3, #1280]
 637              		.loc 1 140 0
 638 03f6 D0F8E421 		ldr	r2, [r0, #484]
 639 03fa C3F80425 		str	r2, [r3, #1284]
 640              		.loc 1 141 0
 641 03fe D0F8E821 		ldr	r2, [r0, #488]
 642 0402 C3F80825 		str	r2, [r3, #1288]
 643              		.loc 1 142 0
 644 0406 D0F8EC21 		ldr	r2, [r0, #492]
 645 040a C3F80C25 		str	r2, [r3, #1292]
 646              		.loc 1 143 0
 647 040e D0F8F021 		ldr	r2, [r0, #496]
 648 0412 C3F81025 		str	r2, [r3, #1296]
 649              		.loc 1 144 0
 650 0416 D0F8F421 		ldr	r2, [r0, #500]
 651 041a C3F81425 		str	r2, [r3, #1300]
 652              		.loc 1 145 0
 653 041e D0F8F821 		ldr	r2, [r0, #504]
 654 0422 C3F81825 		str	r2, [r3, #1304]
 655              		.loc 1 146 0
 656 0426 D0F8FC21 		ldr	r2, [r0, #508]
 657 042a C3F81C25 		str	r2, [r3, #1308]
 658              		.loc 1 147 0
 659 042e D0F80022 		ldr	r2, [r0, #512]
 660 0432 C3F82825 		str	r2, [r3, #1320]
 661              		.loc 1 148 0
 662 0436 D0F80422 		ldr	r2, [r0, #516]
 663 043a C3F82C25 		str	r2, [r3, #1324]
 664              	.LVL13:
 665              	.LBE73:
 666              	.LBE75:
 667              	.LBB76:
 668              	.LBB77:
 669              		.loc 1 136 0
 670 043e 03F58053 		add	r3, r3, #4096
 671 0442 D0F80822 		ldr	r2, [r0, #520]
 672 0446 C3F8FC23 		str	r2, [r3, #1020]
 673              		.loc 1 137 0
 674 044a D0F80C22 		ldr	r2, [r0, #524]
 675 044e C3F80024 		str	r2, [r3, #1024]
 676              		.loc 1 138 0
 677 0452 D0F81022 		ldr	r2, [r0, #528]
 678 0456 C3F82024 		str	r2, [r3, #1056]
 679              		.loc 1 139 0
 680 045a D0F81422 		ldr	r2, [r0, #532]
 681 045e C3F80025 		str	r2, [r3, #1280]
ARM GAS  /tmp/ccs6HPrS.s 			page 13


 682              		.loc 1 140 0
 683 0462 D0F81822 		ldr	r2, [r0, #536]
 684 0466 C3F80425 		str	r2, [r3, #1284]
 685              		.loc 1 141 0
 686 046a D0F81C22 		ldr	r2, [r0, #540]
 687 046e C3F80825 		str	r2, [r3, #1288]
 688              		.loc 1 142 0
 689 0472 D0F82022 		ldr	r2, [r0, #544]
 690 0476 C3F80C25 		str	r2, [r3, #1292]
 691              		.loc 1 143 0
 692 047a D0F82422 		ldr	r2, [r0, #548]
 693 047e C3F81025 		str	r2, [r3, #1296]
 694              		.loc 1 144 0
 695 0482 D0F82822 		ldr	r2, [r0, #552]
 696 0486 C3F81425 		str	r2, [r3, #1300]
 697              		.loc 1 145 0
 698 048a D0F82C22 		ldr	r2, [r0, #556]
 699 048e C3F81825 		str	r2, [r3, #1304]
 700              		.loc 1 146 0
 701 0492 D0F83022 		ldr	r2, [r0, #560]
 702 0496 C3F81C25 		str	r2, [r3, #1308]
 703              		.loc 1 147 0
 704 049a D0F83422 		ldr	r2, [r0, #564]
 705 049e C3F82825 		str	r2, [r3, #1320]
 706              		.loc 1 148 0
 707 04a2 D0F83822 		ldr	r2, [r0, #568]
 708 04a6 C3F82C25 		str	r2, [r3, #1324]
 709              	.LVL14:
 710              	.LBE77:
 711              	.LBE76:
 712              	.LBB78:
 713              	.LBB79:
 714              		.loc 1 136 0
 715 04aa 03F58053 		add	r3, r3, #4096
 716 04ae D0F83C22 		ldr	r2, [r0, #572]
 717 04b2 C3F8FC23 		str	r2, [r3, #1020]
 718              		.loc 1 137 0
 719 04b6 D0F84022 		ldr	r2, [r0, #576]
 720 04ba C3F80024 		str	r2, [r3, #1024]
 721              		.loc 1 138 0
 722 04be D0F84422 		ldr	r2, [r0, #580]
 723 04c2 C3F82024 		str	r2, [r3, #1056]
 724              		.loc 1 139 0
 725 04c6 D0F84822 		ldr	r2, [r0, #584]
 726 04ca C3F80025 		str	r2, [r3, #1280]
 727              		.loc 1 140 0
 728 04ce D0F84C22 		ldr	r2, [r0, #588]
 729 04d2 C3F80425 		str	r2, [r3, #1284]
 730              		.loc 1 141 0
 731 04d6 D0F85022 		ldr	r2, [r0, #592]
 732 04da C3F80825 		str	r2, [r3, #1288]
 733              		.loc 1 142 0
 734 04de D0F85422 		ldr	r2, [r0, #596]
 735 04e2 C3F80C25 		str	r2, [r3, #1292]
 736              		.loc 1 143 0
 737 04e6 D0F85822 		ldr	r2, [r0, #600]
 738 04ea C3F81025 		str	r2, [r3, #1296]
ARM GAS  /tmp/ccs6HPrS.s 			page 14


 739              		.loc 1 144 0
 740 04ee D0F85C22 		ldr	r2, [r0, #604]
 741 04f2 C3F81425 		str	r2, [r3, #1300]
 742              		.loc 1 145 0
 743 04f6 D0F86022 		ldr	r2, [r0, #608]
 744 04fa C3F81825 		str	r2, [r3, #1304]
 745              		.loc 1 146 0
 746 04fe D0F86422 		ldr	r2, [r0, #612]
 747 0502 C3F81C25 		str	r2, [r3, #1308]
 748              		.loc 1 147 0
 749 0506 D0F86822 		ldr	r2, [r0, #616]
 750 050a C3F82825 		str	r2, [r3, #1320]
 751              		.loc 1 148 0
 752 050e D0F86C22 		ldr	r2, [r0, #620]
 753 0512 C3F82C25 		str	r2, [r3, #1324]
 754              	.LVL15:
 755              	.LBE79:
 756              	.LBE78:
 757              	.LBB80:
 758              	.LBB81:
 759              		.loc 1 136 0
 760 0516 03F58053 		add	r3, r3, #4096
 761 051a D0F87022 		ldr	r2, [r0, #624]
 762 051e C3F8FC23 		str	r2, [r3, #1020]
 763              		.loc 1 137 0
 764 0522 D0F87422 		ldr	r2, [r0, #628]
 765 0526 C3F80024 		str	r2, [r3, #1024]
 766              		.loc 1 138 0
 767 052a D0F87822 		ldr	r2, [r0, #632]
 768 052e C3F82024 		str	r2, [r3, #1056]
 769              		.loc 1 139 0
 770 0532 D0F87C22 		ldr	r2, [r0, #636]
 771 0536 C3F80025 		str	r2, [r3, #1280]
 772              		.loc 1 140 0
 773 053a D0F88022 		ldr	r2, [r0, #640]
 774 053e C3F80425 		str	r2, [r3, #1284]
 775              		.loc 1 141 0
 776 0542 D0F88422 		ldr	r2, [r0, #644]
 777 0546 C3F80825 		str	r2, [r3, #1288]
 778              		.loc 1 142 0
 779 054a D0F88822 		ldr	r2, [r0, #648]
 780 054e C3F80C25 		str	r2, [r3, #1292]
 781              		.loc 1 143 0
 782 0552 D0F88C22 		ldr	r2, [r0, #652]
 783 0556 C3F81025 		str	r2, [r3, #1296]
 784              		.loc 1 144 0
 785 055a D0F89022 		ldr	r2, [r0, #656]
 786 055e C3F81425 		str	r2, [r3, #1300]
 787              		.loc 1 145 0
 788 0562 D0F89422 		ldr	r2, [r0, #660]
 789 0566 C3F81825 		str	r2, [r3, #1304]
 790              		.loc 1 146 0
 791 056a D0F89822 		ldr	r2, [r0, #664]
 792 056e C3F81C25 		str	r2, [r3, #1308]
 793              		.loc 1 147 0
 794 0572 D0F89C22 		ldr	r2, [r0, #668]
 795 0576 C3F82825 		str	r2, [r3, #1320]
ARM GAS  /tmp/ccs6HPrS.s 			page 15


 796              		.loc 1 148 0
 797 057a D0F8A022 		ldr	r2, [r0, #672]
 798 057e C3F82C25 		str	r2, [r3, #1324]
 799              	.LVL16:
 800              	.LBE81:
 801              	.LBE80:
 802              	.LBB82:
 803              	.LBB83:
 804              		.loc 1 136 0
 805 0582 03F58053 		add	r3, r3, #4096
 806 0586 D0F8A422 		ldr	r2, [r0, #676]
 807 058a C3F8FC23 		str	r2, [r3, #1020]
 808              		.loc 1 137 0
 809 058e D0F8A822 		ldr	r2, [r0, #680]
 810 0592 C3F80024 		str	r2, [r3, #1024]
 811              		.loc 1 138 0
 812 0596 D0F8AC22 		ldr	r2, [r0, #684]
 813 059a C3F82024 		str	r2, [r3, #1056]
 814              		.loc 1 139 0
 815 059e D0F8B022 		ldr	r2, [r0, #688]
 816 05a2 C3F80025 		str	r2, [r3, #1280]
 817              		.loc 1 140 0
 818 05a6 D0F8B422 		ldr	r2, [r0, #692]
 819 05aa C3F80425 		str	r2, [r3, #1284]
 820              		.loc 1 141 0
 821 05ae D0F8B822 		ldr	r2, [r0, #696]
 822 05b2 C3F80825 		str	r2, [r3, #1288]
 823              		.loc 1 142 0
 824 05b6 D0F8BC22 		ldr	r2, [r0, #700]
 825 05ba C3F80C25 		str	r2, [r3, #1292]
 826              		.loc 1 143 0
 827 05be D0F8C022 		ldr	r2, [r0, #704]
 828 05c2 C3F81025 		str	r2, [r3, #1296]
 829              		.loc 1 144 0
 830 05c6 D0F8C422 		ldr	r2, [r0, #708]
 831 05ca C3F81425 		str	r2, [r3, #1300]
 832              		.loc 1 145 0
 833 05ce D0F8C822 		ldr	r2, [r0, #712]
 834 05d2 C3F81825 		str	r2, [r3, #1304]
 835              		.loc 1 146 0
 836 05d6 D0F8CC22 		ldr	r2, [r0, #716]
 837 05da C3F81C25 		str	r2, [r3, #1308]
 838              		.loc 1 147 0
 839 05de D0F8D022 		ldr	r2, [r0, #720]
 840 05e2 C3F82825 		str	r2, [r3, #1320]
 841              		.loc 1 148 0
 842 05e6 D0F8D422 		ldr	r2, [r0, #724]
 843 05ea C3F82C25 		str	r2, [r3, #1324]
 844              	.LVL17:
 845              	.LBE83:
 846              	.LBE82:
 847              	.LBB84:
 848              	.LBB85:
 849              		.loc 1 136 0
 850 05ee 03F58053 		add	r3, r3, #4096
 851 05f2 D0F8D822 		ldr	r2, [r0, #728]
 852 05f6 C3F8FC23 		str	r2, [r3, #1020]
ARM GAS  /tmp/ccs6HPrS.s 			page 16


 853              		.loc 1 137 0
 854 05fa D0F8DC22 		ldr	r2, [r0, #732]
 855 05fe C3F80024 		str	r2, [r3, #1024]
 856              		.loc 1 138 0
 857 0602 D0F8E022 		ldr	r2, [r0, #736]
 858 0606 C3F82024 		str	r2, [r3, #1056]
 859              		.loc 1 139 0
 860 060a D0F8E422 		ldr	r2, [r0, #740]
 861 060e C3F80025 		str	r2, [r3, #1280]
 862              		.loc 1 140 0
 863 0612 D0F8E822 		ldr	r2, [r0, #744]
 864 0616 C3F80425 		str	r2, [r3, #1284]
 865              		.loc 1 141 0
 866 061a D0F8EC22 		ldr	r2, [r0, #748]
 867 061e C3F80825 		str	r2, [r3, #1288]
 868              		.loc 1 142 0
 869 0622 D0F8F022 		ldr	r2, [r0, #752]
 870 0626 C3F80C25 		str	r2, [r3, #1292]
 871              		.loc 1 143 0
 872 062a D0F8F422 		ldr	r2, [r0, #756]
 873 062e C3F81025 		str	r2, [r3, #1296]
 874              		.loc 1 144 0
 875 0632 D0F8F822 		ldr	r2, [r0, #760]
 876 0636 C3F81425 		str	r2, [r3, #1300]
 877              		.loc 1 145 0
 878 063a D0F8FC22 		ldr	r2, [r0, #764]
 879 063e C3F81825 		str	r2, [r3, #1304]
 880              		.loc 1 146 0
 881 0642 D0F80023 		ldr	r2, [r0, #768]
 882 0646 C3F81C25 		str	r2, [r3, #1308]
 883              		.loc 1 147 0
 884 064a D0F80423 		ldr	r2, [r0, #772]
 885 064e C3F82825 		str	r2, [r3, #1320]
 886              		.loc 1 148 0
 887 0652 D0F80823 		ldr	r2, [r0, #776]
 888 0656 C3F82C25 		str	r2, [r3, #1324]
 889              	.LBE85:
 890              	.LBE84:
 891              		.loc 1 241 0
 892 065a 70BC     		pop	{r4, r5, r6}
 893 065c 7047     		bx	lr
 894              	.L7:
 895 065e 00BF     		.align	2
 896              	.L6:
 897 0660 00100640 		.word	1074139136
 898              		.cfi_endproc
 899              	.LFE119:
 900              		.size	_pal_lld_init, .-_pal_lld_init
 901 0664 AFF30080 		.section	.text._pal_lld_setgroupmode,"ax",%progbits
 901      AFF30080 
 901      AFF30080 
 902              		.align	2
 903              		.p2align 4,,15
 904              		.global	_pal_lld_setgroupmode
 905              		.thumb
 906              		.thumb_func
 907              		.type	_pal_lld_setgroupmode, %function
ARM GAS  /tmp/ccs6HPrS.s 			page 17


 908              	_pal_lld_setgroupmode:
 909              	.LFB120:
 910              		.loc 1 257 0
 911              		.cfi_startproc
 912              		@ args = 0, pretend = 0, frame = 0
 913              		@ frame_needed = 0, uses_anonymous_args = 0
 914              		@ link register save eliminated.
 915              	.LVL18:
 916 0000 7047     		bx	lr
 917              		.cfi_endproc
 918              	.LFE120:
 919              		.size	_pal_lld_setgroupmode, .-_pal_lld_setgroupmode
 920 0002 00BFAFF3 		.text
 920      0080AFF3 
 920      0080AFF3 
 920      0080
 921              	.Letext0:
 922              		.file 3 "/usr/include/newlib/machine/_default_types.h"
 923              		.file 4 "/usr/include/newlib/stdint.h"
 924              		.file 5 "../../os/ports/GCC/ARMCMx/TM4C129x/tm4c129x.h"
 925              		.file 6 "../../os/hal/platforms/TM4C129x/pal_lld.h"
 926              		.file 7 "../../os/ports/common/ARMCMx/CMSIS/include/core_cm4.h"
 927              		.section	.debug_info,"",%progbits
 928              	.Ldebug_info0:
 929 0000 10180000 		.4byte	0x1810
 930 0004 0400     		.2byte	0x4
 931 0006 00000000 		.4byte	.Ldebug_abbrev0
 932 000a 04       		.byte	0x4
 933 000b 01       		.uleb128 0x1
 934 000c 9A090000 		.4byte	.LASF304
 935 0010 01       		.byte	0x1
 936 0011 6C0A0000 		.4byte	.LASF305
 937 0015 EA010000 		.4byte	.LASF306
 938 0019 80000000 		.4byte	.Ldebug_ranges0+0x80
 939 001d 00000000 		.4byte	0
 940 0021 00000000 		.4byte	.Ldebug_line0
 941 0025 02       		.uleb128 0x2
 942 0026 04       		.byte	0x4
 943 0027 05       		.byte	0x5
 944 0028 696E7400 		.ascii	"int\000"
 945 002c 03       		.uleb128 0x3
 946 002d 04       		.byte	0x4
 947 002e 07       		.byte	0x7
 948 002f 2B050000 		.4byte	.LASF0
 949 0033 03       		.uleb128 0x3
 950 0034 01       		.byte	0x1
 951 0035 06       		.byte	0x6
 952 0036 C6010000 		.4byte	.LASF1
 953 003a 03       		.uleb128 0x3
 954 003b 01       		.byte	0x1
 955 003c 08       		.byte	0x8
 956 003d 65020000 		.4byte	.LASF2
 957 0041 03       		.uleb128 0x3
 958 0042 02       		.byte	0x2
 959 0043 05       		.byte	0x5
 960 0044 95080000 		.4byte	.LASF3
 961 0048 03       		.uleb128 0x3
ARM GAS  /tmp/ccs6HPrS.s 			page 18


 962 0049 02       		.byte	0x2
 963 004a 07       		.byte	0x7
 964 004b A70A0000 		.4byte	.LASF4
 965 004f 04       		.uleb128 0x4
 966 0050 C00A0000 		.4byte	.LASF6
 967 0054 03       		.byte	0x3
 968 0055 3F       		.byte	0x3f
 969 0056 5A000000 		.4byte	0x5a
 970 005a 03       		.uleb128 0x3
 971 005b 04       		.byte	0x4
 972 005c 05       		.byte	0x5
 973 005d 4D010000 		.4byte	.LASF5
 974 0061 04       		.uleb128 0x4
 975 0062 9E040000 		.4byte	.LASF7
 976 0066 03       		.byte	0x3
 977 0067 41       		.byte	0x41
 978 0068 6C000000 		.4byte	0x6c
 979 006c 03       		.uleb128 0x3
 980 006d 04       		.byte	0x4
 981 006e 07       		.byte	0x7
 982 006f 26040000 		.4byte	.LASF8
 983 0073 03       		.uleb128 0x3
 984 0074 08       		.byte	0x8
 985 0075 05       		.byte	0x5
 986 0076 B8040000 		.4byte	.LASF9
 987 007a 03       		.uleb128 0x3
 988 007b 08       		.byte	0x8
 989 007c 07       		.byte	0x7
 990 007d 1B060000 		.4byte	.LASF10
 991 0081 04       		.uleb128 0x4
 992 0082 3D000000 		.4byte	.LASF11
 993 0086 04       		.byte	0x4
 994 0087 41       		.byte	0x41
 995 0088 4F000000 		.4byte	0x4f
 996 008c 04       		.uleb128 0x4
 997 008d 8B090000 		.4byte	.LASF12
 998 0091 04       		.byte	0x4
 999 0092 42       		.byte	0x42
 1000 0093 61000000 		.4byte	0x61
 1001 0097 03       		.uleb128 0x3
 1002 0098 01       		.byte	0x1
 1003 0099 02       		.byte	0x2
 1004 009a F6020000 		.4byte	.LASF13
 1005 009e 03       		.uleb128 0x3
 1006 009f 04       		.byte	0x4
 1007 00a0 07       		.byte	0x7
 1008 00a1 06000000 		.4byte	.LASF14
 1009 00a5 05       		.uleb128 0x5
 1010 00a6 8C000000 		.4byte	0x8c
 1011 00aa B5000000 		.4byte	0xb5
 1012 00ae 06       		.uleb128 0x6
 1013 00af 9E000000 		.4byte	0x9e
 1014 00b3 17       		.byte	0x17
 1015 00b4 00       		.byte	0
 1016 00b5 07       		.uleb128 0x7
 1017 00b6 8C000000 		.4byte	0x8c
 1018 00ba 08       		.uleb128 0x8
ARM GAS  /tmp/ccs6HPrS.s 			page 19


 1019 00bb B5000000 		.4byte	0xb5
 1020 00bf 05       		.uleb128 0x5
 1021 00c0 8C000000 		.4byte	0x8c
 1022 00c4 CF000000 		.4byte	0xcf
 1023 00c8 06       		.uleb128 0x6
 1024 00c9 9E000000 		.4byte	0x9e
 1025 00cd 01       		.byte	0x1
 1026 00ce 00       		.byte	0
 1027 00cf 05       		.uleb128 0x5
 1028 00d0 8C000000 		.4byte	0x8c
 1029 00d4 DF000000 		.4byte	0xdf
 1030 00d8 06       		.uleb128 0x6
 1031 00d9 9E000000 		.4byte	0x9e
 1032 00dd 03       		.byte	0x3
 1033 00de 00       		.byte	0
 1034 00df 05       		.uleb128 0x5
 1035 00e0 8C000000 		.4byte	0x8c
 1036 00e4 EF000000 		.4byte	0xef
 1037 00e8 06       		.uleb128 0x6
 1038 00e9 9E000000 		.4byte	0x9e
 1039 00ed 04       		.byte	0x4
 1040 00ee 00       		.byte	0
 1041 00ef 05       		.uleb128 0x5
 1042 00f0 8C000000 		.4byte	0x8c
 1043 00f4 FF000000 		.4byte	0xff
 1044 00f8 06       		.uleb128 0x6
 1045 00f9 9E000000 		.4byte	0x9e
 1046 00fd 00       		.byte	0
 1047 00fe 00       		.byte	0
 1048 00ff 05       		.uleb128 0x5
 1049 0100 8C000000 		.4byte	0x8c
 1050 0104 0F010000 		.4byte	0x10f
 1051 0108 06       		.uleb128 0x6
 1052 0109 9E000000 		.4byte	0x9e
 1053 010d 1C       		.byte	0x1c
 1054 010e 00       		.byte	0
 1055 010f 05       		.uleb128 0x5
 1056 0110 8C000000 		.4byte	0x8c
 1057 0114 1F010000 		.4byte	0x11f
 1058 0118 06       		.uleb128 0x6
 1059 0119 9E000000 		.4byte	0x9e
 1060 011d 05       		.byte	0x5
 1061 011e 00       		.byte	0
 1062 011f 05       		.uleb128 0x5
 1063 0120 8C000000 		.4byte	0x8c
 1064 0124 2F010000 		.4byte	0x12f
 1065 0128 06       		.uleb128 0x6
 1066 0129 9E000000 		.4byte	0x9e
 1067 012d 36       		.byte	0x36
 1068 012e 00       		.byte	0
 1069 012f 09       		.uleb128 0x9
 1070 0130 A00A     		.2byte	0xaa0
 1071 0132 05       		.byte	0x5
 1072 0133 9C       		.byte	0x9c
 1073 0134 E50D0000 		.4byte	0xde5
 1074 0138 0A       		.uleb128 0xa
 1075 0139 C6030000 		.4byte	.LASF15
ARM GAS  /tmp/ccs6HPrS.s 			page 20


 1076 013d 05       		.byte	0x5
 1077 013e 9E       		.byte	0x9e
 1078 013f BA000000 		.4byte	0xba
 1079 0143 00       		.byte	0
 1080 0144 0A       		.uleb128 0xa
 1081 0145 CB030000 		.4byte	.LASF16
 1082 0149 05       		.byte	0x5
 1083 014a 9F       		.byte	0x9f
 1084 014b BA000000 		.4byte	0xba
 1085 014f 04       		.byte	0x4
 1086 0150 0A       		.uleb128 0xa
 1087 0151 51020000 		.4byte	.LASF17
 1088 0155 05       		.byte	0x5
 1089 0156 A0       		.byte	0xa0
 1090 0157 F50D0000 		.4byte	0xdf5
 1091 015b 08       		.byte	0x8
 1092 015c 0A       		.uleb128 0xa
 1093 015d 3A030000 		.4byte	.LASF18
 1094 0161 05       		.byte	0x5
 1095 0162 A1       		.byte	0xa1
 1096 0163 B5000000 		.4byte	0xb5
 1097 0167 38       		.byte	0x38
 1098 0168 0A       		.uleb128 0xa
 1099 0169 5B020000 		.4byte	.LASF19
 1100 016d 05       		.byte	0x5
 1101 016e A2       		.byte	0xa2
 1102 016f FF0D0000 		.4byte	0xdff
 1103 0173 3C       		.byte	0x3c
 1104 0174 0B       		.uleb128 0xb
 1105 0175 52495300 		.ascii	"RIS\000"
 1106 0179 05       		.byte	0x5
 1107 017a A3       		.byte	0xa3
 1108 017b BA000000 		.4byte	0xba
 1109 017f 50       		.byte	0x50
 1110 0180 0B       		.uleb128 0xb
 1111 0181 494D4300 		.ascii	"IMC\000"
 1112 0185 05       		.byte	0x5
 1113 0186 A4       		.byte	0xa4
 1114 0187 B5000000 		.4byte	0xb5
 1115 018b 54       		.byte	0x54
 1116 018c 0A       		.uleb128 0xa
 1117 018d 49040000 		.4byte	.LASF20
 1118 0191 05       		.byte	0x5
 1119 0192 A5       		.byte	0xa5
 1120 0193 B5000000 		.4byte	0xb5
 1121 0197 58       		.byte	0x58
 1122 0198 0A       		.uleb128 0xa
 1123 0199 30010000 		.4byte	.LASF21
 1124 019d 05       		.byte	0x5
 1125 019e A6       		.byte	0xa6
 1126 019f B5000000 		.4byte	0xb5
 1127 01a3 5C       		.byte	0x5c
 1128 01a4 0A       		.uleb128 0xa
 1129 01a5 5C040000 		.4byte	.LASF22
 1130 01a9 05       		.byte	0x5
 1131 01aa A7       		.byte	0xa7
 1132 01ab B5000000 		.4byte	0xb5
ARM GAS  /tmp/ccs6HPrS.s 			page 21


 1133 01af 60       		.byte	0x60
 1134 01b0 0A       		.uleb128 0xa
 1135 01b1 1C040000 		.4byte	.LASF23
 1136 01b5 05       		.byte	0x5
 1137 01b6 A8       		.byte	0xa8
 1138 01b7 B5000000 		.4byte	0xb5
 1139 01bb 64       		.byte	0x64
 1140 01bc 0A       		.uleb128 0xa
 1141 01bd 02030000 		.4byte	.LASF24
 1142 01c1 05       		.byte	0x5
 1143 01c2 A9       		.byte	0xa9
 1144 01c3 090E0000 		.4byte	0xe09
 1145 01c7 68       		.byte	0x68
 1146 01c8 0A       		.uleb128 0xa
 1147 01c9 580A0000 		.4byte	.LASF25
 1148 01cd 05       		.byte	0x5
 1149 01ce AA       		.byte	0xaa
 1150 01cf B5000000 		.4byte	0xb5
 1151 01d3 7C       		.byte	0x7c
 1152 01d4 0A       		.uleb128 0xa
 1153 01d5 73020000 		.4byte	.LASF26
 1154 01d9 05       		.byte	0x5
 1155 01da AB       		.byte	0xab
 1156 01db 130E0000 		.4byte	0xe13
 1157 01df 80       		.byte	0x80
 1158 01e0 0A       		.uleb128 0xa
 1159 01e1 AF040000 		.4byte	.LASF27
 1160 01e5 05       		.byte	0x5
 1161 01e6 AC       		.byte	0xac
 1162 01e7 B5000000 		.4byte	0xb5
 1163 01eb B0       		.byte	0xb0
 1164 01ec 0A       		.uleb128 0xa
 1165 01ed 0C030000 		.4byte	.LASF28
 1166 01f1 05       		.byte	0x5
 1167 01f2 AD       		.byte	0xad
 1168 01f3 2D0E0000 		.4byte	0xe2d
 1169 01f7 B4       		.byte	0xb4
 1170 01f8 0A       		.uleb128 0xa
 1171 01f9 1F030000 		.4byte	.LASF29
 1172 01fd 05       		.byte	0x5
 1173 01fe AE       		.byte	0xae
 1174 01ff B5000000 		.4byte	0xb5
 1175 0203 C0       		.byte	0xc0
 1176 0204 0A       		.uleb128 0xa
 1177 0205 7D020000 		.4byte	.LASF30
 1178 0209 05       		.byte	0x5
 1179 020a AF       		.byte	0xaf
 1180 020b 370E0000 		.4byte	0xe37
 1181 020f C4       		.byte	0xc4
 1182 0210 0C       		.uleb128 0xc
 1183 0211 E6000000 		.4byte	.LASF31
 1184 0215 05       		.byte	0x5
 1185 0216 B0       		.byte	0xb0
 1186 0217 B5000000 		.4byte	0xb5
 1187 021b 3801     		.2byte	0x138
 1188 021d 0C       		.uleb128 0xc
 1189 021e 87020000 		.4byte	.LASF32
ARM GAS  /tmp/ccs6HPrS.s 			page 22


 1190 0222 05       		.byte	0x5
 1191 0223 B1       		.byte	0xb1
 1192 0224 410E0000 		.4byte	0xe41
 1193 0228 3C01     		.2byte	0x13c
 1194 022a 0C       		.uleb128 0xc
 1195 022b F30A0000 		.4byte	.LASF33
 1196 022f 05       		.byte	0x5
 1197 0230 B2       		.byte	0xb2
 1198 0231 B5000000 		.4byte	0xb5
 1199 0235 4401     		.2byte	0x144
 1200 0237 0C       		.uleb128 0xc
 1201 0238 87040000 		.4byte	.LASF34
 1202 023c 05       		.byte	0x5
 1203 023d B3       		.byte	0xb3
 1204 023e B5000000 		.4byte	0xb5
 1205 0242 4801     		.2byte	0x148
 1206 0244 0C       		.uleb128 0xc
 1207 0245 C4000000 		.4byte	.LASF35
 1208 0249 05       		.byte	0x5
 1209 024a B4       		.byte	0xb4
 1210 024b BA000000 		.4byte	0xba
 1211 024f 4C01     		.2byte	0x14c
 1212 0251 0C       		.uleb128 0xc
 1213 0252 FE070000 		.4byte	.LASF36
 1214 0256 05       		.byte	0x5
 1215 0257 B5       		.byte	0xb5
 1216 0258 B5000000 		.4byte	0xb5
 1217 025c 5001     		.2byte	0x150
 1218 025e 0C       		.uleb128 0xc
 1219 025f 0F010000 		.4byte	.LASF37
 1220 0263 05       		.byte	0x5
 1221 0264 B6       		.byte	0xb6
 1222 0265 BA000000 		.4byte	0xba
 1223 0269 5401     		.2byte	0x154
 1224 026b 0C       		.uleb128 0xc
 1225 026c 91020000 		.4byte	.LASF38
 1226 0270 05       		.byte	0x5
 1227 0271 B7       		.byte	0xb7
 1228 0272 4B0E0000 		.4byte	0xe4b
 1229 0276 5801     		.2byte	0x158
 1230 0278 0C       		.uleb128 0xc
 1231 0279 42030000 		.4byte	.LASF39
 1232 027d 05       		.byte	0x5
 1233 027e B8       		.byte	0xb8
 1234 027f B5000000 		.4byte	0xb5
 1235 0283 6001     		.2byte	0x160
 1236 0285 0C       		.uleb128 0xc
 1237 0286 4B030000 		.4byte	.LASF40
 1238 028a 05       		.byte	0x5
 1239 028b B9       		.byte	0xb9
 1240 028c B5000000 		.4byte	0xb5
 1241 0290 6401     		.2byte	0x164
 1242 0292 0C       		.uleb128 0xc
 1243 0293 9F010000 		.4byte	.LASF41
 1244 0297 05       		.byte	0x5
 1245 0298 BA       		.byte	0xba
 1246 0299 BA000000 		.4byte	0xba
ARM GAS  /tmp/ccs6HPrS.s 			page 23


 1247 029d 6801     		.2byte	0x168
 1248 029f 0C       		.uleb128 0xc
 1249 02a0 9B020000 		.4byte	.LASF42
 1250 02a4 05       		.byte	0x5
 1251 02a5 BB       		.byte	0xbb
 1252 02a6 650E0000 		.4byte	0xe65
 1253 02aa 6C01     		.2byte	0x16c
 1254 02ac 0C       		.uleb128 0xc
 1255 02ad 24000000 		.4byte	.LASF43
 1256 02b1 05       		.byte	0x5
 1257 02b2 BC       		.byte	0xbc
 1258 02b3 B5000000 		.4byte	0xb5
 1259 02b7 8801     		.2byte	0x188
 1260 02b9 0C       		.uleb128 0xc
 1261 02ba DB000000 		.4byte	.LASF44
 1262 02be 05       		.byte	0x5
 1263 02bf BD       		.byte	0xbd
 1264 02c0 B5000000 		.4byte	0xb5
 1265 02c4 8C01     		.2byte	0x18c
 1266 02c6 0C       		.uleb128 0xc
 1267 02c7 A5020000 		.4byte	.LASF45
 1268 02cb 05       		.byte	0x5
 1269 02cc BE       		.byte	0xbe
 1270 02cd 6F0E0000 		.4byte	0xe6f
 1271 02d1 9001     		.2byte	0x190
 1272 02d3 0C       		.uleb128 0xc
 1273 02d4 78000000 		.4byte	.LASF46
 1274 02d8 05       		.byte	0x5
 1275 02d9 BF       		.byte	0xbf
 1276 02da BA000000 		.4byte	0xba
 1277 02de A001     		.2byte	0x1a0
 1278 02e0 0C       		.uleb128 0xc
 1279 02e1 AF020000 		.4byte	.LASF47
 1280 02e5 05       		.byte	0x5
 1281 02e6 C0       		.byte	0xc0
 1282 02e7 790E0000 		.4byte	0xe79
 1283 02eb A401     		.2byte	0x1a4
 1284 02ed 0C       		.uleb128 0xc
 1285 02ee 58090000 		.4byte	.LASF48
 1286 02f2 05       		.byte	0x5
 1287 02f3 C1       		.byte	0xc1
 1288 02f4 B5000000 		.4byte	0xb5
 1289 02f8 B401     		.2byte	0x1b4
 1290 02fa 0C       		.uleb128 0xc
 1291 02fb D9020000 		.4byte	.LASF49
 1292 02ff 05       		.byte	0x5
 1293 0300 C2       		.byte	0xc2
 1294 0301 BA000000 		.4byte	0xba
 1295 0305 B801     		.2byte	0x1b8
 1296 0307 0C       		.uleb128 0xc
 1297 0308 AD010000 		.4byte	.LASF50
 1298 030c 05       		.byte	0x5
 1299 030d C3       		.byte	0xc3
 1300 030e B5000000 		.4byte	0xb5
 1301 0312 BC01     		.2byte	0x1bc
 1302 0314 0C       		.uleb128 0xc
 1303 0315 58050000 		.4byte	.LASF51
ARM GAS  /tmp/ccs6HPrS.s 			page 24


 1304 0319 05       		.byte	0x5
 1305 031a C4       		.byte	0xc4
 1306 031b BA000000 		.4byte	0xba
 1307 031f C001     		.2byte	0x1c0
 1308 0321 0C       		.uleb128 0xc
 1309 0322 52060000 		.4byte	.LASF52
 1310 0326 05       		.byte	0x5
 1311 0327 C5       		.byte	0xc5
 1312 0328 830E0000 		.4byte	0xe83
 1313 032c C401     		.2byte	0x1c4
 1314 032e 0C       		.uleb128 0xc
 1315 032f 90030000 		.4byte	.LASF53
 1316 0333 05       		.byte	0x5
 1317 0334 C6       		.byte	0xc6
 1318 0335 BA000000 		.4byte	0xba
 1319 0339 CC01     		.2byte	0x1cc
 1320 033b 0C       		.uleb128 0xc
 1321 033c 5D060000 		.4byte	.LASF54
 1322 0340 05       		.byte	0x5
 1323 0341 C7       		.byte	0xc7
 1324 0342 8D0E0000 		.4byte	0xe8d
 1325 0346 D001     		.2byte	0x1d0
 1326 0348 0C       		.uleb128 0xc
 1327 0349 AA000000 		.4byte	.LASF55
 1328 034d 05       		.byte	0x5
 1329 034e C8       		.byte	0xc8
 1330 034f B5000000 		.4byte	0xb5
 1331 0353 D801     		.2byte	0x1d8
 1332 0355 0C       		.uleb128 0xc
 1333 0356 68060000 		.4byte	.LASF56
 1334 035a 05       		.byte	0x5
 1335 035b C9       		.byte	0xc9
 1336 035c 970E0000 		.4byte	0xe97
 1337 0360 DC01     		.2byte	0x1dc
 1338 0362 0C       		.uleb128 0xc
 1339 0363 600A0000 		.4byte	.LASF57
 1340 0367 05       		.byte	0x5
 1341 0368 CA       		.byte	0xca
 1342 0369 B5000000 		.4byte	0xb5
 1343 036d F401     		.2byte	0x1f4
 1344 036f 0C       		.uleb128 0xc
 1345 0370 AD030000 		.4byte	.LASF58
 1346 0374 05       		.byte	0x5
 1347 0375 CB       		.byte	0xcb
 1348 0376 B10E0000 		.4byte	0xeb1
 1349 037a F801     		.2byte	0x1f8
 1350 037c 0C       		.uleb128 0xc
 1351 037d B5050000 		.4byte	.LASF59
 1352 0381 05       		.byte	0x5
 1353 0382 CC       		.byte	0xcc
 1354 0383 BA000000 		.4byte	0xba
 1355 0387 8002     		.2byte	0x280
 1356 0389 0C       		.uleb128 0xc
 1357 038a FB030000 		.4byte	.LASF60
 1358 038e 05       		.byte	0x5
 1359 038f CD       		.byte	0xcd
 1360 0390 B5000000 		.4byte	0xb5
ARM GAS  /tmp/ccs6HPrS.s 			page 25


 1361 0394 8402     		.2byte	0x284
 1362 0396 0C       		.uleb128 0xc
 1363 0397 FC080000 		.4byte	.LASF61
 1364 039b 05       		.byte	0x5
 1365 039c CE       		.byte	0xce
 1366 039d BA000000 		.4byte	0xba
 1367 03a1 8802     		.2byte	0x288
 1368 03a3 0C       		.uleb128 0xc
 1369 03a4 D6050000 		.4byte	.LASF62
 1370 03a8 05       		.byte	0x5
 1371 03a9 CF       		.byte	0xcf
 1372 03aa B5000000 		.4byte	0xb5
 1373 03ae 8C02     		.2byte	0x28c
 1374 03b0 0C       		.uleb128 0xc
 1375 03b1 73060000 		.4byte	.LASF63
 1376 03b5 05       		.byte	0x5
 1377 03b6 D0       		.byte	0xd0
 1378 03b7 BB0E0000 		.4byte	0xebb
 1379 03bb 9002     		.2byte	0x290
 1380 03bd 0C       		.uleb128 0xc
 1381 03be 79040000 		.4byte	.LASF64
 1382 03c2 05       		.byte	0x5
 1383 03c3 D1       		.byte	0xd1
 1384 03c4 BA000000 		.4byte	0xba
 1385 03c8 9802     		.2byte	0x298
 1386 03ca 0C       		.uleb128 0xc
 1387 03cb 4D000000 		.4byte	.LASF65
 1388 03cf 05       		.byte	0x5
 1389 03d0 D2       		.byte	0xd2
 1390 03d1 B5000000 		.4byte	0xb5
 1391 03d5 9C02     		.2byte	0x29c
 1392 03d7 0C       		.uleb128 0xc
 1393 03d8 CA0A0000 		.4byte	.LASF66
 1394 03dc 05       		.byte	0x5
 1395 03dd D3       		.byte	0xd3
 1396 03de BA000000 		.4byte	0xba
 1397 03e2 A002     		.2byte	0x2a0
 1398 03e4 0C       		.uleb128 0xc
 1399 03e5 E9060000 		.4byte	.LASF67
 1400 03e9 05       		.byte	0x5
 1401 03ea D4       		.byte	0xd4
 1402 03eb B5000000 		.4byte	0xb5
 1403 03ef A402     		.2byte	0x2a4
 1404 03f1 0C       		.uleb128 0xc
 1405 03f2 7E060000 		.4byte	.LASF68
 1406 03f6 05       		.byte	0x5
 1407 03f7 D5       		.byte	0xd5
 1408 03f8 D50E0000 		.4byte	0xed5
 1409 03fc A802     		.2byte	0x2a8
 1410 03fe 0C       		.uleb128 0xc
 1411 03ff 8F040000 		.4byte	.LASF69
 1412 0403 05       		.byte	0x5
 1413 0404 D6       		.byte	0xd6
 1414 0405 BA000000 		.4byte	0xba
 1415 0409 0003     		.2byte	0x300
 1416 040b 0C       		.uleb128 0xc
 1417 040c 07040000 		.4byte	.LASF70
ARM GAS  /tmp/ccs6HPrS.s 			page 26


 1418 0410 05       		.byte	0x5
 1419 0411 D7       		.byte	0xd7
 1420 0412 BA000000 		.4byte	0xba
 1421 0416 0403     		.2byte	0x304
 1422 0418 0C       		.uleb128 0xc
 1423 0419 5D000000 		.4byte	.LASF71
 1424 041d 05       		.byte	0x5
 1425 041e D8       		.byte	0xd8
 1426 041f BA000000 		.4byte	0xba
 1427 0423 0803     		.2byte	0x308
 1428 0425 0C       		.uleb128 0xc
 1429 0426 04090000 		.4byte	.LASF72
 1430 042a 05       		.byte	0x5
 1431 042b D9       		.byte	0xd9
 1432 042c BA000000 		.4byte	0xba
 1433 0430 0C03     		.2byte	0x30c
 1434 0432 0C       		.uleb128 0xc
 1435 0433 56010000 		.4byte	.LASF73
 1436 0437 05       		.byte	0x5
 1437 0438 DA       		.byte	0xda
 1438 0439 BA000000 		.4byte	0xba
 1439 043d 1003     		.2byte	0x310
 1440 043f 0C       		.uleb128 0xc
 1441 0440 DC040000 		.4byte	.LASF74
 1442 0444 05       		.byte	0x5
 1443 0445 DB       		.byte	0xdb
 1444 0446 BA000000 		.4byte	0xba
 1445 044a 1403     		.2byte	0x314
 1446 044c 0C       		.uleb128 0xc
 1447 044d E5030000 		.4byte	.LASF75
 1448 0451 05       		.byte	0x5
 1449 0452 DC       		.byte	0xdc
 1450 0453 BA000000 		.4byte	0xba
 1451 0457 1803     		.2byte	0x318
 1452 0459 0C       		.uleb128 0xc
 1453 045a 8F000000 		.4byte	.LASF76
 1454 045e 05       		.byte	0x5
 1455 045f DD       		.byte	0xdd
 1456 0460 BA000000 		.4byte	0xba
 1457 0464 1C03     		.2byte	0x31c
 1458 0466 0C       		.uleb128 0xc
 1459 0467 ED0A0000 		.4byte	.LASF77
 1460 046b 05       		.byte	0x5
 1461 046c DE       		.byte	0xde
 1462 046d BA000000 		.4byte	0xba
 1463 0471 2003     		.2byte	0x320
 1464 0473 0C       		.uleb128 0xc
 1465 0474 89060000 		.4byte	.LASF78
 1466 0478 05       		.byte	0x5
 1467 0479 DF       		.byte	0xdf
 1468 047a DF0E0000 		.4byte	0xedf
 1469 047e 2403     		.2byte	0x324
 1470 0480 0C       		.uleb128 0xc
 1471 0481 81040000 		.4byte	.LASF79
 1472 0485 05       		.byte	0x5
 1473 0486 E0       		.byte	0xe0
 1474 0487 BA000000 		.4byte	0xba
ARM GAS  /tmp/ccs6HPrS.s 			page 27


 1475 048b 2803     		.2byte	0x328
 1476 048d 0C       		.uleb128 0xc
 1477 048e 94060000 		.4byte	.LASF80
 1478 0492 05       		.byte	0x5
 1479 0493 E1       		.byte	0xe1
 1480 0494 E90E0000 		.4byte	0xee9
 1481 0498 2C03     		.2byte	0x32c
 1482 049a 0C       		.uleb128 0xc
 1483 049b 350B0000 		.4byte	.LASF81
 1484 049f 05       		.byte	0x5
 1485 04a0 E2       		.byte	0xe2
 1486 04a1 BA000000 		.4byte	0xba
 1487 04a5 3003     		.2byte	0x330
 1488 04a7 0C       		.uleb128 0xc
 1489 04a8 FC020000 		.4byte	.LASF82
 1490 04ac 05       		.byte	0x5
 1491 04ad E3       		.byte	0xe3
 1492 04ae BA000000 		.4byte	0xba
 1493 04b2 3403     		.2byte	0x334
 1494 04b4 0C       		.uleb128 0xc
 1495 04b5 BA0A0000 		.4byte	.LASF83
 1496 04b9 05       		.byte	0x5
 1497 04ba E4       		.byte	0xe4
 1498 04bb BA000000 		.4byte	0xba
 1499 04bf 3803     		.2byte	0x338
 1500 04c1 0C       		.uleb128 0xc
 1501 04c2 D5040000 		.4byte	.LASF84
 1502 04c6 05       		.byte	0x5
 1503 04c7 E5       		.byte	0xe5
 1504 04c8 BA000000 		.4byte	0xba
 1505 04cc 3C03     		.2byte	0x33c
 1506 04ce 0C       		.uleb128 0xc
 1507 04cf 94050000 		.4byte	.LASF85
 1508 04d3 05       		.byte	0x5
 1509 04d4 E6       		.byte	0xe6
 1510 04d5 BA000000 		.4byte	0xba
 1511 04d9 4003     		.2byte	0x340
 1512 04db 0C       		.uleb128 0xc
 1513 04dc DD010000 		.4byte	.LASF86
 1514 04e0 05       		.byte	0x5
 1515 04e1 E7       		.byte	0xe7
 1516 04e2 BA000000 		.4byte	0xba
 1517 04e6 4403     		.2byte	0x344
 1518 04e8 0C       		.uleb128 0xc
 1519 04e9 25050000 		.4byte	.LASF87
 1520 04ed 05       		.byte	0x5
 1521 04ee E8       		.byte	0xe8
 1522 04ef BA000000 		.4byte	0xba
 1523 04f3 4803     		.2byte	0x348
 1524 04f5 0C       		.uleb128 0xc
 1525 04f6 9F060000 		.4byte	.LASF88
 1526 04fa 05       		.byte	0x5
 1527 04fb E9       		.byte	0xe9
 1528 04fc F30E0000 		.4byte	0xef3
 1529 0500 4C03     		.2byte	0x34c
 1530 0502 0C       		.uleb128 0xc
 1531 0503 7C010000 		.4byte	.LASF89
ARM GAS  /tmp/ccs6HPrS.s 			page 28


 1532 0507 05       		.byte	0x5
 1533 0508 EA       		.byte	0xea
 1534 0509 BA000000 		.4byte	0xba
 1535 050d 5003     		.2byte	0x350
 1536 050f 0C       		.uleb128 0xc
 1537 0510 37090000 		.4byte	.LASF90
 1538 0514 05       		.byte	0x5
 1539 0515 EB       		.byte	0xeb
 1540 0516 BA000000 		.4byte	0xba
 1541 051a 5403     		.2byte	0x354
 1542 051c 0C       		.uleb128 0xc
 1543 051d C1020000 		.4byte	.LASF91
 1544 0521 05       		.byte	0x5
 1545 0522 EC       		.byte	0xec
 1546 0523 BA000000 		.4byte	0xba
 1547 0527 5803     		.2byte	0x358
 1548 0529 0C       		.uleb128 0xc
 1549 052a 80000000 		.4byte	.LASF92
 1550 052e 05       		.byte	0x5
 1551 052f ED       		.byte	0xed
 1552 0530 BA000000 		.4byte	0xba
 1553 0534 5C03     		.2byte	0x35c
 1554 0536 0C       		.uleb128 0xc
 1555 0537 AA060000 		.4byte	.LASF93
 1556 053b 05       		.byte	0x5
 1557 053c EE       		.byte	0xee
 1558 053d FD0E0000 		.4byte	0xefd
 1559 0541 6003     		.2byte	0x360
 1560 0543 0C       		.uleb128 0xc
 1561 0544 4A0A0000 		.4byte	.LASF94
 1562 0548 05       		.byte	0x5
 1563 0549 EF       		.byte	0xef
 1564 054a BA000000 		.4byte	0xba
 1565 054e 7003     		.2byte	0x370
 1566 0550 0C       		.uleb128 0xc
 1567 0551 6E030000 		.4byte	.LASF95
 1568 0555 05       		.byte	0x5
 1569 0556 F0       		.byte	0xf0
 1570 0557 BA000000 		.4byte	0xba
 1571 055b 7403     		.2byte	0x374
 1572 055d 0C       		.uleb128 0xc
 1573 055e B5060000 		.4byte	.LASF96
 1574 0562 05       		.byte	0x5
 1575 0563 F1       		.byte	0xf1
 1576 0564 070F0000 		.4byte	0xf07
 1577 0568 7803     		.2byte	0x378
 1578 056a 0C       		.uleb128 0xc
 1579 056b 19010000 		.4byte	.LASF97
 1580 056f 05       		.byte	0x5
 1581 0570 F2       		.byte	0xf2
 1582 0571 BA000000 		.4byte	0xba
 1583 0575 9003     		.2byte	0x390
 1584 0577 0C       		.uleb128 0xc
 1585 0578 F1060000 		.4byte	.LASF98
 1586 057c 05       		.byte	0x5
 1587 057d F3       		.byte	0xf3
 1588 057e 110F0000 		.4byte	0xf11
ARM GAS  /tmp/ccs6HPrS.s 			page 29


 1589 0582 9403     		.2byte	0x394
 1590 0584 0C       		.uleb128 0xc
 1591 0585 3D090000 		.4byte	.LASF99
 1592 0589 05       		.byte	0x5
 1593 058a F4       		.byte	0xf4
 1594 058b BA000000 		.4byte	0xba
 1595 058f 9803     		.2byte	0x398
 1596 0591 0C       		.uleb128 0xc
 1597 0592 64010000 		.4byte	.LASF100
 1598 0596 05       		.byte	0x5
 1599 0597 F5       		.byte	0xf5
 1600 0598 BA000000 		.4byte	0xba
 1601 059c 9C03     		.2byte	0x39c
 1602 059e 0C       		.uleb128 0xc
 1603 059f 56040000 		.4byte	.LASF101
 1604 05a3 05       		.byte	0x5
 1605 05a4 F6       		.byte	0xf6
 1606 05a5 BA000000 		.4byte	0xba
 1607 05a9 A003     		.2byte	0x3a0
 1608 05ab 0C       		.uleb128 0xc
 1609 05ac E7040000 		.4byte	.LASF102
 1610 05b0 05       		.byte	0x5
 1611 05b1 F7       		.byte	0xf7
 1612 05b2 BA000000 		.4byte	0xba
 1613 05b6 A403     		.2byte	0x3a4
 1614 05b8 0C       		.uleb128 0xc
 1615 05b9 FC060000 		.4byte	.LASF103
 1616 05bd 05       		.byte	0x5
 1617 05be F8       		.byte	0xf8
 1618 05bf 2B0F0000 		.4byte	0xf2b
 1619 05c3 A803     		.2byte	0x3a8
 1620 05c5 0C       		.uleb128 0xc
 1621 05c6 02040000 		.4byte	.LASF104
 1622 05ca 05       		.byte	0x5
 1623 05cb F9       		.byte	0xf9
 1624 05cc B5000000 		.4byte	0xb5
 1625 05d0 0005     		.2byte	0x500
 1626 05d2 0C       		.uleb128 0xc
 1627 05d3 B6010000 		.4byte	.LASF105
 1628 05d7 05       		.byte	0x5
 1629 05d8 FA       		.byte	0xfa
 1630 05d9 B5000000 		.4byte	0xb5
 1631 05dd 0405     		.2byte	0x504
 1632 05df 0C       		.uleb128 0xc
 1633 05e0 7C090000 		.4byte	.LASF106
 1634 05e4 05       		.byte	0x5
 1635 05e5 FB       		.byte	0xfb
 1636 05e6 B5000000 		.4byte	0xb5
 1637 05ea 0805     		.2byte	0x508
 1638 05ec 0C       		.uleb128 0xc
 1639 05ed D3020000 		.4byte	.LASF107
 1640 05f1 05       		.byte	0x5
 1641 05f2 FC       		.byte	0xfc
 1642 05f3 B5000000 		.4byte	0xb5
 1643 05f7 0C05     		.2byte	0x50c
 1644 05f9 0C       		.uleb128 0xc
 1645 05fa 44060000 		.4byte	.LASF108
ARM GAS  /tmp/ccs6HPrS.s 			page 30


 1646 05fe 05       		.byte	0x5
 1647 05ff FD       		.byte	0xfd
 1648 0600 B5000000 		.4byte	0xb5
 1649 0604 1005     		.2byte	0x510
 1650 0606 0C       		.uleb128 0xc
 1651 0607 89000000 		.4byte	.LASF109
 1652 060b 05       		.byte	0x5
 1653 060c FE       		.byte	0xfe
 1654 060d B5000000 		.4byte	0xb5
 1655 0611 1405     		.2byte	0x514
 1656 0613 0C       		.uleb128 0xc
 1657 0614 E7020000 		.4byte	.LASF110
 1658 0618 05       		.byte	0x5
 1659 0619 FF       		.byte	0xff
 1660 061a B5000000 		.4byte	0xb5
 1661 061e 1805     		.2byte	0x518
 1662 0620 0D       		.uleb128 0xd
 1663 0621 C8050000 		.4byte	.LASF111
 1664 0625 05       		.byte	0x5
 1665 0626 0001     		.2byte	0x100
 1666 0628 B5000000 		.4byte	0xb5
 1667 062c 1C05     		.2byte	0x51c
 1668 062e 0D       		.uleb128 0xd
 1669 062f CF040000 		.4byte	.LASF112
 1670 0633 05       		.byte	0x5
 1671 0634 0101     		.2byte	0x101
 1672 0636 B5000000 		.4byte	0xb5
 1673 063a 2005     		.2byte	0x520
 1674 063c 0D       		.uleb128 0xd
 1675 063d 07070000 		.4byte	.LASF113
 1676 0641 05       		.byte	0x5
 1677 0642 0201     		.2byte	0x102
 1678 0644 350F0000 		.4byte	0xf35
 1679 0648 2405     		.2byte	0x524
 1680 064a 0D       		.uleb128 0xd
 1681 064b 1E000000 		.4byte	.LASF114
 1682 064f 05       		.byte	0x5
 1683 0650 0301     		.2byte	0x103
 1684 0652 B5000000 		.4byte	0xb5
 1685 0656 2805     		.2byte	0x528
 1686 0658 0D       		.uleb128 0xd
 1687 0659 12070000 		.4byte	.LASF115
 1688 065d 05       		.byte	0x5
 1689 065e 0401     		.2byte	0x104
 1690 0660 3F0F0000 		.4byte	0xf3f
 1691 0664 2C05     		.2byte	0x52c
 1692 0666 0D       		.uleb128 0xd
 1693 0667 30090000 		.4byte	.LASF116
 1694 066b 05       		.byte	0x5
 1695 066c 0501     		.2byte	0x105
 1696 066e B5000000 		.4byte	0xb5
 1697 0672 3005     		.2byte	0x530
 1698 0674 0D       		.uleb128 0xd
 1699 0675 17080000 		.4byte	.LASF117
 1700 0679 05       		.byte	0x5
 1701 067a 0601     		.2byte	0x106
 1702 067c B5000000 		.4byte	0xb5
ARM GAS  /tmp/ccs6HPrS.s 			page 31


 1703 0680 3405     		.2byte	0x534
 1704 0682 0D       		.uleb128 0xd
 1705 0683 A9040000 		.4byte	.LASF118
 1706 0687 05       		.byte	0x5
 1707 0688 0701     		.2byte	0x107
 1708 068a B5000000 		.4byte	0xb5
 1709 068e 3805     		.2byte	0x538
 1710 0690 0D       		.uleb128 0xd
 1711 0691 D8030000 		.4byte	.LASF119
 1712 0695 05       		.byte	0x5
 1713 0696 0801     		.2byte	0x108
 1714 0698 B5000000 		.4byte	0xb5
 1715 069c 3C05     		.2byte	0x53c
 1716 069e 0D       		.uleb128 0xd
 1717 069f 3B010000 		.4byte	.LASF120
 1718 06a3 05       		.byte	0x5
 1719 06a4 0901     		.2byte	0x109
 1720 06a6 B5000000 		.4byte	0xb5
 1721 06aa 4005     		.2byte	0x540
 1722 06ac 0D       		.uleb128 0xd
 1723 06ad 67070000 		.4byte	.LASF121
 1724 06b1 05       		.byte	0x5
 1725 06b2 0A01     		.2byte	0x10a
 1726 06b4 B5000000 		.4byte	0xb5
 1727 06b8 4405     		.2byte	0x544
 1728 06ba 0D       		.uleb128 0xd
 1729 06bb 1D070000 		.4byte	.LASF122
 1730 06bf 05       		.byte	0x5
 1731 06c0 0B01     		.2byte	0x10b
 1732 06c2 490F0000 		.4byte	0xf49
 1733 06c6 4805     		.2byte	0x548
 1734 06c8 0D       		.uleb128 0xd
 1735 06c9 4F050000 		.4byte	.LASF123
 1736 06cd 05       		.byte	0x5
 1737 06ce 0C01     		.2byte	0x10c
 1738 06d0 B5000000 		.4byte	0xb5
 1739 06d4 5805     		.2byte	0x558
 1740 06d6 0D       		.uleb128 0xd
 1741 06d7 28070000 		.4byte	.LASF124
 1742 06db 05       		.byte	0x5
 1743 06dc 0D01     		.2byte	0x10d
 1744 06de 530F0000 		.4byte	0xf53
 1745 06e2 5C05     		.2byte	0x55c
 1746 06e4 0D       		.uleb128 0xd
 1747 06e5 52090000 		.4byte	.LASF125
 1748 06e9 05       		.byte	0x5
 1749 06ea 0E01     		.2byte	0x10e
 1750 06ec B5000000 		.4byte	0xb5
 1751 06f0 7405     		.2byte	0x574
 1752 06f2 0D       		.uleb128 0xd
 1753 06f3 33070000 		.4byte	.LASF126
 1754 06f7 05       		.byte	0x5
 1755 06f8 0F01     		.2byte	0x10f
 1756 06fa 6D0F0000 		.4byte	0xf6d
 1757 06fe 7805     		.2byte	0x578
 1758 0700 0D       		.uleb128 0xd
 1759 0701 17000000 		.4byte	.LASF127
ARM GAS  /tmp/ccs6HPrS.s 			page 32


 1760 0705 05       		.byte	0x5
 1761 0706 1001     		.2byte	0x110
 1762 0708 B5000000 		.4byte	0xb5
 1763 070c 9C05     		.2byte	0x59c
 1764 070e 0D       		.uleb128 0xd
 1765 070f 3E070000 		.4byte	.LASF128
 1766 0713 05       		.byte	0x5
 1767 0714 1101     		.2byte	0x111
 1768 0716 770F0000 		.4byte	0xf77
 1769 071a A005     		.2byte	0x5a0
 1770 071c 0D       		.uleb128 0xd
 1771 071d 62040000 		.4byte	.LASF129
 1772 0721 05       		.byte	0x5
 1773 0722 1201     		.2byte	0x112
 1774 0724 B5000000 		.4byte	0xb5
 1775 0728 0006     		.2byte	0x600
 1776 072a 0D       		.uleb128 0xd
 1777 072b 70050000 		.4byte	.LASF130
 1778 072f 05       		.byte	0x5
 1779 0730 1301     		.2byte	0x113
 1780 0732 B5000000 		.4byte	0xb5
 1781 0736 0406     		.2byte	0x604
 1782 0738 0D       		.uleb128 0xd
 1783 0739 61050000 		.4byte	.LASF131
 1784 073d 05       		.byte	0x5
 1785 073e 1401     		.2byte	0x114
 1786 0740 B5000000 		.4byte	0xb5
 1787 0744 0806     		.2byte	0x608
 1788 0746 0D       		.uleb128 0xd
 1789 0747 CE050000 		.4byte	.LASF132
 1790 074b 05       		.byte	0x5
 1791 074c 1501     		.2byte	0x115
 1792 074e B5000000 		.4byte	0xb5
 1793 0752 0C06     		.2byte	0x60c
 1794 0754 0D       		.uleb128 0xd
 1795 0755 9F0A0000 		.4byte	.LASF133
 1796 0759 05       		.byte	0x5
 1797 075a 1601     		.2byte	0x116
 1798 075c B5000000 		.4byte	0xb5
 1799 0760 1006     		.2byte	0x610
 1800 0762 0D       		.uleb128 0xd
 1801 0763 61030000 		.4byte	.LASF134
 1802 0767 05       		.byte	0x5
 1803 0768 1701     		.2byte	0x117
 1804 076a B5000000 		.4byte	0xb5
 1805 076e 1406     		.2byte	0x614
 1806 0770 0D       		.uleb128 0xd
 1807 0771 960A0000 		.4byte	.LASF135
 1808 0775 05       		.byte	0x5
 1809 0776 1801     		.2byte	0x118
 1810 0778 B5000000 		.4byte	0xb5
 1811 077c 1806     		.2byte	0x618
 1812 077e 0D       		.uleb128 0xd
 1813 077f 18090000 		.4byte	.LASF136
 1814 0783 05       		.byte	0x5
 1815 0784 1901     		.2byte	0x119
 1816 0786 B5000000 		.4byte	0xb5
ARM GAS  /tmp/ccs6HPrS.s 			page 33


 1817 078a 1C06     		.2byte	0x61c
 1818 078c 0D       		.uleb128 0xd
 1819 078d 5F070000 		.4byte	.LASF137
 1820 0791 05       		.byte	0x5
 1821 0792 1A01     		.2byte	0x11a
 1822 0794 B5000000 		.4byte	0xb5
 1823 0798 2006     		.2byte	0x620
 1824 079a 0D       		.uleb128 0xd
 1825 079b 49070000 		.4byte	.LASF138
 1826 079f 05       		.byte	0x5
 1827 07a0 1B01     		.2byte	0x11b
 1828 07a2 810F0000 		.4byte	0xf81
 1829 07a6 2406     		.2byte	0x624
 1830 07a8 0D       		.uleb128 0xd
 1831 07a9 EE020000 		.4byte	.LASF139
 1832 07ad 05       		.byte	0x5
 1833 07ae 1C01     		.2byte	0x11c
 1834 07b0 B5000000 		.4byte	0xb5
 1835 07b4 2806     		.2byte	0x628
 1836 07b6 0D       		.uleb128 0xd
 1837 07b7 54070000 		.4byte	.LASF140
 1838 07bb 05       		.byte	0x5
 1839 07bc 1D01     		.2byte	0x11d
 1840 07be 8B0F0000 		.4byte	0xf8b
 1841 07c2 2C06     		.2byte	0x62c
 1842 07c4 0D       		.uleb128 0xd
 1843 07c5 0E050000 		.4byte	.LASF141
 1844 07c9 05       		.byte	0x5
 1845 07ca 1E01     		.2byte	0x11e
 1846 07cc B5000000 		.4byte	0xb5
 1847 07d0 3006     		.2byte	0x630
 1848 07d2 0D       		.uleb128 0xd
 1849 07d3 45000000 		.4byte	.LASF142
 1850 07d7 05       		.byte	0x5
 1851 07d8 1F01     		.2byte	0x11f
 1852 07da B5000000 		.4byte	0xb5
 1853 07de 3406     		.2byte	0x634
 1854 07e0 0D       		.uleb128 0xd
 1855 07e1 DA060000 		.4byte	.LASF143
 1856 07e5 05       		.byte	0x5
 1857 07e6 2001     		.2byte	0x120
 1858 07e8 B5000000 		.4byte	0xb5
 1859 07ec 3806     		.2byte	0x638
 1860 07ee 0D       		.uleb128 0xd
 1861 07ef 16030000 		.4byte	.LASF144
 1862 07f3 05       		.byte	0x5
 1863 07f4 2101     		.2byte	0x121
 1864 07f6 B5000000 		.4byte	0xb5
 1865 07fa 3C06     		.2byte	0x63c
 1866 07fc 0D       		.uleb128 0xd
 1867 07fd D0030000 		.4byte	.LASF145
 1868 0801 05       		.byte	0x5
 1869 0802 2201     		.2byte	0x122
 1870 0804 B5000000 		.4byte	0xb5
 1871 0808 4006     		.2byte	0x640
 1872 080a 0D       		.uleb128 0xd
 1873 080b 1A0B0000 		.4byte	.LASF146
ARM GAS  /tmp/ccs6HPrS.s 			page 34


 1874 080f 05       		.byte	0x5
 1875 0810 2301     		.2byte	0x123
 1876 0812 B5000000 		.4byte	0xb5
 1877 0816 4406     		.2byte	0x644
 1878 0818 0D       		.uleb128 0xd
 1879 0819 89070000 		.4byte	.LASF147
 1880 081d 05       		.byte	0x5
 1881 081e 2401     		.2byte	0x124
 1882 0820 950F0000 		.4byte	0xf95
 1883 0824 4806     		.2byte	0x648
 1884 0826 0D       		.uleb128 0xd
 1885 0827 89050000 		.4byte	.LASF148
 1886 082b 05       		.byte	0x5
 1887 082c 2501     		.2byte	0x125
 1888 082e B5000000 		.4byte	0xb5
 1889 0832 5806     		.2byte	0x658
 1890 0834 0D       		.uleb128 0xd
 1891 0835 94070000 		.4byte	.LASF149
 1892 0839 05       		.byte	0x5
 1893 083a 2601     		.2byte	0x126
 1894 083c 9F0F0000 		.4byte	0xf9f
 1895 0840 5C06     		.2byte	0x65c
 1896 0842 0D       		.uleb128 0xd
 1897 0843 66090000 		.4byte	.LASF150
 1898 0847 05       		.byte	0x5
 1899 0848 2701     		.2byte	0x127
 1900 084a B5000000 		.4byte	0xb5
 1901 084e 7406     		.2byte	0x674
 1902 0850 0D       		.uleb128 0xd
 1903 0851 9F070000 		.4byte	.LASF151
 1904 0855 05       		.byte	0x5
 1905 0856 2801     		.2byte	0x128
 1906 0858 A90F0000 		.4byte	0xfa9
 1907 085c 7806     		.2byte	0x678
 1908 085e 0D       		.uleb128 0xd
 1909 085f 32060000 		.4byte	.LASF152
 1910 0863 05       		.byte	0x5
 1911 0864 2901     		.2byte	0x129
 1912 0866 B5000000 		.4byte	0xb5
 1913 086a 9C06     		.2byte	0x69c
 1914 086c 0D       		.uleb128 0xd
 1915 086d AA070000 		.4byte	.LASF153
 1916 0871 05       		.byte	0x5
 1917 0872 2A01     		.2byte	0x12a
 1918 0874 B30F0000 		.4byte	0xfb3
 1919 0878 A006     		.2byte	0x6a0
 1920 087a 0D       		.uleb128 0xd
 1921 087b 71000000 		.4byte	.LASF154
 1922 087f 05       		.byte	0x5
 1923 0880 2B01     		.2byte	0x12b
 1924 0882 B5000000 		.4byte	0xb5
 1925 0886 0007     		.2byte	0x700
 1926 0888 0D       		.uleb128 0xd
 1927 0889 1D080000 		.4byte	.LASF155
 1928 088d 05       		.byte	0x5
 1929 088e 2C01     		.2byte	0x12c
 1930 0890 B5000000 		.4byte	0xb5
ARM GAS  /tmp/ccs6HPrS.s 			page 35


 1931 0894 0407     		.2byte	0x704
 1932 0896 0D       		.uleb128 0xd
 1933 0897 35020000 		.4byte	.LASF156
 1934 089b 05       		.byte	0x5
 1935 089c 2D01     		.2byte	0x12d
 1936 089e B5000000 		.4byte	0xb5
 1937 08a2 0807     		.2byte	0x708
 1938 08a4 0D       		.uleb128 0xd
 1939 08a5 FA050000 		.4byte	.LASF157
 1940 08a9 05       		.byte	0x5
 1941 08aa 2E01     		.2byte	0x12e
 1942 08ac B5000000 		.4byte	0xb5
 1943 08b0 0C07     		.2byte	0x70c
 1944 08b2 0D       		.uleb128 0xd
 1945 08b3 090B0000 		.4byte	.LASF158
 1946 08b7 05       		.byte	0x5
 1947 08b8 2F01     		.2byte	0x12f
 1948 08ba B5000000 		.4byte	0xb5
 1949 08be 1007     		.2byte	0x710
 1950 08c0 0D       		.uleb128 0xd
 1951 08c1 9D030000 		.4byte	.LASF159
 1952 08c5 05       		.byte	0x5
 1953 08c6 3001     		.2byte	0x130
 1954 08c8 B5000000 		.4byte	0xb5
 1955 08cc 1407     		.2byte	0x714
 1956 08ce 0D       		.uleb128 0xd
 1957 08cf 46050000 		.4byte	.LASF160
 1958 08d3 05       		.byte	0x5
 1959 08d4 3101     		.2byte	0x131
 1960 08d6 B5000000 		.4byte	0xb5
 1961 08da 1807     		.2byte	0x718
 1962 08dc 0D       		.uleb128 0xd
 1963 08dd 83090000 		.4byte	.LASF161
 1964 08e1 05       		.byte	0x5
 1965 08e2 3201     		.2byte	0x132
 1966 08e4 B5000000 		.4byte	0xb5
 1967 08e8 1C07     		.2byte	0x71c
 1968 08ea 0D       		.uleb128 0xd
 1969 08eb 0F080000 		.4byte	.LASF162
 1970 08ef 05       		.byte	0x5
 1971 08f0 3301     		.2byte	0x133
 1972 08f2 B5000000 		.4byte	0xb5
 1973 08f6 2007     		.2byte	0x720
 1974 08f8 0D       		.uleb128 0xd
 1975 08f9 B5070000 		.4byte	.LASF163
 1976 08fd 05       		.byte	0x5
 1977 08fe 3401     		.2byte	0x134
 1978 0900 BD0F0000 		.4byte	0xfbd
 1979 0904 2407     		.2byte	0x724
 1980 0906 0D       		.uleb128 0xd
 1981 0907 59030000 		.4byte	.LASF164
 1982 090b 05       		.byte	0x5
 1983 090c 3501     		.2byte	0x135
 1984 090e B5000000 		.4byte	0xb5
 1985 0912 2807     		.2byte	0x728
 1986 0914 0D       		.uleb128 0xd
 1987 0915 C0070000 		.4byte	.LASF165
ARM GAS  /tmp/ccs6HPrS.s 			page 36


 1988 0919 05       		.byte	0x5
 1989 091a 3601     		.2byte	0x136
 1990 091c C70F0000 		.4byte	0xfc7
 1991 0920 2C07     		.2byte	0x72c
 1992 0922 0D       		.uleb128 0xd
 1993 0923 8A010000 		.4byte	.LASF166
 1994 0927 05       		.byte	0x5
 1995 0928 3701     		.2byte	0x137
 1996 092a B5000000 		.4byte	0xb5
 1997 092e 3007     		.2byte	0x730
 1998 0930 0D       		.uleb128 0xd
 1999 0931 BC000000 		.4byte	.LASF167
 2000 0935 05       		.byte	0x5
 2001 0936 3801     		.2byte	0x138
 2002 0938 B5000000 		.4byte	0xb5
 2003 093c 3407     		.2byte	0x734
 2004 093e 0D       		.uleb128 0xd
 2005 093f F3030000 		.4byte	.LASF168
 2006 0943 05       		.byte	0x5
 2007 0944 3901     		.2byte	0x139
 2008 0946 B5000000 		.4byte	0xb5
 2009 094a 3807     		.2byte	0x738
 2010 094c 0D       		.uleb128 0xd
 2011 094d 3B060000 		.4byte	.LASF169
 2012 0951 05       		.byte	0x5
 2013 0952 3A01     		.2byte	0x13a
 2014 0954 B5000000 		.4byte	0xb5
 2015 0958 3C07     		.2byte	0x73c
 2016 095a 0D       		.uleb128 0xd
 2017 095b 4E040000 		.4byte	.LASF170
 2018 095f 05       		.byte	0x5
 2019 0960 3B01     		.2byte	0x13b
 2020 0962 B5000000 		.4byte	0xb5
 2021 0966 4007     		.2byte	0x740
 2022 0968 0D       		.uleb128 0xd
 2023 0969 55000000 		.4byte	.LASF171
 2024 096d 05       		.byte	0x5
 2025 096e 3C01     		.2byte	0x13c
 2026 0970 B5000000 		.4byte	0xb5
 2027 0974 4407     		.2byte	0x744
 2028 0976 0D       		.uleb128 0xd
 2029 0977 CB070000 		.4byte	.LASF172
 2030 097b 05       		.byte	0x5
 2031 097c 3D01     		.2byte	0x13d
 2032 097e D10F0000 		.4byte	0xfd1
 2033 0982 4807     		.2byte	0x748
 2034 0984 0D       		.uleb128 0xd
 2035 0985 38040000 		.4byte	.LASF173
 2036 0989 05       		.byte	0x5
 2037 098a 3E01     		.2byte	0x13e
 2038 098c B5000000 		.4byte	0xb5
 2039 0990 5807     		.2byte	0x758
 2040 0992 0D       		.uleb128 0xd
 2041 0993 D6070000 		.4byte	.LASF174
 2042 0997 05       		.byte	0x5
 2043 0998 3F01     		.2byte	0x13f
 2044 099a DB0F0000 		.4byte	0xfdb
ARM GAS  /tmp/ccs6HPrS.s 			page 37


 2045 099e 5C07     		.2byte	0x75c
 2046 09a0 0D       		.uleb128 0xd
 2047 09a1 5C010000 		.4byte	.LASF175
 2048 09a5 05       		.byte	0x5
 2049 09a6 4001     		.2byte	0x140
 2050 09a8 B5000000 		.4byte	0xb5
 2051 09ac 7407     		.2byte	0x774
 2052 09ae 0D       		.uleb128 0xd
 2053 09af E1070000 		.4byte	.LASF176
 2054 09b3 05       		.byte	0x5
 2055 09b4 4101     		.2byte	0x141
 2056 09b6 E50F0000 		.4byte	0xfe5
 2057 09ba 7807     		.2byte	0x778
 2058 09bc 0D       		.uleb128 0xd
 2059 09bd 74030000 		.4byte	.LASF177
 2060 09c1 05       		.byte	0x5
 2061 09c2 4201     		.2byte	0x142
 2062 09c4 B5000000 		.4byte	0xb5
 2063 09c8 9C07     		.2byte	0x79c
 2064 09ca 0D       		.uleb128 0xd
 2065 09cb EC070000 		.4byte	.LASF178
 2066 09cf 05       		.byte	0x5
 2067 09d0 4301     		.2byte	0x143
 2068 09d2 EF0F0000 		.4byte	0xfef
 2069 09d6 A007     		.2byte	0x7a0
 2070 09d8 0D       		.uleb128 0xd
 2071 09d9 1E050000 		.4byte	.LASF179
 2072 09dd 05       		.byte	0x5
 2073 09de 4401     		.2byte	0x144
 2074 09e0 B5000000 		.4byte	0xb5
 2075 09e4 0008     		.2byte	0x800
 2076 09e6 0D       		.uleb128 0xd
 2077 09e7 94040000 		.4byte	.LASF180
 2078 09eb 05       		.byte	0x5
 2079 09ec 4501     		.2byte	0x145
 2080 09ee B5000000 		.4byte	0xb5
 2081 09f2 0408     		.2byte	0x804
 2082 09f4 0D       		.uleb128 0xd
 2083 09f5 2E000000 		.4byte	.LASF181
 2084 09f9 05       		.byte	0x5
 2085 09fa 4601     		.2byte	0x146
 2086 09fc B5000000 		.4byte	0xb5
 2087 0a00 0808     		.2byte	0x808
 2088 0a02 0D       		.uleb128 0xd
 2089 0a03 9A050000 		.4byte	.LASF182
 2090 0a07 05       		.byte	0x5
 2091 0a08 4801     		.2byte	0x148
 2092 0a0a B5000000 		.4byte	0xb5
 2093 0a0e 0C08     		.2byte	0x80c
 2094 0a10 0D       		.uleb128 0xd
 2095 0a11 500A0000 		.4byte	.LASF183
 2096 0a15 05       		.byte	0x5
 2097 0a16 4A01     		.2byte	0x14a
 2098 0a18 B5000000 		.4byte	0xb5
 2099 0a1c 1008     		.2byte	0x810
 2100 0a1e 0D       		.uleb128 0xd
 2101 0a1f 32030000 		.4byte	.LASF184
ARM GAS  /tmp/ccs6HPrS.s 			page 38


 2102 0a23 05       		.byte	0x5
 2103 0a24 4B01     		.2byte	0x14b
 2104 0a26 B5000000 		.4byte	0xb5
 2105 0a2a 1408     		.2byte	0x814
 2106 0a2c 0D       		.uleb128 0xd
 2107 0a2d B6030000 		.4byte	.LASF185
 2108 0a31 05       		.byte	0x5
 2109 0a32 4C01     		.2byte	0x14c
 2110 0a34 B5000000 		.4byte	0xb5
 2111 0a38 1808     		.2byte	0x818
 2112 0a3a 0D       		.uleb128 0xd
 2113 0a3b A4080000 		.4byte	.LASF186
 2114 0a3f 05       		.byte	0x5
 2115 0a40 4E01     		.2byte	0x14e
 2116 0a42 B5000000 		.4byte	0xb5
 2117 0a46 1C08     		.2byte	0x81c
 2118 0a48 0D       		.uleb128 0xd
 2119 0a49 D2060000 		.4byte	.LASF187
 2120 0a4d 05       		.byte	0x5
 2121 0a4e 4F01     		.2byte	0x14f
 2122 0a50 B5000000 		.4byte	0xb5
 2123 0a54 2008     		.2byte	0x820
 2124 0a56 0D       		.uleb128 0xd
 2125 0a57 27080000 		.4byte	.LASF188
 2126 0a5b 05       		.byte	0x5
 2127 0a5c 5001     		.2byte	0x150
 2128 0a5e F90F0000 		.4byte	0xff9
 2129 0a62 2408     		.2byte	0x824
 2130 0a64 0D       		.uleb128 0xd
 2131 0a65 1F010000 		.4byte	.LASF189
 2132 0a69 05       		.byte	0x5
 2133 0a6a 5101     		.2byte	0x151
 2134 0a6c B5000000 		.4byte	0xb5
 2135 0a70 2808     		.2byte	0x828
 2136 0a72 0D       		.uleb128 0xd
 2137 0a73 32080000 		.4byte	.LASF190
 2138 0a77 05       		.byte	0x5
 2139 0a78 5201     		.2byte	0x152
 2140 0a7a 03100000 		.4byte	0x1003
 2141 0a7e 2C08     		.2byte	0x82c
 2142 0a80 0D       		.uleb128 0xd
 2143 0a81 110B0000 		.4byte	.LASF191
 2144 0a85 05       		.byte	0x5
 2145 0a86 5301     		.2byte	0x153
 2146 0a88 B5000000 		.4byte	0xb5
 2147 0a8c 3008     		.2byte	0x830
 2148 0a8e 0D       		.uleb128 0xd
 2149 0a8f 0F000000 		.4byte	.LASF192
 2150 0a93 05       		.byte	0x5
 2151 0a94 5401     		.2byte	0x154
 2152 0a96 B5000000 		.4byte	0xb5
 2153 0a9a 3408     		.2byte	0x834
 2154 0a9c 0D       		.uleb128 0xd
 2155 0a9d 4A060000 		.4byte	.LASF193
 2156 0aa1 05       		.byte	0x5
 2157 0aa2 5501     		.2byte	0x155
 2158 0aa4 B5000000 		.4byte	0xb5
ARM GAS  /tmp/ccs6HPrS.s 			page 39


 2159 0aa8 3808     		.2byte	0x838
 2160 0aaa 0D       		.uleb128 0xd
 2161 0aab C6040000 		.4byte	.LASF194
 2162 0aaf 05       		.byte	0x5
 2163 0ab0 5601     		.2byte	0x156
 2164 0ab2 B5000000 		.4byte	0xb5
 2165 0ab6 3C08     		.2byte	0x83c
 2166 0ab8 0D       		.uleb128 0xd
 2167 0ab9 A5030000 		.4byte	.LASF195
 2168 0abd 05       		.byte	0x5
 2169 0abe 5801     		.2byte	0x158
 2170 0ac0 B5000000 		.4byte	0xb5
 2171 0ac4 4008     		.2byte	0x840
 2172 0ac6 0D       		.uleb128 0xd
 2173 0ac7 E50A0000 		.4byte	.LASF196
 2174 0acb 05       		.byte	0x5
 2175 0acc 5901     		.2byte	0x159
 2176 0ace B5000000 		.4byte	0xb5
 2177 0ad2 4408     		.2byte	0x844
 2178 0ad4 0D       		.uleb128 0xd
 2179 0ad5 3D080000 		.4byte	.LASF197
 2180 0ad9 05       		.byte	0x5
 2181 0ada 5A01     		.2byte	0x15a
 2182 0adc 0D100000 		.4byte	0x100d
 2183 0ae0 4808     		.2byte	0x848
 2184 0ae2 0D       		.uleb128 0xd
 2185 0ae3 69040000 		.4byte	.LASF198
 2186 0ae7 05       		.byte	0x5
 2187 0ae8 5B01     		.2byte	0x15b
 2188 0aea B5000000 		.4byte	0xb5
 2189 0aee 5808     		.2byte	0x858
 2190 0af0 0D       		.uleb128 0xd
 2191 0af1 48080000 		.4byte	.LASF199
 2192 0af5 05       		.byte	0x5
 2193 0af6 5D01     		.2byte	0x15d
 2194 0af8 17100000 		.4byte	0x1017
 2195 0afc 5C08     		.2byte	0x85c
 2196 0afe 0D       		.uleb128 0xd
 2197 0aff 07080000 		.4byte	.LASF200
 2198 0b03 05       		.byte	0x5
 2199 0b04 5E01     		.2byte	0x15e
 2200 0b06 B5000000 		.4byte	0xb5
 2201 0b0a 7408     		.2byte	0x874
 2202 0b0c 0D       		.uleb128 0xd
 2203 0b0d 53080000 		.4byte	.LASF201
 2204 0b11 05       		.byte	0x5
 2205 0b12 5F01     		.2byte	0x15f
 2206 0b14 21100000 		.4byte	0x1021
 2207 0b18 7808     		.2byte	0x878
 2208 0b1a 0D       		.uleb128 0xd
 2209 0b1b 27010000 		.4byte	.LASF202
 2210 0b1f 05       		.byte	0x5
 2211 0b20 6001     		.2byte	0x160
 2212 0b22 B5000000 		.4byte	0xb5
 2213 0b26 9C08     		.2byte	0x89c
 2214 0b28 0D       		.uleb128 0xd
 2215 0b29 5E080000 		.4byte	.LASF203
ARM GAS  /tmp/ccs6HPrS.s 			page 40


 2216 0b2d 05       		.byte	0x5
 2217 0b2e 6101     		.2byte	0x161
 2218 0b30 2B100000 		.4byte	0x102b
 2219 0b34 A008     		.2byte	0x8a0
 2220 0b36 0D       		.uleb128 0xd
 2221 0b37 220B0000 		.4byte	.LASF204
 2222 0b3b 05       		.byte	0x5
 2223 0b3c 6201     		.2byte	0x162
 2224 0b3e B5000000 		.4byte	0xb5
 2225 0b42 0009     		.2byte	0x900
 2226 0b44 0D       		.uleb128 0xd
 2227 0b45 A7050000 		.4byte	.LASF205
 2228 0b49 05       		.byte	0x5
 2229 0b4a 6301     		.2byte	0x163
 2230 0b4c B5000000 		.4byte	0xb5
 2231 0b50 0409     		.2byte	0x904
 2232 0b52 0D       		.uleb128 0xd
 2233 0b53 6A000000 		.4byte	.LASF206
 2234 0b57 05       		.byte	0x5
 2235 0b58 6401     		.2byte	0x164
 2236 0b5a B5000000 		.4byte	0xb5
 2237 0b5e 0809     		.2byte	0x908
 2238 0b60 0D       		.uleb128 0xd
 2239 0b61 EB050000 		.4byte	.LASF207
 2240 0b65 05       		.byte	0x5
 2241 0b66 6501     		.2byte	0x165
 2242 0b68 B5000000 		.4byte	0xb5
 2243 0b6c 0C09     		.2byte	0x90c
 2244 0b6e 0D       		.uleb128 0xd
 2245 0b6f 6A050000 		.4byte	.LASF208
 2246 0b73 05       		.byte	0x5
 2247 0b74 6601     		.2byte	0x166
 2248 0b76 B5000000 		.4byte	0xb5
 2249 0b7a 1009     		.2byte	0x910
 2250 0b7c 0D       		.uleb128 0xd
 2251 0b7d D20A0000 		.4byte	.LASF209
 2252 0b81 05       		.byte	0x5
 2253 0b82 6701     		.2byte	0x167
 2254 0b84 B5000000 		.4byte	0xb5
 2255 0b88 1409     		.2byte	0x914
 2256 0b8a 0D       		.uleb128 0xd
 2257 0b8b F5080000 		.4byte	.LASF210
 2258 0b8f 05       		.byte	0x5
 2259 0b90 6801     		.2byte	0x168
 2260 0b92 B5000000 		.4byte	0xb5
 2261 0b96 1809     		.2byte	0x918
 2262 0b98 0D       		.uleb128 0xd
 2263 0b99 45020000 		.4byte	.LASF211
 2264 0b9d 05       		.byte	0x5
 2265 0b9e 6901     		.2byte	0x169
 2266 0ba0 B5000000 		.4byte	0xb5
 2267 0ba4 1C09     		.2byte	0x91c
 2268 0ba6 0D       		.uleb128 0xd
 2269 0ba7 0F040000 		.4byte	.LASF212
 2270 0bab 05       		.byte	0x5
 2271 0bac 6A01     		.2byte	0x16a
 2272 0bae B5000000 		.4byte	0xb5
ARM GAS  /tmp/ccs6HPrS.s 			page 41


 2273 0bb2 2009     		.2byte	0x920
 2274 0bb4 0D       		.uleb128 0xd
 2275 0bb5 69080000 		.4byte	.LASF213
 2276 0bb9 05       		.byte	0x5
 2277 0bba 6B01     		.2byte	0x16b
 2278 0bbc 35100000 		.4byte	0x1035
 2279 0bc0 2409     		.2byte	0x924
 2280 0bc2 0D       		.uleb128 0xd
 2281 0bc3 94090000 		.4byte	.LASF214
 2282 0bc7 05       		.byte	0x5
 2283 0bc8 6C01     		.2byte	0x16c
 2284 0bca B5000000 		.4byte	0xb5
 2285 0bce 2809     		.2byte	0x928
 2286 0bd0 0D       		.uleb128 0xd
 2287 0bd1 74080000 		.4byte	.LASF215
 2288 0bd5 05       		.byte	0x5
 2289 0bd6 6D01     		.2byte	0x16d
 2290 0bd8 3F100000 		.4byte	0x103f
 2291 0bdc 2C09     		.2byte	0x92c
 2292 0bde 0D       		.uleb128 0xd
 2293 0bdf F7070000 		.4byte	.LASF216
 2294 0be3 05       		.byte	0x5
 2295 0be4 6E01     		.2byte	0x16e
 2296 0be6 B5000000 		.4byte	0xb5
 2297 0bea 3009     		.2byte	0x930
 2298 0bec 0D       		.uleb128 0xd
 2299 0bed 15060000 		.4byte	.LASF217
 2300 0bf1 05       		.byte	0x5
 2301 0bf2 6F01     		.2byte	0x16f
 2302 0bf4 B5000000 		.4byte	0xb5
 2303 0bf8 3409     		.2byte	0x934
 2304 0bfa 0D       		.uleb128 0xd
 2305 0bfb DF030000 		.4byte	.LASF218
 2306 0bff 05       		.byte	0x5
 2307 0c00 7001     		.2byte	0x170
 2308 0c02 B5000000 		.4byte	0xb5
 2309 0c06 3809     		.2byte	0x938
 2310 0c08 0D       		.uleb128 0xd
 2311 0c09 FA040000 		.4byte	.LASF219
 2312 0c0d 05       		.byte	0x5
 2313 0c0e 7101     		.2byte	0x171
 2314 0c10 B5000000 		.4byte	0xb5
 2315 0c14 3C09     		.2byte	0x93c
 2316 0c16 0D       		.uleb128 0xd
 2317 0c17 37000000 		.4byte	.LASF220
 2318 0c1b 05       		.byte	0x5
 2319 0c1c 7201     		.2byte	0x172
 2320 0c1e B5000000 		.4byte	0xb5
 2321 0c22 4009     		.2byte	0x940
 2322 0c24 0D       		.uleb128 0xd
 2323 0c25 E5050000 		.4byte	.LASF221
 2324 0c29 05       		.byte	0x5
 2325 0c2a 7301     		.2byte	0x173
 2326 0c2c B5000000 		.4byte	0xb5
 2327 0c30 4409     		.2byte	0x944
 2328 0c32 0D       		.uleb128 0xd
 2329 0c33 7F080000 		.4byte	.LASF222
ARM GAS  /tmp/ccs6HPrS.s 			page 42


 2330 0c37 05       		.byte	0x5
 2331 0c38 7401     		.2byte	0x174
 2332 0c3a 49100000 		.4byte	0x1049
 2333 0c3e 4809     		.2byte	0x948
 2334 0c40 0D       		.uleb128 0xd
 2335 0c41 7A050000 		.4byte	.LASF223
 2336 0c45 05       		.byte	0x5
 2337 0c46 7501     		.2byte	0x175
 2338 0c48 B5000000 		.4byte	0xb5
 2339 0c4c 5809     		.2byte	0x958
 2340 0c4e 0D       		.uleb128 0xd
 2341 0c4f 8A080000 		.4byte	.LASF224
 2342 0c53 05       		.byte	0x5
 2343 0c54 7601     		.2byte	0x176
 2344 0c56 53100000 		.4byte	0x1053
 2345 0c5a 5C09     		.2byte	0x95c
 2346 0c5c 0D       		.uleb128 0xd
 2347 0c5d 6D070000 		.4byte	.LASF225
 2348 0c61 05       		.byte	0x5
 2349 0c62 7701     		.2byte	0x177
 2350 0c64 B5000000 		.4byte	0xb5
 2351 0c68 7409     		.2byte	0x974
 2352 0c6a 0D       		.uleb128 0xd
 2353 0c6b B3080000 		.4byte	.LASF226
 2354 0c6f 05       		.byte	0x5
 2355 0c70 7801     		.2byte	0x178
 2356 0c72 5D100000 		.4byte	0x105d
 2357 0c76 7809     		.2byte	0x978
 2358 0c78 0D       		.uleb128 0xd
 2359 0c79 83010000 		.4byte	.LASF227
 2360 0c7d 05       		.byte	0x5
 2361 0c7e 7901     		.2byte	0x179
 2362 0c80 B5000000 		.4byte	0xb5
 2363 0c84 9C09     		.2byte	0x99c
 2364 0c86 0D       		.uleb128 0xd
 2365 0c87 BE080000 		.4byte	.LASF228
 2366 0c8b 05       		.byte	0x5
 2367 0c8c 7A01     		.2byte	0x17a
 2368 0c8e 67100000 		.4byte	0x1067
 2369 0c92 A009     		.2byte	0x9a0
 2370 0c94 0D       		.uleb128 0xd
 2371 0c95 61090000 		.4byte	.LASF229
 2372 0c99 05       		.byte	0x5
 2373 0c9a 7B01     		.2byte	0x17b
 2374 0c9c B5000000 		.4byte	0xb5
 2375 0ca0 000A     		.2byte	0xa00
 2376 0ca2 0D       		.uleb128 0xd
 2377 0ca3 74090000 		.4byte	.LASF230
 2378 0ca7 05       		.byte	0x5
 2379 0ca8 7C01     		.2byte	0x17c
 2380 0caa B5000000 		.4byte	0xb5
 2381 0cae 040A     		.2byte	0xa04
 2382 0cb0 0D       		.uleb128 0xd
 2383 0cb1 E2060000 		.4byte	.LASF231
 2384 0cb5 05       		.byte	0x5
 2385 0cb6 7D01     		.2byte	0x17d
 2386 0cb8 B5000000 		.4byte	0xb5
ARM GAS  /tmp/ccs6HPrS.s 			page 43


 2387 0cbc 080A     		.2byte	0xa08
 2388 0cbe 0D       		.uleb128 0xd
 2389 0cbf 20090000 		.4byte	.LASF232
 2390 0cc3 05       		.byte	0x5
 2391 0cc4 7E01     		.2byte	0x17e
 2392 0cc6 B5000000 		.4byte	0xb5
 2393 0cca 0C0A     		.2byte	0xa0c
 2394 0ccc 0D       		.uleb128 0xd
 2395 0ccd 6B010000 		.4byte	.LASF233
 2396 0cd1 05       		.byte	0x5
 2397 0cd2 7F01     		.2byte	0x17f
 2398 0cd4 B5000000 		.4byte	0xb5
 2399 0cd8 100A     		.2byte	0xa10
 2400 0cda 0D       		.uleb128 0xd
 2401 0cdb F4040000 		.4byte	.LASF234
 2402 0cdf 05       		.byte	0x5
 2403 0ce0 8001     		.2byte	0x180
 2404 0ce2 B5000000 		.4byte	0xb5
 2405 0ce6 140A     		.2byte	0xa14
 2406 0ce8 0D       		.uleb128 0xd
 2407 0ce9 9C000000 		.4byte	.LASF235
 2408 0ced 05       		.byte	0x5
 2409 0cee 8101     		.2byte	0x181
 2410 0cf0 B5000000 		.4byte	0xb5
 2411 0cf4 180A     		.2byte	0xa18
 2412 0cf6 0D       		.uleb128 0xd
 2413 0cf7 B6000000 		.4byte	.LASF236
 2414 0cfb 05       		.byte	0x5
 2415 0cfc 8201     		.2byte	0x182
 2416 0cfe B5000000 		.4byte	0xb5
 2417 0d02 1C0A     		.2byte	0xa1c
 2418 0d04 0D       		.uleb128 0xd
 2419 0d05 030B0000 		.4byte	.LASF237
 2420 0d09 05       		.byte	0x5
 2421 0d0a 8301     		.2byte	0x183
 2422 0d0c B5000000 		.4byte	0xb5
 2423 0d10 200A     		.2byte	0xa20
 2424 0d12 0D       		.uleb128 0xd
 2425 0d13 C9080000 		.4byte	.LASF238
 2426 0d17 05       		.byte	0x5
 2427 0d18 8401     		.2byte	0x184
 2428 0d1a 71100000 		.4byte	0x1071
 2429 0d1e 240A     		.2byte	0xa24
 2430 0d20 0D       		.uleb128 0xd
 2431 0d21 97030000 		.4byte	.LASF239
 2432 0d25 05       		.byte	0x5
 2433 0d26 8501     		.2byte	0x185
 2434 0d28 B5000000 		.4byte	0xb5
 2435 0d2c 280A     		.2byte	0xa28
 2436 0d2e 0D       		.uleb128 0xd
 2437 0d2f D4080000 		.4byte	.LASF240
 2438 0d33 05       		.byte	0x5
 2439 0d34 8601     		.2byte	0x186
 2440 0d36 7B100000 		.4byte	0x107b
 2441 0d3a 2C0A     		.2byte	0xa2c
 2442 0d3c 0D       		.uleb128 0xd
 2443 0d3d 0E060000 		.4byte	.LASF241
ARM GAS  /tmp/ccs6HPrS.s 			page 44


 2444 0d41 05       		.byte	0x5
 2445 0d42 8701     		.2byte	0x187
 2446 0d44 B5000000 		.4byte	0xb5
 2447 0d48 300A     		.2byte	0xa30
 2448 0d4a 0D       		.uleb128 0xd
 2449 0d4b 27030000 		.4byte	.LASF242
 2450 0d4f 05       		.byte	0x5
 2451 0d50 8801     		.2byte	0x188
 2452 0d52 B5000000 		.4byte	0xb5
 2453 0d56 340A     		.2byte	0xa34
 2454 0d58 0D       		.uleb128 0xd
 2455 0d59 D80A0000 		.4byte	.LASF243
 2456 0d5d 05       		.byte	0x5
 2457 0d5e 8901     		.2byte	0x189
 2458 0d60 B5000000 		.4byte	0xb5
 2459 0d64 380A     		.2byte	0xa38
 2460 0d66 0D       		.uleb128 0xd
 2461 0d67 E3010000 		.4byte	.LASF244
 2462 0d6b 05       		.byte	0x5
 2463 0d6c 8A01     		.2byte	0x18a
 2464 0d6e B5000000 		.4byte	0xb5
 2465 0d72 3C0A     		.2byte	0xa3c
 2466 0d74 0D       		.uleb128 0xd
 2467 0d75 83050000 		.4byte	.LASF245
 2468 0d79 05       		.byte	0x5
 2469 0d7a 8B01     		.2byte	0x18b
 2470 0d7c B5000000 		.4byte	0xb5
 2471 0d80 400A     		.2byte	0xa40
 2472 0d82 0D       		.uleb128 0xd
 2473 0d83 4B020000 		.4byte	.LASF246
 2474 0d87 05       		.byte	0x5
 2475 0d88 8C01     		.2byte	0x18c
 2476 0d8a B5000000 		.4byte	0xb5
 2477 0d8e 440A     		.2byte	0xa44
 2478 0d90 0D       		.uleb128 0xd
 2479 0d91 DF080000 		.4byte	.LASF247
 2480 0d95 05       		.byte	0x5
 2481 0d96 8D01     		.2byte	0x18d
 2482 0d98 85100000 		.4byte	0x1085
 2483 0d9c 480A     		.2byte	0xa48
 2484 0d9e 0D       		.uleb128 0xd
 2485 0d9f F1050000 		.4byte	.LASF248
 2486 0da3 05       		.byte	0x5
 2487 0da4 8E01     		.2byte	0x18e
 2488 0da6 B5000000 		.4byte	0xb5
 2489 0daa 580A     		.2byte	0xa58
 2490 0dac 0D       		.uleb128 0xd
 2491 0dad EA080000 		.4byte	.LASF249
 2492 0db1 05       		.byte	0x5
 2493 0db2 8F01     		.2byte	0x18f
 2494 0db4 8F100000 		.4byte	0x108f
 2495 0db8 5C0A     		.2byte	0xa5c
 2496 0dba 0D       		.uleb128 0xd
 2497 0dbb 7D030000 		.4byte	.LASF250
 2498 0dbf 05       		.byte	0x5
 2499 0dc0 9001     		.2byte	0x190
 2500 0dc2 B5000000 		.4byte	0xb5
ARM GAS  /tmp/ccs6HPrS.s 			page 45


 2501 0dc6 740A     		.2byte	0xa74
 2502 0dc8 0D       		.uleb128 0xd
 2503 0dc9 D2010000 		.4byte	.LASF251
 2504 0dcd 05       		.byte	0x5
 2505 0dce 9101     		.2byte	0x191
 2506 0dd0 99100000 		.4byte	0x1099
 2507 0dd4 780A     		.2byte	0xa78
 2508 0dd6 0D       		.uleb128 0xd
 2509 0dd7 270B0000 		.4byte	.LASF252
 2510 0ddb 05       		.byte	0x5
 2511 0ddc 9201     		.2byte	0x192
 2512 0dde B5000000 		.4byte	0xb5
 2513 0de2 9C0A     		.2byte	0xa9c
 2514 0de4 00       		.byte	0
 2515 0de5 05       		.uleb128 0x5
 2516 0de6 8C000000 		.4byte	0x8c
 2517 0dea F50D0000 		.4byte	0xdf5
 2518 0dee 06       		.uleb128 0x6
 2519 0def 9E000000 		.4byte	0x9e
 2520 0df3 0B       		.byte	0xb
 2521 0df4 00       		.byte	0
 2522 0df5 08       		.uleb128 0x8
 2523 0df6 FA0D0000 		.4byte	0xdfa
 2524 0dfa 07       		.uleb128 0x7
 2525 0dfb E50D0000 		.4byte	0xde5
 2526 0dff 08       		.uleb128 0x8
 2527 0e00 040E0000 		.4byte	0xe04
 2528 0e04 07       		.uleb128 0x7
 2529 0e05 DF000000 		.4byte	0xdf
 2530 0e09 08       		.uleb128 0x8
 2531 0e0a 0E0E0000 		.4byte	0xe0e
 2532 0e0e 07       		.uleb128 0x7
 2533 0e0f DF000000 		.4byte	0xdf
 2534 0e13 08       		.uleb128 0x8
 2535 0e14 180E0000 		.4byte	0xe18
 2536 0e18 07       		.uleb128 0x7
 2537 0e19 E50D0000 		.4byte	0xde5
 2538 0e1d 05       		.uleb128 0x5
 2539 0e1e 8C000000 		.4byte	0x8c
 2540 0e22 2D0E0000 		.4byte	0xe2d
 2541 0e26 06       		.uleb128 0x6
 2542 0e27 9E000000 		.4byte	0x9e
 2543 0e2b 02       		.byte	0x2
 2544 0e2c 00       		.byte	0
 2545 0e2d 08       		.uleb128 0x8
 2546 0e2e 320E0000 		.4byte	0xe32
 2547 0e32 07       		.uleb128 0x7
 2548 0e33 1D0E0000 		.4byte	0xe1d
 2549 0e37 08       		.uleb128 0x8
 2550 0e38 3C0E0000 		.4byte	0xe3c
 2551 0e3c 07       		.uleb128 0x7
 2552 0e3d FF000000 		.4byte	0xff
 2553 0e41 08       		.uleb128 0x8
 2554 0e42 460E0000 		.4byte	0xe46
 2555 0e46 07       		.uleb128 0x7
 2556 0e47 BF000000 		.4byte	0xbf
 2557 0e4b 08       		.uleb128 0x8
ARM GAS  /tmp/ccs6HPrS.s 			page 46


 2558 0e4c 500E0000 		.4byte	0xe50
 2559 0e50 07       		.uleb128 0x7
 2560 0e51 BF000000 		.4byte	0xbf
 2561 0e55 05       		.uleb128 0x5
 2562 0e56 8C000000 		.4byte	0x8c
 2563 0e5a 650E0000 		.4byte	0xe65
 2564 0e5e 06       		.uleb128 0x6
 2565 0e5f 9E000000 		.4byte	0x9e
 2566 0e63 06       		.byte	0x6
 2567 0e64 00       		.byte	0
 2568 0e65 08       		.uleb128 0x8
 2569 0e66 6A0E0000 		.4byte	0xe6a
 2570 0e6a 07       		.uleb128 0x7
 2571 0e6b 550E0000 		.4byte	0xe55
 2572 0e6f 08       		.uleb128 0x8
 2573 0e70 740E0000 		.4byte	0xe74
 2574 0e74 07       		.uleb128 0x7
 2575 0e75 CF000000 		.4byte	0xcf
 2576 0e79 08       		.uleb128 0x8
 2577 0e7a 7E0E0000 		.4byte	0xe7e
 2578 0e7e 07       		.uleb128 0x7
 2579 0e7f CF000000 		.4byte	0xcf
 2580 0e83 08       		.uleb128 0x8
 2581 0e84 880E0000 		.4byte	0xe88
 2582 0e88 07       		.uleb128 0x7
 2583 0e89 BF000000 		.4byte	0xbf
 2584 0e8d 08       		.uleb128 0x8
 2585 0e8e 920E0000 		.4byte	0xe92
 2586 0e92 07       		.uleb128 0x7
 2587 0e93 BF000000 		.4byte	0xbf
 2588 0e97 08       		.uleb128 0x8
 2589 0e98 9C0E0000 		.4byte	0xe9c
 2590 0e9c 07       		.uleb128 0x7
 2591 0e9d 0F010000 		.4byte	0x10f
 2592 0ea1 05       		.uleb128 0x5
 2593 0ea2 8C000000 		.4byte	0x8c
 2594 0ea6 B10E0000 		.4byte	0xeb1
 2595 0eaa 06       		.uleb128 0x6
 2596 0eab 9E000000 		.4byte	0x9e
 2597 0eaf 21       		.byte	0x21
 2598 0eb0 00       		.byte	0
 2599 0eb1 08       		.uleb128 0x8
 2600 0eb2 B60E0000 		.4byte	0xeb6
 2601 0eb6 07       		.uleb128 0x7
 2602 0eb7 A10E0000 		.4byte	0xea1
 2603 0ebb 08       		.uleb128 0x8
 2604 0ebc C00E0000 		.4byte	0xec0
 2605 0ec0 07       		.uleb128 0x7
 2606 0ec1 BF000000 		.4byte	0xbf
 2607 0ec5 05       		.uleb128 0x5
 2608 0ec6 8C000000 		.4byte	0x8c
 2609 0eca D50E0000 		.4byte	0xed5
 2610 0ece 06       		.uleb128 0x6
 2611 0ecf 9E000000 		.4byte	0x9e
 2612 0ed3 15       		.byte	0x15
 2613 0ed4 00       		.byte	0
 2614 0ed5 08       		.uleb128 0x8
ARM GAS  /tmp/ccs6HPrS.s 			page 47


 2615 0ed6 DA0E0000 		.4byte	0xeda
 2616 0eda 07       		.uleb128 0x7
 2617 0edb C50E0000 		.4byte	0xec5
 2618 0edf 08       		.uleb128 0x8
 2619 0ee0 E40E0000 		.4byte	0xee4
 2620 0ee4 07       		.uleb128 0x7
 2621 0ee5 EF000000 		.4byte	0xef
 2622 0ee9 08       		.uleb128 0x8
 2623 0eea EE0E0000 		.4byte	0xeee
 2624 0eee 07       		.uleb128 0x7
 2625 0eef EF000000 		.4byte	0xef
 2626 0ef3 08       		.uleb128 0x8
 2627 0ef4 F80E0000 		.4byte	0xef8
 2628 0ef8 07       		.uleb128 0x7
 2629 0ef9 EF000000 		.4byte	0xef
 2630 0efd 08       		.uleb128 0x8
 2631 0efe 020F0000 		.4byte	0xf02
 2632 0f02 07       		.uleb128 0x7
 2633 0f03 CF000000 		.4byte	0xcf
 2634 0f07 08       		.uleb128 0x8
 2635 0f08 0C0F0000 		.4byte	0xf0c
 2636 0f0c 07       		.uleb128 0x7
 2637 0f0d 0F010000 		.4byte	0x10f
 2638 0f11 08       		.uleb128 0x8
 2639 0f12 160F0000 		.4byte	0xf16
 2640 0f16 07       		.uleb128 0x7
 2641 0f17 EF000000 		.4byte	0xef
 2642 0f1b 05       		.uleb128 0x5
 2643 0f1c 8C000000 		.4byte	0x8c
 2644 0f20 2B0F0000 		.4byte	0xf2b
 2645 0f24 06       		.uleb128 0x6
 2646 0f25 9E000000 		.4byte	0x9e
 2647 0f29 55       		.byte	0x55
 2648 0f2a 00       		.byte	0
 2649 0f2b 08       		.uleb128 0x8
 2650 0f2c 300F0000 		.4byte	0xf30
 2651 0f30 07       		.uleb128 0x7
 2652 0f31 1B0F0000 		.4byte	0xf1b
 2653 0f35 08       		.uleb128 0x8
 2654 0f36 3A0F0000 		.4byte	0xf3a
 2655 0f3a 07       		.uleb128 0x7
 2656 0f3b EF000000 		.4byte	0xef
 2657 0f3f 08       		.uleb128 0x8
 2658 0f40 440F0000 		.4byte	0xf44
 2659 0f44 07       		.uleb128 0x7
 2660 0f45 EF000000 		.4byte	0xef
 2661 0f49 08       		.uleb128 0x8
 2662 0f4a 4E0F0000 		.4byte	0xf4e
 2663 0f4e 07       		.uleb128 0x7
 2664 0f4f CF000000 		.4byte	0xcf
 2665 0f53 08       		.uleb128 0x8
 2666 0f54 580F0000 		.4byte	0xf58
 2667 0f58 07       		.uleb128 0x7
 2668 0f59 0F010000 		.4byte	0x10f
 2669 0f5d 05       		.uleb128 0x5
 2670 0f5e 8C000000 		.4byte	0x8c
 2671 0f62 6D0F0000 		.4byte	0xf6d
ARM GAS  /tmp/ccs6HPrS.s 			page 48


 2672 0f66 06       		.uleb128 0x6
 2673 0f67 9E000000 		.4byte	0x9e
 2674 0f6b 08       		.byte	0x8
 2675 0f6c 00       		.byte	0
 2676 0f6d 08       		.uleb128 0x8
 2677 0f6e 720F0000 		.4byte	0xf72
 2678 0f72 07       		.uleb128 0x7
 2679 0f73 5D0F0000 		.4byte	0xf5d
 2680 0f77 08       		.uleb128 0x8
 2681 0f78 7C0F0000 		.4byte	0xf7c
 2682 0f7c 07       		.uleb128 0x7
 2683 0f7d A5000000 		.4byte	0xa5
 2684 0f81 08       		.uleb128 0x8
 2685 0f82 860F0000 		.4byte	0xf86
 2686 0f86 07       		.uleb128 0x7
 2687 0f87 EF000000 		.4byte	0xef
 2688 0f8b 08       		.uleb128 0x8
 2689 0f8c 900F0000 		.4byte	0xf90
 2690 0f90 07       		.uleb128 0x7
 2691 0f91 EF000000 		.4byte	0xef
 2692 0f95 08       		.uleb128 0x8
 2693 0f96 9A0F0000 		.4byte	0xf9a
 2694 0f9a 07       		.uleb128 0x7
 2695 0f9b CF000000 		.4byte	0xcf
 2696 0f9f 08       		.uleb128 0x8
 2697 0fa0 A40F0000 		.4byte	0xfa4
 2698 0fa4 07       		.uleb128 0x7
 2699 0fa5 0F010000 		.4byte	0x10f
 2700 0fa9 08       		.uleb128 0x8
 2701 0faa AE0F0000 		.4byte	0xfae
 2702 0fae 07       		.uleb128 0x7
 2703 0faf 5D0F0000 		.4byte	0xf5d
 2704 0fb3 08       		.uleb128 0x8
 2705 0fb4 B80F0000 		.4byte	0xfb8
 2706 0fb8 07       		.uleb128 0x7
 2707 0fb9 A5000000 		.4byte	0xa5
 2708 0fbd 08       		.uleb128 0x8
 2709 0fbe C20F0000 		.4byte	0xfc2
 2710 0fc2 07       		.uleb128 0x7
 2711 0fc3 EF000000 		.4byte	0xef
 2712 0fc7 08       		.uleb128 0x8
 2713 0fc8 CC0F0000 		.4byte	0xfcc
 2714 0fcc 07       		.uleb128 0x7
 2715 0fcd EF000000 		.4byte	0xef
 2716 0fd1 08       		.uleb128 0x8
 2717 0fd2 D60F0000 		.4byte	0xfd6
 2718 0fd6 07       		.uleb128 0x7
 2719 0fd7 CF000000 		.4byte	0xcf
 2720 0fdb 08       		.uleb128 0x8
 2721 0fdc E00F0000 		.4byte	0xfe0
 2722 0fe0 07       		.uleb128 0x7
 2723 0fe1 0F010000 		.4byte	0x10f
 2724 0fe5 08       		.uleb128 0x8
 2725 0fe6 EA0F0000 		.4byte	0xfea
 2726 0fea 07       		.uleb128 0x7
 2727 0feb 5D0F0000 		.4byte	0xf5d
 2728 0fef 08       		.uleb128 0x8
ARM GAS  /tmp/ccs6HPrS.s 			page 49


 2729 0ff0 F40F0000 		.4byte	0xff4
 2730 0ff4 07       		.uleb128 0x7
 2731 0ff5 A5000000 		.4byte	0xa5
 2732 0ff9 08       		.uleb128 0x8
 2733 0ffa FE0F0000 		.4byte	0xffe
 2734 0ffe 07       		.uleb128 0x7
 2735 0fff EF000000 		.4byte	0xef
 2736 1003 08       		.uleb128 0x8
 2737 1004 08100000 		.4byte	0x1008
 2738 1008 07       		.uleb128 0x7
 2739 1009 EF000000 		.4byte	0xef
 2740 100d 08       		.uleb128 0x8
 2741 100e 12100000 		.4byte	0x1012
 2742 1012 07       		.uleb128 0x7
 2743 1013 CF000000 		.4byte	0xcf
 2744 1017 08       		.uleb128 0x8
 2745 1018 1C100000 		.4byte	0x101c
 2746 101c 07       		.uleb128 0x7
 2747 101d 0F010000 		.4byte	0x10f
 2748 1021 08       		.uleb128 0x8
 2749 1022 26100000 		.4byte	0x1026
 2750 1026 07       		.uleb128 0x7
 2751 1027 5D0F0000 		.4byte	0xf5d
 2752 102b 08       		.uleb128 0x8
 2753 102c 30100000 		.4byte	0x1030
 2754 1030 07       		.uleb128 0x7
 2755 1031 A5000000 		.4byte	0xa5
 2756 1035 08       		.uleb128 0x8
 2757 1036 3A100000 		.4byte	0x103a
 2758 103a 07       		.uleb128 0x7
 2759 103b EF000000 		.4byte	0xef
 2760 103f 08       		.uleb128 0x8
 2761 1040 44100000 		.4byte	0x1044
 2762 1044 07       		.uleb128 0x7
 2763 1045 EF000000 		.4byte	0xef
 2764 1049 08       		.uleb128 0x8
 2765 104a 4E100000 		.4byte	0x104e
 2766 104e 07       		.uleb128 0x7
 2767 104f CF000000 		.4byte	0xcf
 2768 1053 08       		.uleb128 0x8
 2769 1054 58100000 		.4byte	0x1058
 2770 1058 07       		.uleb128 0x7
 2771 1059 0F010000 		.4byte	0x10f
 2772 105d 08       		.uleb128 0x8
 2773 105e 62100000 		.4byte	0x1062
 2774 1062 07       		.uleb128 0x7
 2775 1063 5D0F0000 		.4byte	0xf5d
 2776 1067 08       		.uleb128 0x8
 2777 1068 6C100000 		.4byte	0x106c
 2778 106c 07       		.uleb128 0x7
 2779 106d A5000000 		.4byte	0xa5
 2780 1071 08       		.uleb128 0x8
 2781 1072 76100000 		.4byte	0x1076
 2782 1076 07       		.uleb128 0x7
 2783 1077 EF000000 		.4byte	0xef
 2784 107b 08       		.uleb128 0x8
 2785 107c 80100000 		.4byte	0x1080
ARM GAS  /tmp/ccs6HPrS.s 			page 50


 2786 1080 07       		.uleb128 0x7
 2787 1081 EF000000 		.4byte	0xef
 2788 1085 08       		.uleb128 0x8
 2789 1086 8A100000 		.4byte	0x108a
 2790 108a 07       		.uleb128 0x7
 2791 108b CF000000 		.4byte	0xcf
 2792 108f 08       		.uleb128 0x8
 2793 1090 94100000 		.4byte	0x1094
 2794 1094 07       		.uleb128 0x7
 2795 1095 0F010000 		.4byte	0x10f
 2796 1099 08       		.uleb128 0x8
 2797 109a 9E100000 		.4byte	0x109e
 2798 109e 07       		.uleb128 0x7
 2799 109f 5D0F0000 		.4byte	0xf5d
 2800 10a3 0E       		.uleb128 0xe
 2801 10a4 CC000000 		.4byte	.LASF253
 2802 10a8 05       		.byte	0x5
 2803 10a9 9301     		.2byte	0x193
 2804 10ab 2F010000 		.4byte	0x12f
 2805 10af 0F       		.uleb128 0xf
 2806 10b0 0004     		.2byte	0x400
 2807 10b2 05       		.byte	0x5
 2808 10b3 0502     		.2byte	0x205
 2809 10b5 D5100000 		.4byte	0x10d5
 2810 10b9 10       		.uleb128 0x10
 2811 10ba 51020000 		.4byte	.LASF17
 2812 10be 05       		.byte	0x5
 2813 10bf 0602     		.2byte	0x206
 2814 10c1 E5100000 		.4byte	0x10e5
 2815 10c5 00       		.byte	0
 2816 10c6 0D       		.uleb128 0xd
 2817 10c7 54030000 		.4byte	.LASF254
 2818 10cb 05       		.byte	0x5
 2819 10cc 0702     		.2byte	0x207
 2820 10ce B5000000 		.4byte	0xb5
 2821 10d2 FC03     		.2byte	0x3fc
 2822 10d4 00       		.byte	0
 2823 10d5 05       		.uleb128 0x5
 2824 10d6 8C000000 		.4byte	0x8c
 2825 10da E5100000 		.4byte	0x10e5
 2826 10de 06       		.uleb128 0x6
 2827 10df 9E000000 		.4byte	0x9e
 2828 10e3 FE       		.byte	0xfe
 2829 10e4 00       		.byte	0
 2830 10e5 08       		.uleb128 0x8
 2831 10e6 EA100000 		.4byte	0x10ea
 2832 10ea 07       		.uleb128 0x7
 2833 10eb D5100000 		.4byte	0x10d5
 2834 10ef 11       		.uleb128 0x11
 2835 10f0 0004     		.2byte	0x400
 2836 10f2 05       		.byte	0x5
 2837 10f3 0302     		.2byte	0x203
 2838 10f5 0B110000 		.4byte	0x110b
 2839 10f9 12       		.uleb128 0x12
 2840 10fa 0A090000 		.4byte	.LASF307
 2841 10fe 05       		.byte	0x5
 2842 10ff 0402     		.2byte	0x204
ARM GAS  /tmp/ccs6HPrS.s 			page 51


 2843 1101 1B110000 		.4byte	0x111b
 2844 1105 13       		.uleb128 0x13
 2845 1106 AF100000 		.4byte	0x10af
 2846 110a 00       		.byte	0
 2847 110b 05       		.uleb128 0x5
 2848 110c 8C000000 		.4byte	0x8c
 2849 1110 1B110000 		.4byte	0x111b
 2850 1114 06       		.uleb128 0x6
 2851 1115 9E000000 		.4byte	0x9e
 2852 1119 FF       		.byte	0xff
 2853 111a 00       		.byte	0
 2854 111b 07       		.uleb128 0x7
 2855 111c 0B110000 		.4byte	0x110b
 2856 1120 0F       		.uleb128 0xf
 2857 1121 C80F     		.2byte	0xfc8
 2858 1123 05       		.byte	0x5
 2859 1124 0102     		.2byte	0x201
 2860 1126 EB120000 		.4byte	0x12eb
 2861 112a 14       		.uleb128 0x14
 2862 112b EF100000 		.4byte	0x10ef
 2863 112f 00       		.byte	0
 2864 1130 15       		.uleb128 0x15
 2865 1131 44495200 		.ascii	"DIR\000"
 2866 1135 05       		.byte	0x5
 2867 1136 0A02     		.2byte	0x20a
 2868 1138 B5000000 		.4byte	0xb5
 2869 113c 0004     		.2byte	0x400
 2870 113e 15       		.uleb128 0x15
 2871 113f 495300   		.ascii	"IS\000"
 2872 1142 05       		.byte	0x5
 2873 1143 0B02     		.2byte	0x20b
 2874 1145 B5000000 		.4byte	0xb5
 2875 1149 0404     		.2byte	0x404
 2876 114b 15       		.uleb128 0x15
 2877 114c 49424500 		.ascii	"IBE\000"
 2878 1150 05       		.byte	0x5
 2879 1151 0C02     		.2byte	0x20c
 2880 1153 B5000000 		.4byte	0xb5
 2881 1157 0804     		.2byte	0x408
 2882 1159 15       		.uleb128 0x15
 2883 115a 49455600 		.ascii	"IEV\000"
 2884 115e 05       		.byte	0x5
 2885 115f 0D02     		.2byte	0x20d
 2886 1161 B5000000 		.4byte	0xb5
 2887 1165 0C04     		.2byte	0x40c
 2888 1167 15       		.uleb128 0x15
 2889 1168 494D00   		.ascii	"IM\000"
 2890 116b 05       		.byte	0x5
 2891 116c 0E02     		.2byte	0x20e
 2892 116e B5000000 		.4byte	0xb5
 2893 1172 1004     		.2byte	0x410
 2894 1174 15       		.uleb128 0x15
 2895 1175 52495300 		.ascii	"RIS\000"
 2896 1179 05       		.byte	0x5
 2897 117a 0F02     		.2byte	0x20f
 2898 117c BA000000 		.4byte	0xba
 2899 1180 1404     		.2byte	0x414
ARM GAS  /tmp/ccs6HPrS.s 			page 52


 2900 1182 15       		.uleb128 0x15
 2901 1183 4D495300 		.ascii	"MIS\000"
 2902 1187 05       		.byte	0x5
 2903 1188 1002     		.2byte	0x210
 2904 118a BA000000 		.4byte	0xba
 2905 118e 1804     		.2byte	0x418
 2906 1190 15       		.uleb128 0x15
 2907 1191 49435200 		.ascii	"ICR\000"
 2908 1195 05       		.byte	0x5
 2909 1196 1102     		.2byte	0x211
 2910 1198 B5000000 		.4byte	0xb5
 2911 119c 1C04     		.2byte	0x41c
 2912 119e 0D       		.uleb128 0xd
 2913 119f 6E090000 		.4byte	.LASF255
 2914 11a3 05       		.byte	0x5
 2915 11a4 1202     		.2byte	0x212
 2916 11a6 B5000000 		.4byte	0xb5
 2917 11aa 2004     		.2byte	0x420
 2918 11ac 0D       		.uleb128 0xd
 2919 11ad 5B020000 		.4byte	.LASF19
 2920 11b1 05       		.byte	0x5
 2921 11b2 1302     		.2byte	0x213
 2922 11b4 EB120000 		.4byte	0x12eb
 2923 11b8 2404     		.2byte	0x424
 2924 11ba 0D       		.uleb128 0xd
 2925 11bb C3050000 		.4byte	.LASF256
 2926 11bf 05       		.byte	0x5
 2927 11c0 1402     		.2byte	0x214
 2928 11c2 B5000000 		.4byte	0xb5
 2929 11c6 0005     		.2byte	0x500
 2930 11c8 0D       		.uleb128 0xd
 2931 11c9 02060000 		.4byte	.LASF257
 2932 11cd 05       		.byte	0x5
 2933 11ce 1502     		.2byte	0x215
 2934 11d0 B5000000 		.4byte	0xb5
 2935 11d4 0405     		.2byte	0x504
 2936 11d6 0D       		.uleb128 0xd
 2937 11d7 9A010000 		.4byte	.LASF258
 2938 11db 05       		.byte	0x5
 2939 11dc 1602     		.2byte	0x216
 2940 11de B5000000 		.4byte	0xb5
 2941 11e2 0805     		.2byte	0x508
 2942 11e4 15       		.uleb128 0x15
 2943 11e5 4F445200 		.ascii	"ODR\000"
 2944 11e9 05       		.byte	0x5
 2945 11ea 1702     		.2byte	0x217
 2946 11ec B5000000 		.4byte	0xb5
 2947 11f0 0C05     		.2byte	0x50c
 2948 11f2 15       		.uleb128 0x15
 2949 11f3 50555200 		.ascii	"PUR\000"
 2950 11f7 05       		.byte	0x5
 2951 11f8 1802     		.2byte	0x218
 2952 11fa B5000000 		.4byte	0xb5
 2953 11fe 1005     		.2byte	0x510
 2954 1200 15       		.uleb128 0x15
 2955 1201 50445200 		.ascii	"PDR\000"
 2956 1205 05       		.byte	0x5
ARM GAS  /tmp/ccs6HPrS.s 			page 53


 2957 1206 1902     		.2byte	0x219
 2958 1208 B5000000 		.4byte	0xb5
 2959 120c 1405     		.2byte	0x514
 2960 120e 15       		.uleb128 0x15
 2961 120f 534C5200 		.ascii	"SLR\000"
 2962 1213 05       		.byte	0x5
 2963 1214 1A02     		.2byte	0x21a
 2964 1216 B5000000 		.4byte	0xb5
 2965 121a 1805     		.2byte	0x518
 2966 121c 15       		.uleb128 0x15
 2967 121d 44454E00 		.ascii	"DEN\000"
 2968 1221 05       		.byte	0x5
 2969 1222 1B02     		.2byte	0x21b
 2970 1224 B5000000 		.4byte	0xb5
 2971 1228 1C05     		.2byte	0x51c
 2972 122a 0D       		.uleb128 0xd
 2973 122b A2050000 		.4byte	.LASF259
 2974 122f 05       		.byte	0x5
 2975 1230 1C02     		.2byte	0x21c
 2976 1232 B5000000 		.4byte	0xb5
 2977 1236 2005     		.2byte	0x520
 2978 1238 15       		.uleb128 0x15
 2979 1239 435200   		.ascii	"CR\000"
 2980 123c 05       		.byte	0x5
 2981 123d 1D02     		.2byte	0x21d
 2982 123f B5000000 		.4byte	0xb5
 2983 1243 2405     		.2byte	0x524
 2984 1245 0D       		.uleb128 0xd
 2985 1246 43040000 		.4byte	.LASF260
 2986 124a 05       		.byte	0x5
 2987 124b 1E02     		.2byte	0x21e
 2988 124d B5000000 		.4byte	0xb5
 2989 1251 2805     		.2byte	0x528
 2990 1253 0D       		.uleb128 0xd
 2991 1254 84070000 		.4byte	.LASF261
 2992 1258 05       		.byte	0x5
 2993 1259 1F02     		.2byte	0x21f
 2994 125b B5000000 		.4byte	0xb5
 2995 125f 2C05     		.2byte	0x52c
 2996 1261 0D       		.uleb128 0xd
 2997 1262 7D070000 		.4byte	.LASF262
 2998 1266 05       		.byte	0x5
 2999 1267 2002     		.2byte	0x220
 3000 1269 B5000000 		.4byte	0xb5
 3001 126d 3005     		.2byte	0x530
 3002 126f 0D       		.uleb128 0xd
 3003 1270 ED040000 		.4byte	.LASF263
 3004 1274 05       		.byte	0x5
 3005 1275 2102     		.2byte	0x221
 3006 1277 B5000000 		.4byte	0xb5
 3007 127b 3405     		.2byte	0x534
 3008 127d 15       		.uleb128 0x15
 3009 127e 534900   		.ascii	"SI\000"
 3010 1281 05       		.byte	0x5
 3011 1282 2202     		.2byte	0x222
 3012 1284 B5000000 		.4byte	0xb5
 3013 1288 3805     		.2byte	0x538
ARM GAS  /tmp/ccs6HPrS.s 			page 54


 3014 128a 0D       		.uleb128 0xd
 3015 128b 00000000 		.4byte	.LASF264
 3016 128f 05       		.byte	0x5
 3017 1290 2302     		.2byte	0x223
 3018 1292 B5000000 		.4byte	0xb5
 3019 1296 3C05     		.2byte	0x53c
 3020 1298 0D       		.uleb128 0xd
 3021 1299 BE010000 		.4byte	.LASF265
 3022 129d 05       		.byte	0x5
 3023 129e 2402     		.2byte	0x224
 3024 12a0 B5000000 		.4byte	0xb5
 3025 12a4 4005     		.2byte	0x540
 3026 12a6 0D       		.uleb128 0xd
 3027 12a7 B9020000 		.4byte	.LASF266
 3028 12ab 05       		.byte	0x5
 3029 12ac 2502     		.2byte	0x225
 3030 12ae B5000000 		.4byte	0xb5
 3031 12b2 4405     		.2byte	0x544
 3032 12b4 0D       		.uleb128 0xd
 3033 12b5 CA020000 		.4byte	.LASF267
 3034 12b9 05       		.byte	0x5
 3035 12ba 2602     		.2byte	0x226
 3036 12bc B5000000 		.4byte	0xb5
 3037 12c0 4805     		.2byte	0x548
 3038 12c2 0D       		.uleb128 0xd
 3039 12c3 02030000 		.4byte	.LASF24
 3040 12c7 05       		.byte	0x5
 3041 12c8 2702     		.2byte	0x227
 3042 12ca 06130000 		.4byte	0x1306
 3043 12ce 4C05     		.2byte	0x54c
 3044 12d0 15       		.uleb128 0x15
 3045 12d1 505000   		.ascii	"PP\000"
 3046 12d4 05       		.byte	0x5
 3047 12d5 2802     		.2byte	0x228
 3048 12d7 BA000000 		.4byte	0xba
 3049 12db C00F     		.2byte	0xfc0
 3050 12dd 15       		.uleb128 0x15
 3051 12de 504300   		.ascii	"PC\000"
 3052 12e1 05       		.byte	0x5
 3053 12e2 2902     		.2byte	0x229
 3054 12e4 B5000000 		.4byte	0xb5
 3055 12e8 C40F     		.2byte	0xfc4
 3056 12ea 00       		.byte	0
 3057 12eb 08       		.uleb128 0x8
 3058 12ec F0120000 		.4byte	0x12f0
 3059 12f0 07       		.uleb128 0x7
 3060 12f1 1F010000 		.4byte	0x11f
 3061 12f5 05       		.uleb128 0x5
 3062 12f6 8C000000 		.4byte	0x8c
 3063 12fa 06130000 		.4byte	0x1306
 3064 12fe 16       		.uleb128 0x16
 3065 12ff 9E000000 		.4byte	0x9e
 3066 1303 9C02     		.2byte	0x29c
 3067 1305 00       		.byte	0
 3068 1306 08       		.uleb128 0x8
 3069 1307 0B130000 		.4byte	0x130b
 3070 130b 07       		.uleb128 0x7
ARM GAS  /tmp/ccs6HPrS.s 			page 55


 3071 130c F5120000 		.4byte	0x12f5
 3072 1310 0E       		.uleb128 0xe
 3073 1311 45090000 		.4byte	.LASF268
 3074 1315 05       		.byte	0x5
 3075 1316 2A02     		.2byte	0x22a
 3076 1318 20110000 		.4byte	0x1120
 3077 131c 03       		.uleb128 0x3
 3078 131d 01       		.byte	0x1
 3079 131e 08       		.byte	0x8
 3080 131f 2D030000 		.4byte	.LASF269
 3081 1323 17       		.uleb128 0x17
 3082 1324 34       		.byte	0x34
 3083 1325 06       		.byte	0x6
 3084 1326 29       		.byte	0x29
 3085 1327 C8130000 		.4byte	0x13c8
 3086 132b 0A       		.uleb128 0xa
 3087 132c FE0A0000 		.4byte	.LASF270
 3088 1330 06       		.byte	0x6
 3089 1331 2C       		.byte	0x2c
 3090 1332 8C000000 		.4byte	0x8c
 3091 1336 00       		.byte	0
 3092 1337 0B       		.uleb128 0xb
 3093 1338 64697200 		.ascii	"dir\000"
 3094 133c 06       		.byte	0x6
 3095 133d 2E       		.byte	0x2e
 3096 133e 8C000000 		.4byte	0x8c
 3097 1342 04       		.byte	0x4
 3098 1343 0A       		.uleb128 0xa
 3099 1344 AF050000 		.4byte	.LASF271
 3100 1348 06       		.byte	0x6
 3101 1349 30       		.byte	0x30
 3102 134a 8C000000 		.4byte	0x8c
 3103 134e 08       		.byte	0x8
 3104 134f 0A       		.uleb128 0xa
 3105 1350 E2020000 		.4byte	.LASF272
 3106 1354 06       		.byte	0x6
 3107 1355 32       		.byte	0x32
 3108 1356 8C000000 		.4byte	0x8c
 3109 135a 0C       		.byte	0xc
 3110 135b 0A       		.uleb128 0xa
 3111 135c 69030000 		.4byte	.LASF273
 3112 1360 06       		.byte	0x6
 3113 1361 34       		.byte	0x34
 3114 1362 8C000000 		.4byte	0x8c
 3115 1366 10       		.byte	0x10
 3116 1367 0A       		.uleb128 0xa
 3117 1368 48010000 		.4byte	.LASF274
 3118 136c 06       		.byte	0x6
 3119 136d 36       		.byte	0x36
 3120 136e 8C000000 		.4byte	0x8c
 3121 1372 14       		.byte	0x14
 3122 1373 0B       		.uleb128 0xb
 3123 1374 6F647200 		.ascii	"odr\000"
 3124 1378 06       		.byte	0x6
 3125 1379 38       		.byte	0x38
 3126 137a 8C000000 		.4byte	0x8c
 3127 137e 18       		.byte	0x18
ARM GAS  /tmp/ccs6HPrS.s 			page 56


 3128 137f 0B       		.uleb128 0xb
 3129 1380 70757200 		.ascii	"pur\000"
 3130 1384 06       		.byte	0x6
 3131 1385 3A       		.byte	0x3a
 3132 1386 8C000000 		.4byte	0x8c
 3133 138a 1C       		.byte	0x1c
 3134 138b 0B       		.uleb128 0xb
 3135 138c 70647200 		.ascii	"pdr\000"
 3136 1390 06       		.byte	0x6
 3137 1391 3C       		.byte	0x3c
 3138 1392 8C000000 		.4byte	0x8c
 3139 1396 20       		.byte	0x20
 3140 1397 0B       		.uleb128 0xb
 3141 1398 736C7200 		.ascii	"slr\000"
 3142 139c 06       		.byte	0x6
 3143 139d 3E       		.byte	0x3e
 3144 139e 8C000000 		.4byte	0x8c
 3145 13a2 24       		.byte	0x24
 3146 13a3 0B       		.uleb128 0xb
 3147 13a4 64656E00 		.ascii	"den\000"
 3148 13a8 06       		.byte	0x6
 3149 13a9 40       		.byte	0x40
 3150 13aa 8C000000 		.4byte	0x8c
 3151 13ae 28       		.byte	0x28
 3152 13af 0A       		.uleb128 0xa
 3153 13b0 35010000 		.4byte	.LASF275
 3154 13b4 06       		.byte	0x6
 3155 13b5 42       		.byte	0x42
 3156 13b6 8C000000 		.4byte	0x8c
 3157 13ba 2C       		.byte	0x2c
 3158 13bb 0A       		.uleb128 0xa
 3159 13bc 74040000 		.4byte	.LASF276
 3160 13c0 06       		.byte	0x6
 3161 13c1 44       		.byte	0x44
 3162 13c2 8C000000 		.4byte	0x8c
 3163 13c6 30       		.byte	0x30
 3164 13c7 00       		.byte	0
 3165 13c8 04       		.uleb128 0x4
 3166 13c9 C0060000 		.4byte	.LASF277
 3167 13cd 06       		.byte	0x6
 3168 13ce 45       		.byte	0x45
 3169 13cf 23130000 		.4byte	0x1323
 3170 13d3 09       		.uleb128 0x9
 3171 13d4 0C03     		.2byte	0x30c
 3172 13d6 06       		.byte	0x6
 3173 13d7 4E       		.byte	0x4e
 3174 13d8 9B140000 		.4byte	0x149b
 3175 13dc 0A       		.uleb128 0xa
 3176 13dd DE050000 		.4byte	.LASF278
 3177 13e1 06       		.byte	0x6
 3178 13e2 51       		.byte	0x51
 3179 13e3 C8130000 		.4byte	0x13c8
 3180 13e7 00       		.byte	0
 3181 13e8 0A       		.uleb128 0xa
 3182 13e9 17050000 		.4byte	.LASF279
 3183 13ed 06       		.byte	0x6
 3184 13ee 53       		.byte	0x53
ARM GAS  /tmp/ccs6HPrS.s 			page 57


 3185 13ef C8130000 		.4byte	0x13c8
 3186 13f3 34       		.byte	0x34
 3187 13f4 0A       		.uleb128 0xa
 3188 13f5 EC030000 		.4byte	.LASF280
 3189 13f9 06       		.byte	0x6
 3190 13fa 55       		.byte	0x55
 3191 13fb C8130000 		.4byte	0x13c8
 3192 13ff 68       		.byte	0x68
 3193 1400 0A       		.uleb128 0xa
 3194 1401 15040000 		.4byte	.LASF281
 3195 1405 06       		.byte	0x6
 3196 1406 57       		.byte	0x57
 3197 1407 C8130000 		.4byte	0x13c8
 3198 140b 9C       		.byte	0x9c
 3199 140c 0A       		.uleb128 0xa
 3200 140d A3000000 		.4byte	.LASF282
 3201 1411 06       		.byte	0x6
 3202 1412 59       		.byte	0x59
 3203 1413 C8130000 		.4byte	0x13c8
 3204 1417 D0       		.byte	0xd0
 3205 1418 0C       		.uleb128 0xc
 3206 1419 650A0000 		.4byte	.LASF283
 3207 141d 06       		.byte	0x6
 3208 141e 5B       		.byte	0x5b
 3209 141f C8130000 		.4byte	0x13c8
 3210 1423 0401     		.2byte	0x104
 3211 1425 0C       		.uleb128 0xc
 3212 1426 2E0B0000 		.4byte	.LASF284
 3213 142a 06       		.byte	0x6
 3214 142b 5F       		.byte	0x5f
 3215 142c C8130000 		.4byte	0x13c8
 3216 1430 3801     		.2byte	0x138
 3217 1432 0C       		.uleb128 0xc
 3218 1433 BC050000 		.4byte	.LASF285
 3219 1437 06       		.byte	0x6
 3220 1438 64       		.byte	0x64
 3221 1439 C8130000 		.4byte	0x13c8
 3222 143d 6C01     		.2byte	0x16c
 3223 143f 0C       		.uleb128 0xc
 3224 1440 93010000 		.4byte	.LASF286
 3225 1444 06       		.byte	0x6
 3226 1445 69       		.byte	0x69
 3227 1446 C8130000 		.4byte	0x13c8
 3228 144a A001     		.2byte	0x1a0
 3229 144c 0C       		.uleb128 0xc
 3230 144d 41010000 		.4byte	.LASF287
 3231 1451 06       		.byte	0x6
 3232 1452 6E       		.byte	0x6e
 3233 1453 C8130000 		.4byte	0x13c8
 3234 1457 D401     		.2byte	0x1d4
 3235 1459 0C       		.uleb128 0xc
 3236 145a DE0A0000 		.4byte	.LASF288
 3237 145e 06       		.byte	0x6
 3238 145f 73       		.byte	0x73
 3239 1460 C8130000 		.4byte	0x13c8
 3240 1464 0802     		.2byte	0x208
 3241 1466 0C       		.uleb128 0xc
ARM GAS  /tmp/ccs6HPrS.s 			page 58


 3242 1467 AC080000 		.4byte	.LASF289
 3243 146b 06       		.byte	0x6
 3244 146c 78       		.byte	0x78
 3245 146d C8130000 		.4byte	0x13c8
 3246 1471 3C02     		.2byte	0x23c
 3247 1473 0C       		.uleb128 0xc
 3248 1474 07060000 		.4byte	.LASF290
 3249 1478 06       		.byte	0x6
 3250 1479 7D       		.byte	0x7d
 3251 147a C8130000 		.4byte	0x13c8
 3252 147e 7002     		.2byte	0x270
 3253 1480 0C       		.uleb128 0xc
 3254 1481 BF030000 		.4byte	.LASF291
 3255 1485 06       		.byte	0x6
 3256 1486 82       		.byte	0x82
 3257 1487 C8130000 		.4byte	0x13c8
 3258 148b A402     		.2byte	0x2a4
 3259 148d 0C       		.uleb128 0xc
 3260 148e 3E020000 		.4byte	.LASF292
 3261 1492 06       		.byte	0x6
 3262 1493 87       		.byte	0x87
 3263 1494 C8130000 		.4byte	0x13c8
 3264 1498 D802     		.2byte	0x2d8
 3265 149a 00       		.byte	0
 3266 149b 04       		.uleb128 0x4
 3267 149c 26090000 		.4byte	.LASF293
 3268 14a0 06       		.byte	0x6
 3269 14a1 98       		.byte	0x98
 3270 14a2 D3130000 		.4byte	0x13d3
 3271 14a6 04       		.uleb128 0x4
 3272 14a7 83030000 		.4byte	.LASF294
 3273 14ab 06       		.byte	0x6
 3274 14ac A8       		.byte	0xa8
 3275 14ad 8C000000 		.4byte	0x8c
 3276 14b1 04       		.uleb128 0x4
 3277 14b2 F0000000 		.4byte	.LASF295
 3278 14b6 06       		.byte	0x6
 3279 14b7 AD       		.byte	0xad
 3280 14b8 8C000000 		.4byte	0x8c
 3281 14bc 04       		.uleb128 0x4
 3282 14bd 71010000 		.4byte	.LASF296
 3283 14c1 06       		.byte	0x6
 3284 14c2 B2       		.byte	0xb2
 3285 14c3 C7140000 		.4byte	0x14c7
 3286 14c7 18       		.uleb128 0x18
 3287 14c8 04       		.byte	0x4
 3288 14c9 10130000 		.4byte	0x1310
 3289 14cd 19       		.uleb128 0x19
 3290 14ce A7010000 		.4byte	.LASF308
 3291 14d2 02       		.byte	0x2
 3292 14d3 1E01     		.2byte	0x11e
 3293 14d5 03       		.byte	0x3
 3294 14d6 1A       		.uleb128 0x1a
 3295 14d7 73070000 		.4byte	.LASF309
 3296 14db 01       		.byte	0x1
 3297 14dc 86       		.byte	0x86
 3298 14dd 01       		.byte	0x1
ARM GAS  /tmp/ccs6HPrS.s 			page 59


 3299 14de F9140000 		.4byte	0x14f9
 3300 14e2 1B       		.uleb128 0x1b
 3301 14e3 64000000 		.4byte	.LASF297
 3302 14e7 01       		.byte	0x1
 3303 14e8 86       		.byte	0x86
 3304 14e9 C7140000 		.4byte	0x14c7
 3305 14ed 1B       		.uleb128 0x1b
 3306 14ee 95000000 		.4byte	.LASF298
 3307 14f2 01       		.byte	0x1
 3308 14f3 86       		.byte	0x86
 3309 14f4 F9140000 		.4byte	0x14f9
 3310 14f8 00       		.byte	0
 3311 14f9 18       		.uleb128 0x18
 3312 14fa 04       		.byte	0x4
 3313 14fb FF140000 		.4byte	0x14ff
 3314 14ff 08       		.uleb128 0x8
 3315 1500 C8130000 		.4byte	0x13c8
 3316 1504 1C       		.uleb128 0x1c
 3317 1505 D6140000 		.4byte	0x14d6
 3318 1509 00000000 		.4byte	.LFB118
 3319 150d 62000000 		.4byte	.LFE118-.LFB118
 3320 1511 01       		.uleb128 0x1
 3321 1512 9C       		.byte	0x9c
 3322 1513 28150000 		.4byte	0x1528
 3323 1517 1D       		.uleb128 0x1d
 3324 1518 E2140000 		.4byte	0x14e2
 3325 151c 01       		.uleb128 0x1
 3326 151d 50       		.byte	0x50
 3327 151e 1E       		.uleb128 0x1e
 3328 151f ED140000 		.4byte	0x14ed
 3329 1523 00000000 		.4byte	.LLST0
 3330 1527 00       		.byte	0
 3331 1528 1F       		.uleb128 0x1f
 3332 1529 38050000 		.4byte	.LASF299
 3333 152d 01       		.byte	0x1
 3334 152e A8       		.byte	0xa8
 3335 152f 00000000 		.4byte	.LFB119
 3336 1533 64060000 		.4byte	.LFE119-.LFB119
 3337 1537 01       		.uleb128 0x1
 3338 1538 9C       		.byte	0x9c
 3339 1539 B9170000 		.4byte	0x17b9
 3340 153d 20       		.uleb128 0x20
 3341 153e 95000000 		.4byte	.LASF298
 3342 1542 01       		.byte	0x1
 3343 1543 A8       		.byte	0xa8
 3344 1544 B9170000 		.4byte	0x17b9
 3345 1548 01       		.uleb128 0x1
 3346 1549 50       		.byte	0x50
 3347 154a 21       		.uleb128 0x21
 3348 154b CD140000 		.4byte	0x14cd
 3349 154f 0C000000 		.4byte	.LBB38
 3350 1553 02000000 		.4byte	.LBE38-.LBB38
 3351 1557 01       		.byte	0x1
 3352 1558 AC       		.byte	0xac
 3353 1559 21       		.uleb128 0x21
 3354 155a CD140000 		.4byte	0x14cd
 3355 155e 0E000000 		.4byte	.LBB40
ARM GAS  /tmp/ccs6HPrS.s 			page 60


 3356 1562 02000000 		.4byte	.LBE40-.LBB40
 3357 1566 01       		.byte	0x1
 3358 1567 AD       		.byte	0xad
 3359 1568 21       		.uleb128 0x21
 3360 1569 CD140000 		.4byte	0x14cd
 3361 156d 10000000 		.4byte	.LBB42
 3362 1571 02000000 		.4byte	.LBE42-.LBB42
 3363 1575 01       		.byte	0x1
 3364 1576 AE       		.byte	0xae
 3365 1577 22       		.uleb128 0x22
 3366 1578 D6140000 		.4byte	0x14d6
 3367 157c 12000000 		.4byte	.LBB44
 3368 1580 52000000 		.4byte	.LBE44-.LBB44
 3369 1584 01       		.byte	0x1
 3370 1585 B0       		.byte	0xb0
 3371 1586 9B150000 		.4byte	0x159b
 3372 158a 1D       		.uleb128 0x1d
 3373 158b ED140000 		.4byte	0x14ed
 3374 158f 01       		.uleb128 0x1
 3375 1590 50       		.byte	0x50
 3376 1591 23       		.uleb128 0x23
 3377 1592 E2140000 		.4byte	0x14e2
 3378 1596 00800540 		.4byte	0x40058000
 3379 159a 00       		.byte	0
 3380 159b 24       		.uleb128 0x24
 3381 159c D6140000 		.4byte	0x14d6
 3382 15a0 64000000 		.4byte	.LBB46
 3383 15a4 00000000 		.4byte	.Ldebug_ranges0+0
 3384 15a8 01       		.byte	0x1
 3385 15a9 B2       		.byte	0xb2
 3386 15aa C1150000 		.4byte	0x15c1
 3387 15ae 1D       		.uleb128 0x1d
 3388 15af ED140000 		.4byte	0x14ed
 3389 15b3 03       		.uleb128 0x3
 3390 15b4 70       		.byte	0x70
 3391 15b5 34       		.sleb128 52
 3392 15b6 9F       		.byte	0x9f
 3393 15b7 23       		.uleb128 0x23
 3394 15b8 E2140000 		.4byte	0x14e2
 3395 15bc 00900540 		.4byte	0x40059000
 3396 15c0 00       		.byte	0
 3397 15c1 22       		.uleb128 0x22
 3398 15c2 D6140000 		.4byte	0x14d6
 3399 15c6 C2000000 		.4byte	.LBB52
 3400 15ca 5C000000 		.4byte	.LBE52-.LBB52
 3401 15ce 01       		.byte	0x1
 3402 15cf B6       		.byte	0xb6
 3403 15d0 E8150000 		.4byte	0x15e8
 3404 15d4 1D       		.uleb128 0x1d
 3405 15d5 ED140000 		.4byte	0x14ed
 3406 15d9 04       		.uleb128 0x4
 3407 15da 70       		.byte	0x70
 3408 15db E800     		.sleb128 104
 3409 15dd 9F       		.byte	0x9f
 3410 15de 23       		.uleb128 0x23
 3411 15df E2140000 		.4byte	0x14e2
 3412 15e3 00A00540 		.4byte	0x4005a000
ARM GAS  /tmp/ccs6HPrS.s 			page 61


 3413 15e7 00       		.byte	0
 3414 15e8 22       		.uleb128 0x22
 3415 15e9 D6140000 		.4byte	0x14d6
 3416 15ed 24010000 		.4byte	.LBB54
 3417 15f1 6C000000 		.4byte	.LBE54-.LBB54
 3418 15f5 01       		.byte	0x1
 3419 15f6 B9       		.byte	0xb9
 3420 15f7 0F160000 		.4byte	0x160f
 3421 15fb 1D       		.uleb128 0x1d
 3422 15fc ED140000 		.4byte	0x14ed
 3423 1600 04       		.uleb128 0x4
 3424 1601 70       		.byte	0x70
 3425 1602 9C01     		.sleb128 156
 3426 1604 9F       		.byte	0x9f
 3427 1605 23       		.uleb128 0x23
 3428 1606 E2140000 		.4byte	0x14e2
 3429 160a 00B00540 		.4byte	0x4005b000
 3430 160e 00       		.byte	0
 3431 160f 24       		.uleb128 0x24
 3432 1610 D6140000 		.4byte	0x14d6
 3433 1614 90010000 		.4byte	.LBB56
 3434 1618 20000000 		.4byte	.Ldebug_ranges0+0x20
 3435 161c 01       		.byte	0x1
 3436 161d BB       		.byte	0xbb
 3437 161e 36160000 		.4byte	0x1636
 3438 1622 1D       		.uleb128 0x1d
 3439 1623 ED140000 		.4byte	0x14ed
 3440 1627 04       		.uleb128 0x4
 3441 1628 70       		.byte	0x70
 3442 1629 D001     		.sleb128 208
 3443 162b 9F       		.byte	0x9f
 3444 162c 23       		.uleb128 0x23
 3445 162d E2140000 		.4byte	0x14e2
 3446 1631 00C00540 		.4byte	0x4005c000
 3447 1635 00       		.byte	0
 3448 1636 22       		.uleb128 0x22
 3449 1637 D6140000 		.4byte	0x14d6
 3450 163b 04020000 		.4byte	.LBB60
 3451 163f 68000000 		.4byte	.LBE60-.LBB60
 3452 1643 01       		.byte	0x1
 3453 1644 BF       		.byte	0xbf
 3454 1645 5D160000 		.4byte	0x165d
 3455 1649 1D       		.uleb128 0x1d
 3456 164a ED140000 		.4byte	0x14ed
 3457 164e 04       		.uleb128 0x4
 3458 164f 70       		.byte	0x70
 3459 1650 8402     		.sleb128 260
 3460 1652 9F       		.byte	0x9f
 3461 1653 23       		.uleb128 0x23
 3462 1654 E2140000 		.4byte	0x14e2
 3463 1658 00D00540 		.4byte	0x4005d000
 3464 165c 00       		.byte	0
 3465 165d 24       		.uleb128 0x24
 3466 165e D6140000 		.4byte	0x14d6
 3467 1662 6C020000 		.4byte	.LBB62
 3468 1666 38000000 		.4byte	.Ldebug_ranges0+0x38
 3469 166a 01       		.byte	0x1
ARM GAS  /tmp/ccs6HPrS.s 			page 62


 3470 166b C3       		.byte	0xc3
 3471 166c 84160000 		.4byte	0x1684
 3472 1670 1D       		.uleb128 0x1d
 3473 1671 ED140000 		.4byte	0x14ed
 3474 1675 04       		.uleb128 0x4
 3475 1676 70       		.byte	0x70
 3476 1677 B802     		.sleb128 312
 3477 1679 9F       		.byte	0x9f
 3478 167a 23       		.uleb128 0x23
 3479 167b E2140000 		.4byte	0x14e2
 3480 167f 00E00540 		.4byte	0x4005e000
 3481 1683 00       		.byte	0
 3482 1684 22       		.uleb128 0x22
 3483 1685 D6140000 		.4byte	0x14d6
 3484 1689 DA020000 		.4byte	.LBB66
 3485 168d 6A000000 		.4byte	.LBE66-.LBB66
 3486 1691 01       		.byte	0x1
 3487 1692 C7       		.byte	0xc7
 3488 1693 AB160000 		.4byte	0x16ab
 3489 1697 1D       		.uleb128 0x1d
 3490 1698 ED140000 		.4byte	0x14ed
 3491 169c 04       		.uleb128 0x4
 3492 169d 70       		.byte	0x70
 3493 169e EC02     		.sleb128 364
 3494 16a0 9F       		.byte	0x9f
 3495 16a1 23       		.uleb128 0x23
 3496 16a2 E2140000 		.4byte	0x14e2
 3497 16a6 00F00540 		.4byte	0x4005f000
 3498 16aa 00       		.byte	0
 3499 16ab 24       		.uleb128 0x24
 3500 16ac D6140000 		.4byte	0x14d6
 3501 16b0 44030000 		.4byte	.LBB68
 3502 16b4 50000000 		.4byte	.Ldebug_ranges0+0x50
 3503 16b8 01       		.byte	0x1
 3504 16b9 CB       		.byte	0xcb
 3505 16ba D2160000 		.4byte	0x16d2
 3506 16be 1D       		.uleb128 0x1d
 3507 16bf ED140000 		.4byte	0x14ed
 3508 16c3 04       		.uleb128 0x4
 3509 16c4 70       		.byte	0x70
 3510 16c5 A003     		.sleb128 416
 3511 16c7 9F       		.byte	0x9f
 3512 16c8 23       		.uleb128 0x23
 3513 16c9 E2140000 		.4byte	0x14e2
 3514 16cd 00000640 		.4byte	0x40060000
 3515 16d1 00       		.byte	0
 3516 16d2 24       		.uleb128 0x24
 3517 16d3 D6140000 		.4byte	0x14d6
 3518 16d7 D0030000 		.4byte	.LBB71
 3519 16db 68000000 		.4byte	.Ldebug_ranges0+0x68
 3520 16df 01       		.byte	0x1
 3521 16e0 CF       		.byte	0xcf
 3522 16e1 F9160000 		.4byte	0x16f9
 3523 16e5 1D       		.uleb128 0x1d
 3524 16e6 ED140000 		.4byte	0x14ed
 3525 16ea 04       		.uleb128 0x4
 3526 16eb 70       		.byte	0x70
ARM GAS  /tmp/ccs6HPrS.s 			page 63


 3527 16ec D403     		.sleb128 468
 3528 16ee 9F       		.byte	0x9f
 3529 16ef 23       		.uleb128 0x23
 3530 16f0 E2140000 		.4byte	0x14e2
 3531 16f4 00100640 		.4byte	0x40061000
 3532 16f8 00       		.byte	0
 3533 16f9 22       		.uleb128 0x22
 3534 16fa D6140000 		.4byte	0x14d6
 3535 16fe 3E040000 		.4byte	.LBB76
 3536 1702 6C000000 		.4byte	.LBE76-.LBB76
 3537 1706 01       		.byte	0x1
 3538 1707 D3       		.byte	0xd3
 3539 1708 20170000 		.4byte	0x1720
 3540 170c 1D       		.uleb128 0x1d
 3541 170d ED140000 		.4byte	0x14ed
 3542 1711 04       		.uleb128 0x4
 3543 1712 70       		.byte	0x70
 3544 1713 8804     		.sleb128 520
 3545 1715 9F       		.byte	0x9f
 3546 1716 23       		.uleb128 0x23
 3547 1717 E2140000 		.4byte	0x14e2
 3548 171b 00200640 		.4byte	0x40062000
 3549 171f 00       		.byte	0
 3550 1720 22       		.uleb128 0x22
 3551 1721 D6140000 		.4byte	0x14d6
 3552 1725 AA040000 		.4byte	.LBB78
 3553 1729 6C000000 		.4byte	.LBE78-.LBB78
 3554 172d 01       		.byte	0x1
 3555 172e D7       		.byte	0xd7
 3556 172f 47170000 		.4byte	0x1747
 3557 1733 1D       		.uleb128 0x1d
 3558 1734 ED140000 		.4byte	0x14ed
 3559 1738 04       		.uleb128 0x4
 3560 1739 70       		.byte	0x70
 3561 173a BC04     		.sleb128 572
 3562 173c 9F       		.byte	0x9f
 3563 173d 23       		.uleb128 0x23
 3564 173e E2140000 		.4byte	0x14e2
 3565 1742 00300640 		.4byte	0x40063000
 3566 1746 00       		.byte	0
 3567 1747 22       		.uleb128 0x22
 3568 1748 D6140000 		.4byte	0x14d6
 3569 174c 16050000 		.4byte	.LBB80
 3570 1750 6C000000 		.4byte	.LBE80-.LBB80
 3571 1754 01       		.byte	0x1
 3572 1755 DB       		.byte	0xdb
 3573 1756 6E170000 		.4byte	0x176e
 3574 175a 1D       		.uleb128 0x1d
 3575 175b ED140000 		.4byte	0x14ed
 3576 175f 04       		.uleb128 0x4
 3577 1760 70       		.byte	0x70
 3578 1761 F004     		.sleb128 624
 3579 1763 9F       		.byte	0x9f
 3580 1764 23       		.uleb128 0x23
 3581 1765 E2140000 		.4byte	0x14e2
 3582 1769 00400640 		.4byte	0x40064000
 3583 176d 00       		.byte	0
ARM GAS  /tmp/ccs6HPrS.s 			page 64


 3584 176e 22       		.uleb128 0x22
 3585 176f D6140000 		.4byte	0x14d6
 3586 1773 82050000 		.4byte	.LBB82
 3587 1777 6C000000 		.4byte	.LBE82-.LBB82
 3588 177b 01       		.byte	0x1
 3589 177c DF       		.byte	0xdf
 3590 177d 95170000 		.4byte	0x1795
 3591 1781 1D       		.uleb128 0x1d
 3592 1782 ED140000 		.4byte	0x14ed
 3593 1786 04       		.uleb128 0x4
 3594 1787 70       		.byte	0x70
 3595 1788 A405     		.sleb128 676
 3596 178a 9F       		.byte	0x9f
 3597 178b 23       		.uleb128 0x23
 3598 178c E2140000 		.4byte	0x14e2
 3599 1790 00500640 		.4byte	0x40065000
 3600 1794 00       		.byte	0
 3601 1795 25       		.uleb128 0x25
 3602 1796 D6140000 		.4byte	0x14d6
 3603 179a EE050000 		.4byte	.LBB84
 3604 179e 6C000000 		.4byte	.LBE84-.LBB84
 3605 17a2 01       		.byte	0x1
 3606 17a3 E3       		.byte	0xe3
 3607 17a4 1D       		.uleb128 0x1d
 3608 17a5 ED140000 		.4byte	0x14ed
 3609 17a9 04       		.uleb128 0x4
 3610 17aa 70       		.byte	0x70
 3611 17ab D805     		.sleb128 728
 3612 17ad 9F       		.byte	0x9f
 3613 17ae 23       		.uleb128 0x23
 3614 17af E2140000 		.4byte	0x14e2
 3615 17b3 00600640 		.4byte	0x40066000
 3616 17b7 00       		.byte	0
 3617 17b8 00       		.byte	0
 3618 17b9 18       		.uleb128 0x18
 3619 17ba 04       		.byte	0x4
 3620 17bb BF170000 		.4byte	0x17bf
 3621 17bf 08       		.uleb128 0x8
 3622 17c0 9B140000 		.4byte	0x149b
 3623 17c4 1F       		.uleb128 0x1f
 3624 17c5 F9000000 		.4byte	.LASF300
 3625 17c9 01       		.byte	0x1
 3626 17ca FE       		.byte	0xfe
 3627 17cb 00000000 		.4byte	.LFB120
 3628 17cf 02000000 		.4byte	.LFE120-.LFB120
 3629 17d3 01       		.uleb128 0x1
 3630 17d4 9C       		.byte	0x9c
 3631 17d5 02180000 		.4byte	0x1802
 3632 17d9 20       		.uleb128 0x20
 3633 17da 21040000 		.4byte	.LASF301
 3634 17de 01       		.byte	0x1
 3635 17df FE       		.byte	0xfe
 3636 17e0 BC140000 		.4byte	0x14bc
 3637 17e4 01       		.uleb128 0x1
 3638 17e5 50       		.byte	0x50
 3639 17e6 20       		.uleb128 0x20
 3640 17e7 E2040000 		.4byte	.LASF302
ARM GAS  /tmp/ccs6HPrS.s 			page 65


 3641 17eb 01       		.byte	0x1
 3642 17ec FF       		.byte	0xff
 3643 17ed A6140000 		.4byte	0x14a6
 3644 17f1 01       		.uleb128 0x1
 3645 17f2 51       		.byte	0x51
 3646 17f3 26       		.uleb128 0x26
 3647 17f4 9F080000 		.4byte	.LASF303
 3648 17f8 01       		.byte	0x1
 3649 17f9 0001     		.2byte	0x100
 3650 17fb B1140000 		.4byte	0x14b1
 3651 17ff 01       		.uleb128 0x1
 3652 1800 52       		.byte	0x52
 3653 1801 00       		.byte	0
 3654 1802 27       		.uleb128 0x27
 3655 1803 01050000 		.4byte	.LASF310
 3656 1807 07       		.byte	0x7
 3657 1808 9806     		.2byte	0x698
 3658 180a 0E180000 		.4byte	0x180e
 3659 180e 07       		.uleb128 0x7
 3660 180f 81000000 		.4byte	0x81
 3661 1813 00       		.byte	0
 3662              		.section	.debug_abbrev,"",%progbits
 3663              	.Ldebug_abbrev0:
 3664 0000 01       		.uleb128 0x1
 3665 0001 11       		.uleb128 0x11
 3666 0002 01       		.byte	0x1
 3667 0003 25       		.uleb128 0x25
 3668 0004 0E       		.uleb128 0xe
 3669 0005 13       		.uleb128 0x13
 3670 0006 0B       		.uleb128 0xb
 3671 0007 03       		.uleb128 0x3
 3672 0008 0E       		.uleb128 0xe
 3673 0009 1B       		.uleb128 0x1b
 3674 000a 0E       		.uleb128 0xe
 3675 000b 55       		.uleb128 0x55
 3676 000c 17       		.uleb128 0x17
 3677 000d 11       		.uleb128 0x11
 3678 000e 01       		.uleb128 0x1
 3679 000f 10       		.uleb128 0x10
 3680 0010 17       		.uleb128 0x17
 3681 0011 00       		.byte	0
 3682 0012 00       		.byte	0
 3683 0013 02       		.uleb128 0x2
 3684 0014 24       		.uleb128 0x24
 3685 0015 00       		.byte	0
 3686 0016 0B       		.uleb128 0xb
 3687 0017 0B       		.uleb128 0xb
 3688 0018 3E       		.uleb128 0x3e
 3689 0019 0B       		.uleb128 0xb
 3690 001a 03       		.uleb128 0x3
 3691 001b 08       		.uleb128 0x8
 3692 001c 00       		.byte	0
 3693 001d 00       		.byte	0
 3694 001e 03       		.uleb128 0x3
 3695 001f 24       		.uleb128 0x24
 3696 0020 00       		.byte	0
 3697 0021 0B       		.uleb128 0xb
ARM GAS  /tmp/ccs6HPrS.s 			page 66


 3698 0022 0B       		.uleb128 0xb
 3699 0023 3E       		.uleb128 0x3e
 3700 0024 0B       		.uleb128 0xb
 3701 0025 03       		.uleb128 0x3
 3702 0026 0E       		.uleb128 0xe
 3703 0027 00       		.byte	0
 3704 0028 00       		.byte	0
 3705 0029 04       		.uleb128 0x4
 3706 002a 16       		.uleb128 0x16
 3707 002b 00       		.byte	0
 3708 002c 03       		.uleb128 0x3
 3709 002d 0E       		.uleb128 0xe
 3710 002e 3A       		.uleb128 0x3a
 3711 002f 0B       		.uleb128 0xb
 3712 0030 3B       		.uleb128 0x3b
 3713 0031 0B       		.uleb128 0xb
 3714 0032 49       		.uleb128 0x49
 3715 0033 13       		.uleb128 0x13
 3716 0034 00       		.byte	0
 3717 0035 00       		.byte	0
 3718 0036 05       		.uleb128 0x5
 3719 0037 01       		.uleb128 0x1
 3720 0038 01       		.byte	0x1
 3721 0039 49       		.uleb128 0x49
 3722 003a 13       		.uleb128 0x13
 3723 003b 01       		.uleb128 0x1
 3724 003c 13       		.uleb128 0x13
 3725 003d 00       		.byte	0
 3726 003e 00       		.byte	0
 3727 003f 06       		.uleb128 0x6
 3728 0040 21       		.uleb128 0x21
 3729 0041 00       		.byte	0
 3730 0042 49       		.uleb128 0x49
 3731 0043 13       		.uleb128 0x13
 3732 0044 2F       		.uleb128 0x2f
 3733 0045 0B       		.uleb128 0xb
 3734 0046 00       		.byte	0
 3735 0047 00       		.byte	0
 3736 0048 07       		.uleb128 0x7
 3737 0049 35       		.uleb128 0x35
 3738 004a 00       		.byte	0
 3739 004b 49       		.uleb128 0x49
 3740 004c 13       		.uleb128 0x13
 3741 004d 00       		.byte	0
 3742 004e 00       		.byte	0
 3743 004f 08       		.uleb128 0x8
 3744 0050 26       		.uleb128 0x26
 3745 0051 00       		.byte	0
 3746 0052 49       		.uleb128 0x49
 3747 0053 13       		.uleb128 0x13
 3748 0054 00       		.byte	0
 3749 0055 00       		.byte	0
 3750 0056 09       		.uleb128 0x9
 3751 0057 13       		.uleb128 0x13
 3752 0058 01       		.byte	0x1
 3753 0059 0B       		.uleb128 0xb
 3754 005a 05       		.uleb128 0x5
ARM GAS  /tmp/ccs6HPrS.s 			page 67


 3755 005b 3A       		.uleb128 0x3a
 3756 005c 0B       		.uleb128 0xb
 3757 005d 3B       		.uleb128 0x3b
 3758 005e 0B       		.uleb128 0xb
 3759 005f 01       		.uleb128 0x1
 3760 0060 13       		.uleb128 0x13
 3761 0061 00       		.byte	0
 3762 0062 00       		.byte	0
 3763 0063 0A       		.uleb128 0xa
 3764 0064 0D       		.uleb128 0xd
 3765 0065 00       		.byte	0
 3766 0066 03       		.uleb128 0x3
 3767 0067 0E       		.uleb128 0xe
 3768 0068 3A       		.uleb128 0x3a
 3769 0069 0B       		.uleb128 0xb
 3770 006a 3B       		.uleb128 0x3b
 3771 006b 0B       		.uleb128 0xb
 3772 006c 49       		.uleb128 0x49
 3773 006d 13       		.uleb128 0x13
 3774 006e 38       		.uleb128 0x38
 3775 006f 0B       		.uleb128 0xb
 3776 0070 00       		.byte	0
 3777 0071 00       		.byte	0
 3778 0072 0B       		.uleb128 0xb
 3779 0073 0D       		.uleb128 0xd
 3780 0074 00       		.byte	0
 3781 0075 03       		.uleb128 0x3
 3782 0076 08       		.uleb128 0x8
 3783 0077 3A       		.uleb128 0x3a
 3784 0078 0B       		.uleb128 0xb
 3785 0079 3B       		.uleb128 0x3b
 3786 007a 0B       		.uleb128 0xb
 3787 007b 49       		.uleb128 0x49
 3788 007c 13       		.uleb128 0x13
 3789 007d 38       		.uleb128 0x38
 3790 007e 0B       		.uleb128 0xb
 3791 007f 00       		.byte	0
 3792 0080 00       		.byte	0
 3793 0081 0C       		.uleb128 0xc
 3794 0082 0D       		.uleb128 0xd
 3795 0083 00       		.byte	0
 3796 0084 03       		.uleb128 0x3
 3797 0085 0E       		.uleb128 0xe
 3798 0086 3A       		.uleb128 0x3a
 3799 0087 0B       		.uleb128 0xb
 3800 0088 3B       		.uleb128 0x3b
 3801 0089 0B       		.uleb128 0xb
 3802 008a 49       		.uleb128 0x49
 3803 008b 13       		.uleb128 0x13
 3804 008c 38       		.uleb128 0x38
 3805 008d 05       		.uleb128 0x5
 3806 008e 00       		.byte	0
 3807 008f 00       		.byte	0
 3808 0090 0D       		.uleb128 0xd
 3809 0091 0D       		.uleb128 0xd
 3810 0092 00       		.byte	0
 3811 0093 03       		.uleb128 0x3
ARM GAS  /tmp/ccs6HPrS.s 			page 68


 3812 0094 0E       		.uleb128 0xe
 3813 0095 3A       		.uleb128 0x3a
 3814 0096 0B       		.uleb128 0xb
 3815 0097 3B       		.uleb128 0x3b
 3816 0098 05       		.uleb128 0x5
 3817 0099 49       		.uleb128 0x49
 3818 009a 13       		.uleb128 0x13
 3819 009b 38       		.uleb128 0x38
 3820 009c 05       		.uleb128 0x5
 3821 009d 00       		.byte	0
 3822 009e 00       		.byte	0
 3823 009f 0E       		.uleb128 0xe
 3824 00a0 16       		.uleb128 0x16
 3825 00a1 00       		.byte	0
 3826 00a2 03       		.uleb128 0x3
 3827 00a3 0E       		.uleb128 0xe
 3828 00a4 3A       		.uleb128 0x3a
 3829 00a5 0B       		.uleb128 0xb
 3830 00a6 3B       		.uleb128 0x3b
 3831 00a7 05       		.uleb128 0x5
 3832 00a8 49       		.uleb128 0x49
 3833 00a9 13       		.uleb128 0x13
 3834 00aa 00       		.byte	0
 3835 00ab 00       		.byte	0
 3836 00ac 0F       		.uleb128 0xf
 3837 00ad 13       		.uleb128 0x13
 3838 00ae 01       		.byte	0x1
 3839 00af 0B       		.uleb128 0xb
 3840 00b0 05       		.uleb128 0x5
 3841 00b1 3A       		.uleb128 0x3a
 3842 00b2 0B       		.uleb128 0xb
 3843 00b3 3B       		.uleb128 0x3b
 3844 00b4 05       		.uleb128 0x5
 3845 00b5 01       		.uleb128 0x1
 3846 00b6 13       		.uleb128 0x13
 3847 00b7 00       		.byte	0
 3848 00b8 00       		.byte	0
 3849 00b9 10       		.uleb128 0x10
 3850 00ba 0D       		.uleb128 0xd
 3851 00bb 00       		.byte	0
 3852 00bc 03       		.uleb128 0x3
 3853 00bd 0E       		.uleb128 0xe
 3854 00be 3A       		.uleb128 0x3a
 3855 00bf 0B       		.uleb128 0xb
 3856 00c0 3B       		.uleb128 0x3b
 3857 00c1 05       		.uleb128 0x5
 3858 00c2 49       		.uleb128 0x49
 3859 00c3 13       		.uleb128 0x13
 3860 00c4 38       		.uleb128 0x38
 3861 00c5 0B       		.uleb128 0xb
 3862 00c6 00       		.byte	0
 3863 00c7 00       		.byte	0
 3864 00c8 11       		.uleb128 0x11
 3865 00c9 17       		.uleb128 0x17
 3866 00ca 01       		.byte	0x1
 3867 00cb 0B       		.uleb128 0xb
 3868 00cc 05       		.uleb128 0x5
ARM GAS  /tmp/ccs6HPrS.s 			page 69


 3869 00cd 3A       		.uleb128 0x3a
 3870 00ce 0B       		.uleb128 0xb
 3871 00cf 3B       		.uleb128 0x3b
 3872 00d0 05       		.uleb128 0x5
 3873 00d1 01       		.uleb128 0x1
 3874 00d2 13       		.uleb128 0x13
 3875 00d3 00       		.byte	0
 3876 00d4 00       		.byte	0
 3877 00d5 12       		.uleb128 0x12
 3878 00d6 0D       		.uleb128 0xd
 3879 00d7 00       		.byte	0
 3880 00d8 03       		.uleb128 0x3
 3881 00d9 0E       		.uleb128 0xe
 3882 00da 3A       		.uleb128 0x3a
 3883 00db 0B       		.uleb128 0xb
 3884 00dc 3B       		.uleb128 0x3b
 3885 00dd 05       		.uleb128 0x5
 3886 00de 49       		.uleb128 0x49
 3887 00df 13       		.uleb128 0x13
 3888 00e0 00       		.byte	0
 3889 00e1 00       		.byte	0
 3890 00e2 13       		.uleb128 0x13
 3891 00e3 0D       		.uleb128 0xd
 3892 00e4 00       		.byte	0
 3893 00e5 49       		.uleb128 0x49
 3894 00e6 13       		.uleb128 0x13
 3895 00e7 00       		.byte	0
 3896 00e8 00       		.byte	0
 3897 00e9 14       		.uleb128 0x14
 3898 00ea 0D       		.uleb128 0xd
 3899 00eb 00       		.byte	0
 3900 00ec 49       		.uleb128 0x49
 3901 00ed 13       		.uleb128 0x13
 3902 00ee 38       		.uleb128 0x38
 3903 00ef 0B       		.uleb128 0xb
 3904 00f0 00       		.byte	0
 3905 00f1 00       		.byte	0
 3906 00f2 15       		.uleb128 0x15
 3907 00f3 0D       		.uleb128 0xd
 3908 00f4 00       		.byte	0
 3909 00f5 03       		.uleb128 0x3
 3910 00f6 08       		.uleb128 0x8
 3911 00f7 3A       		.uleb128 0x3a
 3912 00f8 0B       		.uleb128 0xb
 3913 00f9 3B       		.uleb128 0x3b
 3914 00fa 05       		.uleb128 0x5
 3915 00fb 49       		.uleb128 0x49
 3916 00fc 13       		.uleb128 0x13
 3917 00fd 38       		.uleb128 0x38
 3918 00fe 05       		.uleb128 0x5
 3919 00ff 00       		.byte	0
 3920 0100 00       		.byte	0
 3921 0101 16       		.uleb128 0x16
 3922 0102 21       		.uleb128 0x21
 3923 0103 00       		.byte	0
 3924 0104 49       		.uleb128 0x49
 3925 0105 13       		.uleb128 0x13
ARM GAS  /tmp/ccs6HPrS.s 			page 70


 3926 0106 2F       		.uleb128 0x2f
 3927 0107 05       		.uleb128 0x5
 3928 0108 00       		.byte	0
 3929 0109 00       		.byte	0
 3930 010a 17       		.uleb128 0x17
 3931 010b 13       		.uleb128 0x13
 3932 010c 01       		.byte	0x1
 3933 010d 0B       		.uleb128 0xb
 3934 010e 0B       		.uleb128 0xb
 3935 010f 3A       		.uleb128 0x3a
 3936 0110 0B       		.uleb128 0xb
 3937 0111 3B       		.uleb128 0x3b
 3938 0112 0B       		.uleb128 0xb
 3939 0113 01       		.uleb128 0x1
 3940 0114 13       		.uleb128 0x13
 3941 0115 00       		.byte	0
 3942 0116 00       		.byte	0
 3943 0117 18       		.uleb128 0x18
 3944 0118 0F       		.uleb128 0xf
 3945 0119 00       		.byte	0
 3946 011a 0B       		.uleb128 0xb
 3947 011b 0B       		.uleb128 0xb
 3948 011c 49       		.uleb128 0x49
 3949 011d 13       		.uleb128 0x13
 3950 011e 00       		.byte	0
 3951 011f 00       		.byte	0
 3952 0120 19       		.uleb128 0x19
 3953 0121 2E       		.uleb128 0x2e
 3954 0122 00       		.byte	0
 3955 0123 03       		.uleb128 0x3
 3956 0124 0E       		.uleb128 0xe
 3957 0125 3A       		.uleb128 0x3a
 3958 0126 0B       		.uleb128 0xb
 3959 0127 3B       		.uleb128 0x3b
 3960 0128 05       		.uleb128 0x5
 3961 0129 27       		.uleb128 0x27
 3962 012a 19       		.uleb128 0x19
 3963 012b 20       		.uleb128 0x20
 3964 012c 0B       		.uleb128 0xb
 3965 012d 00       		.byte	0
 3966 012e 00       		.byte	0
 3967 012f 1A       		.uleb128 0x1a
 3968 0130 2E       		.uleb128 0x2e
 3969 0131 01       		.byte	0x1
 3970 0132 3F       		.uleb128 0x3f
 3971 0133 19       		.uleb128 0x19
 3972 0134 03       		.uleb128 0x3
 3973 0135 0E       		.uleb128 0xe
 3974 0136 3A       		.uleb128 0x3a
 3975 0137 0B       		.uleb128 0xb
 3976 0138 3B       		.uleb128 0x3b
 3977 0139 0B       		.uleb128 0xb
 3978 013a 27       		.uleb128 0x27
 3979 013b 19       		.uleb128 0x19
 3980 013c 20       		.uleb128 0x20
 3981 013d 0B       		.uleb128 0xb
 3982 013e 01       		.uleb128 0x1
ARM GAS  /tmp/ccs6HPrS.s 			page 71


 3983 013f 13       		.uleb128 0x13
 3984 0140 00       		.byte	0
 3985 0141 00       		.byte	0
 3986 0142 1B       		.uleb128 0x1b
 3987 0143 05       		.uleb128 0x5
 3988 0144 00       		.byte	0
 3989 0145 03       		.uleb128 0x3
 3990 0146 0E       		.uleb128 0xe
 3991 0147 3A       		.uleb128 0x3a
 3992 0148 0B       		.uleb128 0xb
 3993 0149 3B       		.uleb128 0x3b
 3994 014a 0B       		.uleb128 0xb
 3995 014b 49       		.uleb128 0x49
 3996 014c 13       		.uleb128 0x13
 3997 014d 00       		.byte	0
 3998 014e 00       		.byte	0
 3999 014f 1C       		.uleb128 0x1c
 4000 0150 2E       		.uleb128 0x2e
 4001 0151 01       		.byte	0x1
 4002 0152 31       		.uleb128 0x31
 4003 0153 13       		.uleb128 0x13
 4004 0154 11       		.uleb128 0x11
 4005 0155 01       		.uleb128 0x1
 4006 0156 12       		.uleb128 0x12
 4007 0157 06       		.uleb128 0x6
 4008 0158 40       		.uleb128 0x40
 4009 0159 18       		.uleb128 0x18
 4010 015a 9742     		.uleb128 0x2117
 4011 015c 19       		.uleb128 0x19
 4012 015d 01       		.uleb128 0x1
 4013 015e 13       		.uleb128 0x13
 4014 015f 00       		.byte	0
 4015 0160 00       		.byte	0
 4016 0161 1D       		.uleb128 0x1d
 4017 0162 05       		.uleb128 0x5
 4018 0163 00       		.byte	0
 4019 0164 31       		.uleb128 0x31
 4020 0165 13       		.uleb128 0x13
 4021 0166 02       		.uleb128 0x2
 4022 0167 18       		.uleb128 0x18
 4023 0168 00       		.byte	0
 4024 0169 00       		.byte	0
 4025 016a 1E       		.uleb128 0x1e
 4026 016b 05       		.uleb128 0x5
 4027 016c 00       		.byte	0
 4028 016d 31       		.uleb128 0x31
 4029 016e 13       		.uleb128 0x13
 4030 016f 02       		.uleb128 0x2
 4031 0170 17       		.uleb128 0x17
 4032 0171 00       		.byte	0
 4033 0172 00       		.byte	0
 4034 0173 1F       		.uleb128 0x1f
 4035 0174 2E       		.uleb128 0x2e
 4036 0175 01       		.byte	0x1
 4037 0176 3F       		.uleb128 0x3f
 4038 0177 19       		.uleb128 0x19
 4039 0178 03       		.uleb128 0x3
ARM GAS  /tmp/ccs6HPrS.s 			page 72


 4040 0179 0E       		.uleb128 0xe
 4041 017a 3A       		.uleb128 0x3a
 4042 017b 0B       		.uleb128 0xb
 4043 017c 3B       		.uleb128 0x3b
 4044 017d 0B       		.uleb128 0xb
 4045 017e 27       		.uleb128 0x27
 4046 017f 19       		.uleb128 0x19
 4047 0180 11       		.uleb128 0x11
 4048 0181 01       		.uleb128 0x1
 4049 0182 12       		.uleb128 0x12
 4050 0183 06       		.uleb128 0x6
 4051 0184 40       		.uleb128 0x40
 4052 0185 18       		.uleb128 0x18
 4053 0186 9742     		.uleb128 0x2117
 4054 0188 19       		.uleb128 0x19
 4055 0189 01       		.uleb128 0x1
 4056 018a 13       		.uleb128 0x13
 4057 018b 00       		.byte	0
 4058 018c 00       		.byte	0
 4059 018d 20       		.uleb128 0x20
 4060 018e 05       		.uleb128 0x5
 4061 018f 00       		.byte	0
 4062 0190 03       		.uleb128 0x3
 4063 0191 0E       		.uleb128 0xe
 4064 0192 3A       		.uleb128 0x3a
 4065 0193 0B       		.uleb128 0xb
 4066 0194 3B       		.uleb128 0x3b
 4067 0195 0B       		.uleb128 0xb
 4068 0196 49       		.uleb128 0x49
 4069 0197 13       		.uleb128 0x13
 4070 0198 02       		.uleb128 0x2
 4071 0199 18       		.uleb128 0x18
 4072 019a 00       		.byte	0
 4073 019b 00       		.byte	0
 4074 019c 21       		.uleb128 0x21
 4075 019d 1D       		.uleb128 0x1d
 4076 019e 00       		.byte	0
 4077 019f 31       		.uleb128 0x31
 4078 01a0 13       		.uleb128 0x13
 4079 01a1 11       		.uleb128 0x11
 4080 01a2 01       		.uleb128 0x1
 4081 01a3 12       		.uleb128 0x12
 4082 01a4 06       		.uleb128 0x6
 4083 01a5 58       		.uleb128 0x58
 4084 01a6 0B       		.uleb128 0xb
 4085 01a7 59       		.uleb128 0x59
 4086 01a8 0B       		.uleb128 0xb
 4087 01a9 00       		.byte	0
 4088 01aa 00       		.byte	0
 4089 01ab 22       		.uleb128 0x22
 4090 01ac 1D       		.uleb128 0x1d
 4091 01ad 01       		.byte	0x1
 4092 01ae 31       		.uleb128 0x31
 4093 01af 13       		.uleb128 0x13
 4094 01b0 11       		.uleb128 0x11
 4095 01b1 01       		.uleb128 0x1
 4096 01b2 12       		.uleb128 0x12
ARM GAS  /tmp/ccs6HPrS.s 			page 73


 4097 01b3 06       		.uleb128 0x6
 4098 01b4 58       		.uleb128 0x58
 4099 01b5 0B       		.uleb128 0xb
 4100 01b6 59       		.uleb128 0x59
 4101 01b7 0B       		.uleb128 0xb
 4102 01b8 01       		.uleb128 0x1
 4103 01b9 13       		.uleb128 0x13
 4104 01ba 00       		.byte	0
 4105 01bb 00       		.byte	0
 4106 01bc 23       		.uleb128 0x23
 4107 01bd 05       		.uleb128 0x5
 4108 01be 00       		.byte	0
 4109 01bf 31       		.uleb128 0x31
 4110 01c0 13       		.uleb128 0x13
 4111 01c1 1C       		.uleb128 0x1c
 4112 01c2 06       		.uleb128 0x6
 4113 01c3 00       		.byte	0
 4114 01c4 00       		.byte	0
 4115 01c5 24       		.uleb128 0x24
 4116 01c6 1D       		.uleb128 0x1d
 4117 01c7 01       		.byte	0x1
 4118 01c8 31       		.uleb128 0x31
 4119 01c9 13       		.uleb128 0x13
 4120 01ca 52       		.uleb128 0x52
 4121 01cb 01       		.uleb128 0x1
 4122 01cc 55       		.uleb128 0x55
 4123 01cd 17       		.uleb128 0x17
 4124 01ce 58       		.uleb128 0x58
 4125 01cf 0B       		.uleb128 0xb
 4126 01d0 59       		.uleb128 0x59
 4127 01d1 0B       		.uleb128 0xb
 4128 01d2 01       		.uleb128 0x1
 4129 01d3 13       		.uleb128 0x13
 4130 01d4 00       		.byte	0
 4131 01d5 00       		.byte	0
 4132 01d6 25       		.uleb128 0x25
 4133 01d7 1D       		.uleb128 0x1d
 4134 01d8 01       		.byte	0x1
 4135 01d9 31       		.uleb128 0x31
 4136 01da 13       		.uleb128 0x13
 4137 01db 11       		.uleb128 0x11
 4138 01dc 01       		.uleb128 0x1
 4139 01dd 12       		.uleb128 0x12
 4140 01de 06       		.uleb128 0x6
 4141 01df 58       		.uleb128 0x58
 4142 01e0 0B       		.uleb128 0xb
 4143 01e1 59       		.uleb128 0x59
 4144 01e2 0B       		.uleb128 0xb
 4145 01e3 00       		.byte	0
 4146 01e4 00       		.byte	0
 4147 01e5 26       		.uleb128 0x26
 4148 01e6 05       		.uleb128 0x5
 4149 01e7 00       		.byte	0
 4150 01e8 03       		.uleb128 0x3
 4151 01e9 0E       		.uleb128 0xe
 4152 01ea 3A       		.uleb128 0x3a
 4153 01eb 0B       		.uleb128 0xb
ARM GAS  /tmp/ccs6HPrS.s 			page 74


 4154 01ec 3B       		.uleb128 0x3b
 4155 01ed 05       		.uleb128 0x5
 4156 01ee 49       		.uleb128 0x49
 4157 01ef 13       		.uleb128 0x13
 4158 01f0 02       		.uleb128 0x2
 4159 01f1 18       		.uleb128 0x18
 4160 01f2 00       		.byte	0
 4161 01f3 00       		.byte	0
 4162 01f4 27       		.uleb128 0x27
 4163 01f5 34       		.uleb128 0x34
 4164 01f6 00       		.byte	0
 4165 01f7 03       		.uleb128 0x3
 4166 01f8 0E       		.uleb128 0xe
 4167 01f9 3A       		.uleb128 0x3a
 4168 01fa 0B       		.uleb128 0xb
 4169 01fb 3B       		.uleb128 0x3b
 4170 01fc 05       		.uleb128 0x5
 4171 01fd 49       		.uleb128 0x49
 4172 01fe 13       		.uleb128 0x13
 4173 01ff 3F       		.uleb128 0x3f
 4174 0200 19       		.uleb128 0x19
 4175 0201 3C       		.uleb128 0x3c
 4176 0202 19       		.uleb128 0x19
 4177 0203 00       		.byte	0
 4178 0204 00       		.byte	0
 4179 0205 00       		.byte	0
 4180              		.section	.debug_loc,"",%progbits
 4181              	.Ldebug_loc0:
 4182              	.LLST0:
 4183 0000 00000000 		.4byte	.LVL0
 4184 0004 2C000000 		.4byte	.LVL1
 4185 0008 0100     		.2byte	0x1
 4186 000a 51       		.byte	0x51
 4187 000b 2C000000 		.4byte	.LVL1
 4188 000f 62000000 		.4byte	.LFE118
 4189 0013 0400     		.2byte	0x4
 4190 0015 F3       		.byte	0xf3
 4191 0016 01       		.uleb128 0x1
 4192 0017 51       		.byte	0x51
 4193 0018 9F       		.byte	0x9f
 4194 0019 00000000 		.4byte	0
 4195 001d 00000000 		.4byte	0
 4196              		.section	.debug_aranges,"",%progbits
 4197 0000 2C000000 		.4byte	0x2c
 4198 0004 0200     		.2byte	0x2
 4199 0006 00000000 		.4byte	.Ldebug_info0
 4200 000a 04       		.byte	0x4
 4201 000b 00       		.byte	0
 4202 000c 0000     		.2byte	0
 4203 000e 0000     		.2byte	0
 4204 0010 00000000 		.4byte	.LFB118
 4205 0014 62000000 		.4byte	.LFE118-.LFB118
 4206 0018 00000000 		.4byte	.LFB119
 4207 001c 64060000 		.4byte	.LFE119-.LFB119
 4208 0020 00000000 		.4byte	.LFB120
 4209 0024 02000000 		.4byte	.LFE120-.LFB120
 4210 0028 00000000 		.4byte	0
ARM GAS  /tmp/ccs6HPrS.s 			page 75


 4211 002c 00000000 		.4byte	0
 4212              		.section	.debug_ranges,"",%progbits
 4213              	.Ldebug_ranges0:
 4214 0000 64000000 		.4byte	.LBB46
 4215 0004 AE000000 		.4byte	.LBE46
 4216 0008 B0000000 		.4byte	.LBB50
 4217 000c B2000000 		.4byte	.LBE50
 4218 0010 B4000000 		.4byte	.LBB51
 4219 0014 B8000000 		.4byte	.LBE51
 4220 0018 00000000 		.4byte	0
 4221 001c 00000000 		.4byte	0
 4222 0020 90010000 		.4byte	.LBB56
 4223 0024 F2010000 		.4byte	.LBE56
 4224 0028 F4010000 		.4byte	.LBB59
 4225 002c FC010000 		.4byte	.LBE59
 4226 0030 00000000 		.4byte	0
 4227 0034 00000000 		.4byte	0
 4228 0038 6C020000 		.4byte	.LBB62
 4229 003c 6E020000 		.4byte	.LBE62
 4230 0040 72020000 		.4byte	.LBB65
 4231 0044 DA020000 		.4byte	.LBE65
 4232 0048 00000000 		.4byte	0
 4233 004c 00000000 		.4byte	0
 4234 0050 44030000 		.4byte	.LBB68
 4235 0054 D0030000 		.4byte	.LBE68
 4236 0058 D2030000 		.4byte	.LBB74
 4237 005c D6030000 		.4byte	.LBE74
 4238 0060 00000000 		.4byte	0
 4239 0064 00000000 		.4byte	0
 4240 0068 D0030000 		.4byte	.LBB71
 4241 006c D2030000 		.4byte	.LBE71
 4242 0070 D6030000 		.4byte	.LBB75
 4243 0074 3E040000 		.4byte	.LBE75
 4244 0078 00000000 		.4byte	0
 4245 007c 00000000 		.4byte	0
 4246 0080 00000000 		.4byte	.LFB118
 4247 0084 62000000 		.4byte	.LFE118
 4248 0088 00000000 		.4byte	.LFB119
 4249 008c 64060000 		.4byte	.LFE119
 4250 0090 00000000 		.4byte	.LFB120
 4251 0094 02000000 		.4byte	.LFE120
 4252 0098 00000000 		.4byte	0
 4253 009c 00000000 		.4byte	0
 4254              		.section	.debug_line,"",%progbits
 4255              	.Ldebug_line0:
 4256 0000 86020000 		.section	.debug_str,"MS",%progbits,1
 4256      02001901 
 4256      00000201 
 4256      FB0E0D00 
 4256      01010101 
 4257              	.LASF264:
 4258 0000 44523132 		.ascii	"DR12R\000"
 4258      5200
 4259              	.LASF14:
 4260 0006 73697A65 		.ascii	"sizetype\000"
 4260      74797065 
 4260      00
ARM GAS  /tmp/ccs6HPrS.s 			page 76


 4261              	.LASF192:
 4262 000f 44434743 		.ascii	"DCGCCAN\000"
 4262      43414E00 
 4263              	.LASF127:
 4264 0017 5352454D 		.ascii	"SREMAC\000"
 4264      414300
 4265              	.LASF114:
 4266 001e 53525553 		.ascii	"SRUSB\000"
 4266      4200
 4267              	.LASF43:
 4268 0024 534C5050 		.ascii	"SLPPWRCFG\000"
 4268      57524346 
 4268      4700
 4269              	.LASF181:
 4270 002e 44434743 		.ascii	"DCGCGPIO\000"
 4270      4750494F 
 4270      00
 4271              	.LASF220:
 4272 0037 50435057 		.ascii	"PCPWM\000"
 4272      4D00
 4273              	.LASF11:
 4274 003d 696E7433 		.ascii	"int32_t\000"
 4274      325F7400 
 4275              	.LASF142:
 4276 0045 52434743 		.ascii	"RCGCCAN\000"
 4276      43414E00 
 4277              	.LASF65:
 4278 004d 43414E30 		.ascii	"CAN0MPC\000"
 4278      4D504300 
 4279              	.LASF171:
 4280 0055 53434743 		.ascii	"SCGCQEI\000"
 4280      51454900 
 4281              	.LASF71:
 4282 005d 50504750 		.ascii	"PPGPIO\000"
 4282      494F00
 4283              	.LASF297:
 4284 0064 6770696F 		.ascii	"gpiop\000"
 4284      7000
 4285              	.LASF206:
 4286 006a 50434750 		.ascii	"PCGPIO\000"
 4286      494F00
 4287              	.LASF154:
 4288 0071 53434743 		.ascii	"SCGCWD\000"
 4288      574400
 4289              	.LASF46:
 4290 0078 4E564D53 		.ascii	"NVMSTAT\000"
 4290      54415400 
 4291              	.LASF92:
 4292 0080 50505754 		.ascii	"PPWTIMER\000"
 4292      494D4552 
 4292      00
 4293              	.LASF109:
 4294 0089 53524849 		.ascii	"SRHIB\000"
 4294      4200
 4295              	.LASF76:
 4296 008f 50505353 		.ascii	"PPSSI\000"
 4296      4900
ARM GAS  /tmp/ccs6HPrS.s 			page 77


 4297              	.LASF298:
 4298 0095 636F6E66 		.ascii	"config\000"
 4298      696700
 4299              	.LASF235:
 4300 009c 50525541 		.ascii	"PRUART\000"
 4300      525400
 4301              	.LASF282:
 4302 00a3 50454461 		.ascii	"PEData\000"
 4302      746100
 4303              	.LASF55:
 4304 00aa 52455342 		.ascii	"RESBEHAVCTL\000"
 4304      45484156 
 4304      43544C00 
 4305              	.LASF236:
 4306 00b6 50525353 		.ascii	"PRSSI\000"
 4306      4900
 4307              	.LASF167:
 4308 00bc 53434743 		.ascii	"SCGCCAN\000"
 4308      43414E00 
 4309              	.LASF35:
 4310 00c4 53595350 		.ascii	"SYSPROP\000"
 4310      524F5000 
 4311              	.LASF253:
 4312 00cc 53595343 		.ascii	"SYSCTL_TypeDef\000"
 4312      544C5F54 
 4312      79706544 
 4312      656600
 4313              	.LASF44:
 4314 00db 44534C50 		.ascii	"DSLPPWRCFG\000"
 4314      50575243 
 4314      464700
 4315              	.LASF31:
 4316 00e6 414C5443 		.ascii	"ALTCLKCFG\000"
 4316      4C4B4346 
 4316      4700
 4317              	.LASF295:
 4318 00f0 696F6D6F 		.ascii	"iomode_t\000"
 4318      64655F74 
 4318      00
 4319              	.LASF300:
 4320 00f9 5F70616C 		.ascii	"_pal_lld_setgroupmode\000"
 4320      5F6C6C64 
 4320      5F736574 
 4320      67726F75 
 4320      706D6F64 
 4321              	.LASF37:
 4322 010f 50494F53 		.ascii	"PIOSCSTAT\000"
 4322      43535441 
 4322      5400
 4323              	.LASF97:
 4324 0119 50504C43 		.ascii	"PPLCD\000"
 4324      4400
 4325              	.LASF189:
 4326 011f 44434743 		.ascii	"DCGCUSB\000"
 4326      55534200 
 4327              	.LASF202:
 4328 0127 44434743 		.ascii	"DCGCEMAC\000"
ARM GAS  /tmp/ccs6HPrS.s 			page 78


 4328      454D4143 
 4328      00
 4329              	.LASF21:
 4330 0130 52455343 		.ascii	"RESC\000"
 4330      00
 4331              	.LASF275:
 4332 0135 616D7365 		.ascii	"amsel\000"
 4332      6C00
 4333              	.LASF120:
 4334 013b 53525057 		.ascii	"SRPWM\000"
 4334      4D00
 4335              	.LASF287:
 4336 0141 504B4461 		.ascii	"PKData\000"
 4336      746100
 4337              	.LASF274:
 4338 0148 64723872 		.ascii	"dr8r\000"
 4338      00
 4339              	.LASF5:
 4340 014d 6C6F6E67 		.ascii	"long int\000"
 4340      20696E74 
 4340      00
 4341              	.LASF73:
 4342 0156 50504550 		.ascii	"PPEPI\000"
 4342      4900
 4343              	.LASF175:
 4344 015c 53434743 		.ascii	"SCGCCCM\000"
 4344      43434D00 
 4345              	.LASF100:
 4346 0164 5050454D 		.ascii	"PPEMAC\000"
 4346      414300
 4347              	.LASF233:
 4348 016b 50524550 		.ascii	"PREPI\000"
 4348      4900
 4349              	.LASF296:
 4350 0171 696F706F 		.ascii	"ioportid_t\000"
 4350      72746964 
 4350      5F7400
 4351              	.LASF89:
 4352 017c 50505045 		.ascii	"PPPECI\000"
 4352      434900
 4353              	.LASF227:
 4354 0183 5043454D 		.ascii	"PCEMAC\000"
 4354      414300
 4355              	.LASF166:
 4356 018a 53434743 		.ascii	"SCGCEPHY\000"
 4356      45504859 
 4356      00
 4357              	.LASF286:
 4358 0193 504A4461 		.ascii	"PJData\000"
 4358      746100
 4359              	.LASF258:
 4360 019a 44523852 		.ascii	"DR8R\000"
 4360      00
 4361              	.LASF41:
 4362 019f 504C4C53 		.ascii	"PLLSTAT\000"
 4362      54415400 
 4363              	.LASF308:
ARM GAS  /tmp/ccs6HPrS.s 			page 79


 4364 01a7 5F5F4E4F 		.ascii	"__NOP\000"
 4364      5000
 4365              	.LASF50:
 4366 01ad 4C444F44 		.ascii	"LDODPCTL\000"
 4366      5043544C 
 4366      00
 4367              	.LASF105:
 4368 01b6 53525449 		.ascii	"SRTIMER\000"
 4368      4D455200 
 4369              	.LASF265:
 4370 01be 57414B45 		.ascii	"WAKEPEN\000"
 4370      50454E00 
 4371              	.LASF1:
 4372 01c6 7369676E 		.ascii	"signed char\000"
 4372      65642063 
 4372      68617200 
 4373              	.LASF251:
 4374 01d2 52455345 		.ascii	"RESERVED56\000"
 4374      52564544 
 4374      353600
 4375              	.LASF86:
 4376 01dd 50505145 		.ascii	"PPQEI\000"
 4376      4900
 4377              	.LASF244:
 4378 01e3 50524143 		.ascii	"PRACMP\000"
 4378      4D5000
 4379              	.LASF306:
 4380 01ea 2F686F6D 		.ascii	"/home/autoscatto/prototipi/git/tiva-chibios2_6/demo"
 4380      652F6175 
 4380      746F7363 
 4380      6174746F 
 4380      2F70726F 
 4381 021d 732F5254 		.ascii	"s/RT-TM4C1294-LAUNCHPAD\000"
 4381      2D544D34 
 4381      43313239 
 4381      342D4C41 
 4381      554E4348 
 4382              	.LASF156:
 4383 0235 53434743 		.ascii	"SCGCGPIO\000"
 4383      4750494F 
 4383      00
 4384              	.LASF292:
 4385 023e 50514461 		.ascii	"PQData\000"
 4385      746100
 4386              	.LASF211:
 4387 0245 50435353 		.ascii	"PCSSI\000"
 4387      4900
 4388              	.LASF246:
 4389 024b 50525145 		.ascii	"PRQEI\000"
 4389      4900
 4390              	.LASF17:
 4391 0251 52455345 		.ascii	"RESERVED0\000"
 4391      52564544 
 4391      3000
 4392              	.LASF19:
 4393 025b 52455345 		.ascii	"RESERVED1\000"
 4393      52564544 
ARM GAS  /tmp/ccs6HPrS.s 			page 80


 4393      3100
 4394              	.LASF2:
 4395 0265 756E7369 		.ascii	"unsigned char\000"
 4395      676E6564 
 4395      20636861 
 4395      7200
 4396              	.LASF26:
 4397 0273 52455345 		.ascii	"RESERVED3\000"
 4397      52564544 
 4397      3300
 4398              	.LASF30:
 4399 027d 52455345 		.ascii	"RESERVED4\000"
 4399      52564544 
 4399      3400
 4400              	.LASF32:
 4401 0287 52455345 		.ascii	"RESERVED5\000"
 4401      52564544 
 4401      3500
 4402              	.LASF38:
 4403 0291 52455345 		.ascii	"RESERVED6\000"
 4403      52564544 
 4403      3600
 4404              	.LASF42:
 4405 029b 52455345 		.ascii	"RESERVED7\000"
 4405      52564544 
 4405      3700
 4406              	.LASF45:
 4407 02a5 52455345 		.ascii	"RESERVED8\000"
 4407      52564544 
 4407      3800
 4408              	.LASF47:
 4409 02af 52455345 		.ascii	"RESERVED9\000"
 4409      52564544 
 4409      3900
 4410              	.LASF266:
 4411 02b9 57414B45 		.ascii	"WAKELVL\000"
 4411      4C564C00 
 4412              	.LASF91:
 4413 02c1 50504545 		.ascii	"PPEEPROM\000"
 4413      50524F4D 
 4413      00
 4414              	.LASF267:
 4415 02ca 57414B45 		.ascii	"WAKESTAT\000"
 4415      53544154 
 4415      00
 4416              	.LASF107:
 4417 02d3 5352444D 		.ascii	"SRDMA\000"
 4417      4100
 4418              	.LASF49:
 4419 02d9 4C444F53 		.ascii	"LDOSPCAL\000"
 4419      5043414C 
 4419      00
 4420              	.LASF272:
 4421 02e2 64723272 		.ascii	"dr2r\000"
 4421      00
 4422              	.LASF110:
 4423 02e7 53525541 		.ascii	"SRUART\000"
ARM GAS  /tmp/ccs6HPrS.s 			page 81


 4423      525400
 4424              	.LASF139:
 4425 02ee 52434743 		.ascii	"RCGCUSB\000"
 4425      55534200 
 4426              	.LASF13:
 4427 02f6 5F426F6F 		.ascii	"_Bool\000"
 4427      6C00
 4428              	.LASF82:
 4429 02fc 50504341 		.ascii	"PPCAN\000"
 4429      4E00
 4430              	.LASF24:
 4431 0302 52455345 		.ascii	"RESERVED2\000"
 4431      52564544 
 4431      3200
 4432              	.LASF28:
 4433 030c 52455345 		.ascii	"RESERVEDx\000"
 4433      52564544 
 4433      7800
 4434              	.LASF144:
 4435 0316 52434743 		.ascii	"RCGCACMP\000"
 4435      41434D50 
 4435      00
 4436              	.LASF29:
 4437 031f 4D454D54 		.ascii	"MEMTIM0\000"
 4437      494D3000 
 4438              	.LASF242:
 4439 0327 50524341 		.ascii	"PRCAN\000"
 4439      4E00
 4440              	.LASF269:
 4441 032d 63686172 		.ascii	"char\000"
 4441      00
 4442              	.LASF184:
 4443 0332 44434743 		.ascii	"DCGCHIB\000"
 4443      48494200 
 4444              	.LASF18:
 4445 033a 50424F52 		.ascii	"PBORCTL\000"
 4445      43544C00 
 4446              	.LASF39:
 4447 0342 504C4C46 		.ascii	"PLLFREQ0\000"
 4447      52455130 
 4447      00
 4448              	.LASF40:
 4449 034b 504C4C46 		.ascii	"PLLFREQ1\000"
 4449      52455131 
 4449      00
 4450              	.LASF254:
 4451 0354 44415441 		.ascii	"DATA\000"
 4451      00
 4452              	.LASF164:
 4453 0359 53434743 		.ascii	"SCGCUSB\000"
 4453      55534200 
 4454              	.LASF134:
 4455 0361 52434743 		.ascii	"RCGCHIB\000"
 4455      48494200 
 4456              	.LASF273:
 4457 0369 64723472 		.ascii	"dr4r\000"
 4457      00
ARM GAS  /tmp/ccs6HPrS.s 			page 82


 4458              	.LASF95:
 4459 036e 50504343 		.ascii	"PPCCM\000"
 4459      4D00
 4460              	.LASF177:
 4461 0374 53434743 		.ascii	"SCGCEMAC\000"
 4461      454D4143 
 4461      00
 4462              	.LASF250:
 4463 037d 50524343 		.ascii	"PRCCM\000"
 4463      4D00
 4464              	.LASF294:
 4465 0383 696F706F 		.ascii	"ioportmask_t\000"
 4465      72746D61 
 4465      736B5F74 
 4465      00
 4466              	.LASF53:
 4467 0390 5344504D 		.ascii	"SDPMST\000"
 4467      535400
 4468              	.LASF239:
 4469 0397 50525553 		.ascii	"PRUSB\000"
 4469      4200
 4470              	.LASF159:
 4471 039d 53434743 		.ascii	"SCGCHIB\000"
 4471      48494200 
 4472              	.LASF195:
 4473 03a5 44434743 		.ascii	"DCGCPWM\000"
 4473      50574D00 
 4474              	.LASF58:
 4475 03ad 52455345 		.ascii	"RESERVED\000"
 4475      52564544 
 4475      00
 4476              	.LASF185:
 4477 03b6 44434743 		.ascii	"DCGCUART\000"
 4477      55415254 
 4477      00
 4478              	.LASF291:
 4479 03bf 50504461 		.ascii	"PPData\000"
 4479      746100
 4480              	.LASF15:
 4481 03c6 44494430 		.ascii	"DID0\000"
 4481      00
 4482              	.LASF16:
 4483 03cb 44494431 		.ascii	"DID1\000"
 4483      00
 4484              	.LASF145:
 4485 03d0 52434743 		.ascii	"RCGCPWM\000"
 4485      50574D00 
 4486              	.LASF119:
 4487 03d8 53524143 		.ascii	"SRACMP\000"
 4487      4D5000
 4488              	.LASF218:
 4489 03df 50434144 		.ascii	"PCADC\000"
 4489      4300
 4490              	.LASF75:
 4491 03e5 50505541 		.ascii	"PPUART\000"
 4491      525400
 4492              	.LASF280:
ARM GAS  /tmp/ccs6HPrS.s 			page 83


 4493 03ec 50434461 		.ascii	"PCData\000"
 4493      746100
 4494              	.LASF168:
 4495 03f3 53434743 		.ascii	"SCGCADC\000"
 4495      41444300 
 4496              	.LASF60:
 4497 03fb 5553424D 		.ascii	"USBMPC\000"
 4497      504300
 4498              	.LASF104:
 4499 0402 53525744 		.ascii	"SRWD\000"
 4499      00
 4500              	.LASF70:
 4501 0407 50505449 		.ascii	"PPTIMER\000"
 4501      4D455200 
 4502              	.LASF212:
 4503 040f 50434932 		.ascii	"PCI2C\000"
 4503      4300
 4504              	.LASF281:
 4505 0415 50444461 		.ascii	"PDData\000"
 4505      746100
 4506              	.LASF23:
 4507 041c 4E4D4943 		.ascii	"NMIC\000"
 4507      00
 4508              	.LASF301:
 4509 0421 706F7274 		.ascii	"port\000"
 4509      00
 4510              	.LASF8:
 4511 0426 6C6F6E67 		.ascii	"long unsigned int\000"
 4511      20756E73 
 4511      69676E65 
 4511      6420696E 
 4511      7400
 4512              	.LASF173:
 4513 0438 53434743 		.ascii	"SCGCEEPROM\000"
 4513      45455052 
 4513      4F4D00
 4514              	.LASF260:
 4515 0443 414D5345 		.ascii	"AMSEL\000"
 4515      4C00
 4516              	.LASF20:
 4517 0449 4D495343 		.ascii	"MISC\000"
 4517      00
 4518              	.LASF170:
 4519 044e 53434743 		.ascii	"SCGCPWM\000"
 4519      50574D00 
 4520              	.LASF101:
 4521 0456 50505052 		.ascii	"PPPRB\000"
 4521      4200
 4522              	.LASF22:
 4523 045c 50575254 		.ascii	"PWRTC\000"
 4523      4300
 4524              	.LASF129:
 4525 0462 52434743 		.ascii	"RCGCWD\000"
 4525      574400
 4526              	.LASF198:
 4527 0469 44434743 		.ascii	"DCGCEEPROM\000"
 4527      45455052 
ARM GAS  /tmp/ccs6HPrS.s 			page 84


 4527      4F4D00
 4528              	.LASF276:
 4529 0474 7063746C 		.ascii	"pctl\000"
 4529      00
 4530              	.LASF64:
 4531 0479 43414E30 		.ascii	"CAN0PDS\000"
 4531      50445300 
 4532              	.LASF79:
 4533 0481 50505553 		.ascii	"PPUSB\000"
 4533      4200
 4534              	.LASF34:
 4535 0487 44495653 		.ascii	"DIVSCLK\000"
 4535      434C4B00 
 4536              	.LASF69:
 4537 048f 50505744 		.ascii	"PPWD\000"
 4537      00
 4538              	.LASF180:
 4539 0494 44434743 		.ascii	"DCGCTIMER\000"
 4539      54494D45 
 4539      5200
 4540              	.LASF7:
 4541 049e 5F5F7569 		.ascii	"__uint32_t\000"
 4541      6E743332 
 4541      5F7400
 4542              	.LASF118:
 4543 04a9 53524144 		.ascii	"SRADC\000"
 4543      4300
 4544              	.LASF27:
 4545 04af 5253434C 		.ascii	"RSCLKCFG\000"
 4545      4B434647 
 4545      00
 4546              	.LASF9:
 4547 04b8 6C6F6E67 		.ascii	"long long int\000"
 4547      206C6F6E 
 4547      6720696E 
 4547      7400
 4548              	.LASF194:
 4549 04c6 44434743 		.ascii	"DCGCACMP\000"
 4549      41434D50 
 4549      00
 4550              	.LASF112:
 4551 04cf 53524932 		.ascii	"SRI2C\000"
 4551      4300
 4552              	.LASF84:
 4553 04d5 50504143 		.ascii	"PPACMP\000"
 4553      4D5000
 4554              	.LASF74:
 4555 04dc 50504849 		.ascii	"PPHIB\000"
 4555      4200
 4556              	.LASF302:
 4557 04e2 6D61736B 		.ascii	"mask\000"
 4557      00
 4558              	.LASF102:
 4559 04e7 50504849 		.ascii	"PPHIM\000"
 4559      4D00
 4560              	.LASF263:
 4561 04ed 444D4143 		.ascii	"DMACTL\000"
ARM GAS  /tmp/ccs6HPrS.s 			page 85


 4561      544C00
 4562              	.LASF234:
 4563 04f4 50524849 		.ascii	"PRHIB\000"
 4563      4200
 4564              	.LASF219:
 4565 04fa 50434143 		.ascii	"PCACMP\000"
 4565      4D5000
 4566              	.LASF310:
 4567 0501 49544D5F 		.ascii	"ITM_RxBuffer\000"
 4567      52784275 
 4567      66666572 
 4567      00
 4568              	.LASF141:
 4569 050e 52434743 		.ascii	"RCGCEPHY\000"
 4569      45504859 
 4569      00
 4570              	.LASF279:
 4571 0517 50424461 		.ascii	"PBData\000"
 4571      746100
 4572              	.LASF179:
 4573 051e 44434743 		.ascii	"DCGCWD\000"
 4573      574400
 4574              	.LASF87:
 4575 0525 50504C50 		.ascii	"PPLPC\000"
 4575      4300
 4576              	.LASF0:
 4577 052b 756E7369 		.ascii	"unsigned int\000"
 4577      676E6564 
 4577      20696E74 
 4577      00
 4578              	.LASF299:
 4579 0538 5F70616C 		.ascii	"_pal_lld_init\000"
 4579      5F6C6C64 
 4579      5F696E69 
 4579      7400
 4580              	.LASF160:
 4581 0546 53434743 		.ascii	"SCGCUART\000"
 4581      55415254 
 4581      00
 4582              	.LASF123:
 4583 054f 53524545 		.ascii	"SREEPROM\000"
 4583      50524F4D 
 4583      00
 4584              	.LASF51:
 4585 0558 4C444F44 		.ascii	"LDODPCAL\000"
 4585      5043414C 
 4585      00
 4586              	.LASF131:
 4587 0561 52434743 		.ascii	"RCGCGPIO\000"
 4587      4750494F 
 4587      00
 4588              	.LASF208:
 4589 056a 50434550 		.ascii	"PCEPI\000"
 4589      4900
 4590              	.LASF130:
 4591 0570 52434743 		.ascii	"RCGCTIMER\000"
 4591      54494D45 
ARM GAS  /tmp/ccs6HPrS.s 			page 86


 4591      5200
 4592              	.LASF223:
 4593 057a 50434545 		.ascii	"PCEEPROM\000"
 4593      50524F4D 
 4593      00
 4594              	.LASF245:
 4595 0583 50525057 		.ascii	"PRPWM\000"
 4595      4D00
 4596              	.LASF148:
 4597 0589 52434743 		.ascii	"RCGCEEPROM\000"
 4597      45455052 
 4597      4F4D00
 4598              	.LASF85:
 4599 0594 50505057 		.ascii	"PPPWM\000"
 4599      4D00
 4600              	.LASF182:
 4601 059a 44434743 		.ascii	"DCGCDMA\000"
 4601      444D4100 
 4602              	.LASF259:
 4603 05a2 4C4F434B 		.ascii	"LOCK\000"
 4603      00
 4604              	.LASF205:
 4605 05a7 50435449 		.ascii	"PCTIMER\000"
 4605      4D455200 
 4606              	.LASF271:
 4607 05af 61667365 		.ascii	"afsel\000"
 4607      6C00
 4608              	.LASF59:
 4609 05b5 55534250 		.ascii	"USBPDS\000"
 4609      445300
 4610              	.LASF285:
 4611 05bc 50484461 		.ascii	"PHData\000"
 4611      746100
 4612              	.LASF256:
 4613 05c3 44523252 		.ascii	"DR2R\000"
 4613      00
 4614              	.LASF111:
 4615 05c8 53525353 		.ascii	"SRSSI\000"
 4615      4900
 4616              	.LASF132:
 4617 05ce 52434743 		.ascii	"RCGCDMA\000"
 4617      444D4100 
 4618              	.LASF62:
 4619 05d6 454D4143 		.ascii	"EMACMPC\000"
 4619      4D504300 
 4620              	.LASF278:
 4621 05de 50414461 		.ascii	"PAData\000"
 4621      746100
 4622              	.LASF221:
 4623 05e5 50435145 		.ascii	"PCQEI\000"
 4623      4900
 4624              	.LASF207:
 4625 05eb 5043444D 		.ascii	"PCDMA\000"
 4625      4100
 4626              	.LASF248:
 4627 05f1 50524545 		.ascii	"PREEPROM\000"
 4627      50524F4D 
ARM GAS  /tmp/ccs6HPrS.s 			page 87


 4627      00
 4628              	.LASF157:
 4629 05fa 53434743 		.ascii	"SCGCDMA\000"
 4629      444D4100 
 4630              	.LASF257:
 4631 0602 44523452 		.ascii	"DR4R\000"
 4631      00
 4632              	.LASF290:
 4633 0607 504E4461 		.ascii	"PNData\000"
 4633      746100
 4634              	.LASF241:
 4635 060e 50524550 		.ascii	"PREPHY\000"
 4635      485900
 4636              	.LASF217:
 4637 0615 50434341 		.ascii	"PCCAN\000"
 4637      4E00
 4638              	.LASF10:
 4639 061b 6C6F6E67 		.ascii	"long long unsigned int\000"
 4639      206C6F6E 
 4639      6720756E 
 4639      7369676E 
 4639      65642069 
 4640              	.LASF152:
 4641 0632 52434743 		.ascii	"RCGCEMAC\000"
 4641      454D4143 
 4641      00
 4642              	.LASF169:
 4643 063b 53434743 		.ascii	"SCGCACMP\000"
 4643      41434D50 
 4643      00
 4644              	.LASF108:
 4645 0644 53524550 		.ascii	"SREPI\000"
 4645      4900
 4646              	.LASF193:
 4647 064a 44434743 		.ascii	"DCGCADC\000"
 4647      41444300 
 4648              	.LASF52:
 4649 0652 52455345 		.ascii	"RESERVED10\000"
 4649      52564544 
 4649      313000
 4650              	.LASF54:
 4651 065d 52455345 		.ascii	"RESERVED11\000"
 4651      52564544 
 4651      313100
 4652              	.LASF56:
 4653 0668 52455345 		.ascii	"RESERVED12\000"
 4653      52564544 
 4653      313200
 4654              	.LASF63:
 4655 0673 52455345 		.ascii	"RESERVED13\000"
 4655      52564544 
 4655      313300
 4656              	.LASF68:
 4657 067e 52455345 		.ascii	"RESERVED14\000"
 4657      52564544 
 4657      313400
 4658              	.LASF78:
ARM GAS  /tmp/ccs6HPrS.s 			page 88


 4659 0689 52455345 		.ascii	"RESERVED15\000"
 4659      52564544 
 4659      313500
 4660              	.LASF80:
 4661 0694 52455345 		.ascii	"RESERVED16\000"
 4661      52564544 
 4661      313600
 4662              	.LASF88:
 4663 069f 52455345 		.ascii	"RESERVED17\000"
 4663      52564544 
 4663      313700
 4664              	.LASF93:
 4665 06aa 52455345 		.ascii	"RESERVED18\000"
 4665      52564544 
 4665      313800
 4666              	.LASF96:
 4667 06b5 52455345 		.ascii	"RESERVED19\000"
 4667      52564544 
 4667      313900
 4668              	.LASF277:
 4669 06c0 74697661 		.ascii	"tiva_gpio_setup_t\000"
 4669      5F677069 
 4669      6F5F7365 
 4669      7475705F 
 4669      7400
 4670              	.LASF187:
 4671 06d2 44434743 		.ascii	"DCGCI2C\000"
 4671      49324300 
 4672              	.LASF143:
 4673 06da 52434743 		.ascii	"RCGCADC\000"
 4673      41444300 
 4674              	.LASF231:
 4675 06e2 50524750 		.ascii	"PRGPIO\000"
 4675      494F00
 4676              	.LASF67:
 4677 06e9 43414E31 		.ascii	"CAN1MPC\000"
 4677      4D504300 
 4678              	.LASF98:
 4679 06f1 52455345 		.ascii	"RESERVED20\000"
 4679      52564544 
 4679      323000
 4680              	.LASF103:
 4681 06fc 52455345 		.ascii	"RESERVED21\000"
 4681      52564544 
 4681      323100
 4682              	.LASF113:
 4683 0707 52455345 		.ascii	"RESERVED22\000"
 4683      52564544 
 4683      323200
 4684              	.LASF115:
 4685 0712 52455345 		.ascii	"RESERVED23\000"
 4685      52564544 
 4685      323300
 4686              	.LASF122:
 4687 071d 52455345 		.ascii	"RESERVED24\000"
 4687      52564544 
 4687      323400
ARM GAS  /tmp/ccs6HPrS.s 			page 89


 4688              	.LASF124:
 4689 0728 52455345 		.ascii	"RESERVED25\000"
 4689      52564544 
 4689      323500
 4690              	.LASF126:
 4691 0733 52455345 		.ascii	"RESERVED26\000"
 4691      52564544 
 4691      323600
 4692              	.LASF128:
 4693 073e 52455345 		.ascii	"RESERVED27\000"
 4693      52564544 
 4693      323700
 4694              	.LASF138:
 4695 0749 52455345 		.ascii	"RESERVED28\000"
 4695      52564544 
 4695      323800
 4696              	.LASF140:
 4697 0754 52455345 		.ascii	"RESERVED29\000"
 4697      52564544 
 4697      323900
 4698              	.LASF137:
 4699 075f 52434743 		.ascii	"RCGCI2C\000"
 4699      49324300 
 4700              	.LASF121:
 4701 0767 53525145 		.ascii	"SRQEI\000"
 4701      4900
 4702              	.LASF225:
 4703 076d 50434343 		.ascii	"PCCCM\000"
 4703      4D00
 4704              	.LASF309:
 4705 0773 6770696F 		.ascii	"gpio_init\000"
 4705      5F696E69 
 4705      7400
 4706              	.LASF262:
 4707 077d 41444343 		.ascii	"ADCCTL\000"
 4707      544C00
 4708              	.LASF261:
 4709 0784 5043544C 		.ascii	"PCTL\000"
 4709      00
 4710              	.LASF147:
 4711 0789 52455345 		.ascii	"RESERVED30\000"
 4711      52564544 
 4711      333000
 4712              	.LASF149:
 4713 0794 52455345 		.ascii	"RESERVED31\000"
 4713      52564544 
 4713      333100
 4714              	.LASF151:
 4715 079f 52455345 		.ascii	"RESERVED32\000"
 4715      52564544 
 4715      333200
 4716              	.LASF153:
 4717 07aa 52455345 		.ascii	"RESERVED33\000"
 4717      52564544 
 4717      333300
 4718              	.LASF163:
 4719 07b5 52455345 		.ascii	"RESERVED34\000"
ARM GAS  /tmp/ccs6HPrS.s 			page 90


 4719      52564544 
 4719      333400
 4720              	.LASF165:
 4721 07c0 52455345 		.ascii	"RESERVED35\000"
 4721      52564544 
 4721      333500
 4722              	.LASF172:
 4723 07cb 52455345 		.ascii	"RESERVED36\000"
 4723      52564544 
 4723      333600
 4724              	.LASF174:
 4725 07d6 52455345 		.ascii	"RESERVED37\000"
 4725      52564544 
 4725      333700
 4726              	.LASF176:
 4727 07e1 52455345 		.ascii	"RESERVED38\000"
 4727      52564544 
 4727      333800
 4728              	.LASF178:
 4729 07ec 52455345 		.ascii	"RESERVED39\000"
 4729      52564544 
 4729      333900
 4730              	.LASF216:
 4731 07f7 50434550 		.ascii	"PCEPHY\000"
 4731      485900
 4732              	.LASF36:
 4733 07fe 50494F53 		.ascii	"PIOSCCAL\000"
 4733      4343414C 
 4733      00
 4734              	.LASF200:
 4735 0807 44434743 		.ascii	"DCGCCCM\000"
 4735      43434D00 
 4736              	.LASF162:
 4737 080f 53434743 		.ascii	"SCGCI2C\000"
 4737      49324300 
 4738              	.LASF117:
 4739 0817 53524341 		.ascii	"SRCAN\000"
 4739      4E00
 4740              	.LASF155:
 4741 081d 53434743 		.ascii	"SCGCTIMER\000"
 4741      54494D45 
 4741      5200
 4742              	.LASF188:
 4743 0827 52455345 		.ascii	"RESERVED40\000"
 4743      52564544 
 4743      343000
 4744              	.LASF190:
 4745 0832 52455345 		.ascii	"RESERVED41\000"
 4745      52564544 
 4745      343100
 4746              	.LASF197:
 4747 083d 52455345 		.ascii	"RESERVED42\000"
 4747      52564544 
 4747      343200
 4748              	.LASF199:
 4749 0848 52455345 		.ascii	"RESERVED43\000"
 4749      52564544 
ARM GAS  /tmp/ccs6HPrS.s 			page 91


 4749      343300
 4750              	.LASF201:
 4751 0853 52455345 		.ascii	"RESERVED44\000"
 4751      52564544 
 4751      343400
 4752              	.LASF203:
 4753 085e 52455345 		.ascii	"RESERVED45\000"
 4753      52564544 
 4753      343500
 4754              	.LASF213:
 4755 0869 52455345 		.ascii	"RESERVED46\000"
 4755      52564544 
 4755      343600
 4756              	.LASF215:
 4757 0874 52455345 		.ascii	"RESERVED47\000"
 4757      52564544 
 4757      343700
 4758              	.LASF222:
 4759 087f 52455345 		.ascii	"RESERVED48\000"
 4759      52564544 
 4759      343800
 4760              	.LASF224:
 4761 088a 52455345 		.ascii	"RESERVED49\000"
 4761      52564544 
 4761      343900
 4762              	.LASF3:
 4763 0895 73686F72 		.ascii	"short int\000"
 4763      7420696E 
 4763      7400
 4764              	.LASF303:
 4765 089f 6D6F6465 		.ascii	"mode\000"
 4765      00
 4766              	.LASF186:
 4767 08a4 44434743 		.ascii	"DCGCSSI\000"
 4767      53534900 
 4768              	.LASF289:
 4769 08ac 504D4461 		.ascii	"PMData\000"
 4769      746100
 4770              	.LASF226:
 4771 08b3 52455345 		.ascii	"RESERVED50\000"
 4771      52564544 
 4771      353000
 4772              	.LASF228:
 4773 08be 52455345 		.ascii	"RESERVED51\000"
 4773      52564544 
 4773      353100
 4774              	.LASF238:
 4775 08c9 52455345 		.ascii	"RESERVED52\000"
 4775      52564544 
 4775      353200
 4776              	.LASF240:
 4777 08d4 52455345 		.ascii	"RESERVED53\000"
 4777      52564544 
 4777      353300
 4778              	.LASF247:
 4779 08df 52455345 		.ascii	"RESERVED54\000"
 4779      52564544 
ARM GAS  /tmp/ccs6HPrS.s 			page 92


 4779      353400
 4780              	.LASF249:
 4781 08ea 52455345 		.ascii	"RESERVED55\000"
 4781      52564544 
 4781      353500
 4782              	.LASF210:
 4783 08f5 50435541 		.ascii	"PCUART\000"
 4783      525400
 4784              	.LASF61:
 4785 08fc 454D4143 		.ascii	"EMACPDS\000"
 4785      50445300 
 4786              	.LASF72:
 4787 0904 5050444D 		.ascii	"PPDMA\000"
 4787      4100
 4788              	.LASF307:
 4789 090a 4D41534B 		.ascii	"MASKED_ACCESS\000"
 4789      45445F41 
 4789      43434553 
 4789      5300
 4790              	.LASF136:
 4791 0918 52434743 		.ascii	"RCGCSSI\000"
 4791      53534900 
 4792              	.LASF232:
 4793 0920 5052444D 		.ascii	"PRDMA\000"
 4793      4100
 4794              	.LASF293:
 4795 0926 50414C43 		.ascii	"PALConfig\000"
 4795      6F6E6669 
 4795      6700
 4796              	.LASF116:
 4797 0930 53524550 		.ascii	"SREPHY\000"
 4797      485900
 4798              	.LASF90:
 4799 0937 50504641 		.ascii	"PPFAN\000"
 4799      4E00
 4800              	.LASF99:
 4801 093d 50504F57 		.ascii	"PPOWIRE\000"
 4801      49524500 
 4802              	.LASF268:
 4803 0945 4750494F 		.ascii	"GPIO_TypeDef\000"
 4803      5F547970 
 4803      65446566 
 4803      00
 4804              	.LASF125:
 4805 0952 53524343 		.ascii	"SRCCM\000"
 4805      4D00
 4806              	.LASF48:
 4807 0958 4C444F53 		.ascii	"LDOSPCTL\000"
 4807      5043544C 
 4807      00
 4808              	.LASF229:
 4809 0961 50525744 		.ascii	"PRWD\000"
 4809      00
 4810              	.LASF150:
 4811 0966 52434743 		.ascii	"RCGCCCM\000"
 4811      43434D00 
 4812              	.LASF255:
ARM GAS  /tmp/ccs6HPrS.s 			page 93


 4813 096e 41465345 		.ascii	"AFSEL\000"
 4813      4C00
 4814              	.LASF230:
 4815 0974 50525449 		.ascii	"PRTIMER\000"
 4815      4D455200 
 4816              	.LASF106:
 4817 097c 53524750 		.ascii	"SRGPIO\000"
 4817      494F00
 4818              	.LASF161:
 4819 0983 53434743 		.ascii	"SCGCSSI\000"
 4819      53534900 
 4820              	.LASF12:
 4821 098b 75696E74 		.ascii	"uint32_t\000"
 4821      33325F74 
 4821      00
 4822              	.LASF214:
 4823 0994 50435553 		.ascii	"PCUSB\000"
 4823      4200
 4824              	.LASF304:
 4825 099a 474E5520 		.ascii	"GNU C 4.8.3 20140820 (release) -mcpu=cortex-m4 -mno"
 4825      4320342E 
 4825      382E3320 
 4825      32303134 
 4825      30383230 
 4826 09cd 2D746875 		.ascii	"-thumb-interwork -mthumb -ggdb -O2 -fomit-frame-poi"
 4826      6D622D69 
 4826      6E746572 
 4826      776F726B 
 4826      202D6D74 
 4827 0a00 6E746572 		.ascii	"nter -falign-functions=16 -ffunction-sections -fdat"
 4827      202D6661 
 4827      6C69676E 
 4827      2D66756E 
 4827      6374696F 
 4828 0a33 612D7365 		.ascii	"a-sections -fno-common\000"
 4828      6374696F 
 4828      6E73202D 
 4828      666E6F2D 
 4828      636F6D6D 
 4829              	.LASF94:
 4830 0a4a 50505254 		.ascii	"PPRTS\000"
 4830      5300
 4831              	.LASF183:
 4832 0a50 44434743 		.ascii	"DCGCEPI\000"
 4832      45504900 
 4833              	.LASF25:
 4834 0a58 4D4F5343 		.ascii	"MOSCCTL\000"
 4834      43544C00 
 4835              	.LASF57:
 4836 0a60 48535352 		.ascii	"HSSR\000"
 4836      00
 4837              	.LASF283:
 4838 0a65 50464461 		.ascii	"PFData\000"
 4838      746100
 4839              	.LASF305:
 4840 0a6c 2E2E2F2E 		.ascii	"../../os/hal/platforms/TM4C129x/pal_lld.c\000"
 4840      2E2F6F73 
ARM GAS  /tmp/ccs6HPrS.s 			page 94


 4840      2F68616C 
 4840      2F706C61 
 4840      74666F72 
 4841              	.LASF135:
 4842 0a96 52434743 		.ascii	"RCGCUART\000"
 4842      55415254 
 4842      00
 4843              	.LASF133:
 4844 0a9f 52434743 		.ascii	"RCGCEPI\000"
 4844      45504900 
 4845              	.LASF4:
 4846 0aa7 73686F72 		.ascii	"short unsigned int\000"
 4846      7420756E 
 4846      7369676E 
 4846      65642069 
 4846      6E7400
 4847              	.LASF83:
 4848 0aba 50504144 		.ascii	"PPADC\000"
 4848      4300
 4849              	.LASF6:
 4850 0ac0 5F5F696E 		.ascii	"__int32_t\000"
 4850      7433325F 
 4850      7400
 4851              	.LASF66:
 4852 0aca 43414E31 		.ascii	"CAN1PDS\000"
 4852      50445300 
 4853              	.LASF209:
 4854 0ad2 50434849 		.ascii	"PCHIB\000"
 4854      4200
 4855              	.LASF243:
 4856 0ad8 50524144 		.ascii	"PRADC\000"
 4856      4300
 4857              	.LASF288:
 4858 0ade 504C4461 		.ascii	"PLData\000"
 4858      746100
 4859              	.LASF196:
 4860 0ae5 44434743 		.ascii	"DCGCQEI\000"
 4860      51454900 
 4861              	.LASF77:
 4862 0aed 50504932 		.ascii	"PPI2C\000"
 4862      4300
 4863              	.LASF33:
 4864 0af3 44534C50 		.ascii	"DSLPCLKCFG\000"
 4864      434C4B43 
 4864      464700
 4865              	.LASF270:
 4866 0afe 64617461 		.ascii	"data\000"
 4866      00
 4867              	.LASF237:
 4868 0b03 50524932 		.ascii	"PRI2C\000"
 4868      4300
 4869              	.LASF158:
 4870 0b09 53434743 		.ascii	"SCGCEPI\000"
 4870      45504900 
 4871              	.LASF191:
 4872 0b11 44434743 		.ascii	"DCGCEPHY\000"
 4872      45504859 
ARM GAS  /tmp/ccs6HPrS.s 			page 95


 4872      00
 4873              	.LASF146:
 4874 0b1a 52434743 		.ascii	"RCGCQEI\000"
 4874      51454900 
 4875              	.LASF204:
 4876 0b22 50435744 		.ascii	"PCWD\000"
 4876      00
 4877              	.LASF252:
 4878 0b27 5052454D 		.ascii	"PREMAC\000"
 4878      414300
 4879              	.LASF284:
 4880 0b2e 50474461 		.ascii	"PGData\000"
 4880      746100
 4881              	.LASF81:
 4882 0b35 50504550 		.ascii	"PPEPHY\000"
 4882      485900
 4883              		.ident	"GCC: (4.8.3-9+11) 4.8.3 20140820 (release)"
ARM GAS  /tmp/ccs6HPrS.s 			page 96


DEFINED SYMBOLS
                            *ABS*:0000000000000000 pal_lld.c
     /tmp/ccs6HPrS.s:19     .text.gpio_init:0000000000000000 $t
     /tmp/ccs6HPrS.s:25     .text.gpio_init:0000000000000000 gpio_init
     /tmp/ccs6HPrS.s:104    .text._pal_lld_init:0000000000000000 $t
     /tmp/ccs6HPrS.s:110    .text._pal_lld_init:0000000000000000 _pal_lld_init
     /tmp/ccs6HPrS.s:593    .text._pal_lld_init:00000000000003a0 $d
     /tmp/ccs6HPrS.s:604    .text._pal_lld_init:00000000000003c4 $t
     /tmp/ccs6HPrS.s:897    .text._pal_lld_init:0000000000000660 $d
     /tmp/ccs6HPrS.s:902    .text._pal_lld_setgroupmode:0000000000000000 $t
     /tmp/ccs6HPrS.s:908    .text._pal_lld_setgroupmode:0000000000000000 _pal_lld_setgroupmode
                     .debug_frame:0000000000000010 $d
     /tmp/ccs6HPrS.s:901    .text._pal_lld_init:0000000000000664 $t

NO UNDEFINED SYMBOLS
