ARM GAS  /tmp/ccs6HPrS.s 			page 1


   1              		.syntax unified
   2              		.cpu cortex-m4
   3              		.fpu softvfp
   4              		.eabi_attribute 20, 1
   5              		.eabi_attribute 21, 1
   6              		.eabi_attribute 23, 3
   7              		.eabi_attribute 24, 1
   8              		.eabi_attribute 25, 1
   9              		.eabi_attribute 26, 1
  10              		.eabi_attribute 30, 2
  11              		.eabi_attribute 34, 1
  12              		.eabi_attribute 18, 4
  13              		.thumb
  14              		.file	"pal_lld.c"
  15              		.text
  16              	.Ltext0:
  17              		.cfi_sections	.debug_frame
  18              		.section	.text.gpio_init,"ax",%progbits
  19              		.align	2
  20              		.p2align 4,,15
  21              		.global	gpio_init
  22              		.thumb
  23              		.thumb_func
  24              		.type	gpio_init, %function
  25              	gpio_init:
  26              	.LFB118:
  27              		.file 1 "../../os/hal/platforms/TM4C129x/pal_lld.c"
  28              		.loc 1 135 0
  29              		.cfi_startproc
  30              		@ args = 0, pretend = 0, frame = 0
  31              		@ frame_needed = 0, uses_anonymous_args = 0
  32              		@ link register save eliminated.
  33              	.LVL0:
  34 0000 2DE9F00F 		push	{r4, r5, r6, r7, r8, r9, r10, fp}
  35              		.cfi_def_cfa_offset 32
  36              		.cfi_offset 4, -32
  37              		.cfi_offset 5, -28
  38              		.cfi_offset 6, -24
  39              		.cfi_offset 7, -20
  40              		.cfi_offset 8, -16
  41              		.cfi_offset 9, -12
  42              		.cfi_offset 10, -8
  43              		.cfi_offset 11, -4
  44              		.loc 1 136 0
  45 0004 0B68     		ldr	r3, [r1]
  46 0006 C0F8FC33 		str	r3, [r0, #1020]
  47              		.loc 1 137 0
  48 000a D1F804B0 		ldr	fp, [r1, #4]
  49              		.loc 1 138 0
  50 000e D1F808A0 		ldr	r10, [r1, #8]
  51              		.loc 1 139 0
  52 0012 D1F80C90 		ldr	r9, [r1, #12]
  53              		.loc 1 140 0
  54 0016 D1F81080 		ldr	r8, [r1, #16]
  55              		.loc 1 142 0
  56 001a 8F69     		ldr	r7, [r1, #24]
  57              		.loc 1 143 0
ARM GAS  /tmp/ccs6HPrS.s 			page 2


  58 001c CE69     		ldr	r6, [r1, #28]
  59              		.loc 1 144 0
  60 001e 0D6A     		ldr	r5, [r1, #32]
  61              		.loc 1 145 0
  62 0020 4C6A     		ldr	r4, [r1, #36]
  63              		.loc 1 141 0
  64 0022 D1F814C0 		ldr	ip, [r1, #20]
  65              		.loc 1 146 0
  66 0026 8A6A     		ldr	r2, [r1, #40]
  67              		.loc 1 147 0
  68 0028 CB6A     		ldr	r3, [r1, #44]
  69              		.loc 1 148 0
  70 002a 096B     		ldr	r1, [r1, #48]
  71              	.LVL1:
  72              		.loc 1 137 0
  73 002c C0F800B4 		str	fp, [r0, #1024]
  74              		.loc 1 138 0
  75 0030 C0F820A4 		str	r10, [r0, #1056]
  76              		.loc 1 139 0
  77 0034 C0F80095 		str	r9, [r0, #1280]
  78              		.loc 1 140 0
  79 0038 C0F80485 		str	r8, [r0, #1284]
  80              		.loc 1 141 0
  81 003c C0F808C5 		str	ip, [r0, #1288]
  82              		.loc 1 142 0
  83 0040 C0F80C75 		str	r7, [r0, #1292]
  84              		.loc 1 143 0
  85 0044 C0F81065 		str	r6, [r0, #1296]
  86              		.loc 1 144 0
  87 0048 C0F81455 		str	r5, [r0, #1300]
  88              		.loc 1 145 0
  89 004c C0F81845 		str	r4, [r0, #1304]
  90              		.loc 1 146 0
  91 0050 C0F81C25 		str	r2, [r0, #1308]
  92              		.loc 1 149 0
  93 0054 BDE8F00F 		pop	{r4, r5, r6, r7, r8, r9, r10, fp}
  94              		.loc 1 147 0
  95 0058 C0F82835 		str	r3, [r0, #1320]
  96              		.loc 1 148 0
  97 005c C0F82C15 		str	r1, [r0, #1324]
  98              		.loc 1 149 0
  99 0060 7047     		bx	lr
 100              		.cfi_endproc
 101              	.LFE118:
 102              		.size	gpio_init, .-gpio_init
 103 0062 00BFAFF3 		.section	.text._pal_lld_init,"ax",%progbits
 103      0080AFF3 
 103      0080AFF3 
 103      0080
 104              		.align	2
 105              		.p2align 4,,15
 106              		.global	_pal_lld_init
 107              		.thumb
 108              		.thumb_func
 109              		.type	_pal_lld_init, %function
 110              	_pal_lld_init:
 111              	.LFB119:
ARM GAS  /tmp/ccs6HPrS.s 			page 3


 112              		.loc 1 169 0
 113              		.cfi_startproc
 114              		@ args = 0, pretend = 0, frame = 0
 115              		@ frame_needed = 0, uses_anonymous_args = 0
 116              		@ link register save eliminated.
 117              	.LVL2:
 118              		.loc 1 170 0
 119 0000 E74B     		ldr	r3, .L3
 120 0002 47F6FF72 		movw	r2, #32767
 121              		.loc 1 169 0
 122 0006 70B4     		push	{r4, r5, r6}
 123              		.cfi_def_cfa_offset 12
 124              		.cfi_offset 4, -12
 125              		.cfi_offset 5, -8
 126              		.cfi_offset 6, -4
 127              		.loc 1 170 0
 128 0008 C3F80826 		str	r2, [r3, #1544]
 129              	.LBB38:
 130              	.LBB39:
 131              		.file 2 "../../os/ports/common/ARMCMx/CMSIS/include/core_cmInstr.h"
 132              		.loc 2 288 0
 133              	@ 288 "../../os/ports/common/ARMCMx/CMSIS/include/core_cmInstr.h" 1
 134 000c 00BF     		nop
 135              	@ 0 "" 2
 136              		.thumb
 137              	.LBE39:
 138              	.LBE38:
 139              	.LBB40:
 140              	.LBB41:
 141              	@ 288 "../../os/ports/common/ARMCMx/CMSIS/include/core_cmInstr.h" 1
 142 000e 00BF     		nop
 143              	@ 0 "" 2
 144              		.thumb
 145              	.LBE41:
 146              	.LBE40:
 147              	.LBB42:
 148              	.LBB43:
 149              	@ 288 "../../os/ports/common/ARMCMx/CMSIS/include/core_cmInstr.h" 1
 150 0010 00BF     		nop
 151              	@ 0 "" 2
 152              	.LVL3:
 153              		.thumb
 154              	.LBE43:
 155              	.LBE42:
 156              	.LBB44:
 157              	.LBB45:
 158              		.loc 1 136 0
 159 0012 A3F52623 		sub	r3, r3, #679936
 160 0016 0268     		ldr	r2, [r0]
 161 0018 C3F8FC23 		str	r2, [r3, #1020]
 162              		.loc 1 137 0
 163 001c 4268     		ldr	r2, [r0, #4]
 164 001e C3F80024 		str	r2, [r3, #1024]
 165              		.loc 1 138 0
 166 0022 8268     		ldr	r2, [r0, #8]
 167 0024 C3F82024 		str	r2, [r3, #1056]
 168              		.loc 1 139 0
ARM GAS  /tmp/ccs6HPrS.s 			page 4


 169 0028 C268     		ldr	r2, [r0, #12]
 170 002a C3F80025 		str	r2, [r3, #1280]
 171              		.loc 1 140 0
 172 002e 0269     		ldr	r2, [r0, #16]
 173 0030 C3F80425 		str	r2, [r3, #1284]
 174              		.loc 1 141 0
 175 0034 4269     		ldr	r2, [r0, #20]
 176 0036 C3F80825 		str	r2, [r3, #1288]
 177              		.loc 1 142 0
 178 003a 8269     		ldr	r2, [r0, #24]
 179 003c C3F80C25 		str	r2, [r3, #1292]
 180              		.loc 1 143 0
 181 0040 C269     		ldr	r2, [r0, #28]
 182 0042 C3F81025 		str	r2, [r3, #1296]
 183              		.loc 1 144 0
 184 0046 026A     		ldr	r2, [r0, #32]
 185 0048 C3F81425 		str	r2, [r3, #1300]
 186              		.loc 1 145 0
 187 004c 426A     		ldr	r2, [r0, #36]
 188 004e C3F81825 		str	r2, [r3, #1304]
 189              		.loc 1 146 0
 190 0052 826A     		ldr	r2, [r0, #40]
 191 0054 C3F81C25 		str	r2, [r3, #1308]
 192              		.loc 1 147 0
 193 0058 C26A     		ldr	r2, [r0, #44]
 194 005a C3F82825 		str	r2, [r3, #1320]
 195              		.loc 1 148 0
 196 005e 026B     		ldr	r2, [r0, #48]
 197 0060 C3F82C25 		str	r2, [r3, #1324]
 198              	.LVL4:
 199              	.LBE45:
 200              	.LBE44:
 201              	.LBB46:
 202              	.LBB47:
 203              		.loc 1 136 0
 204 0064 CF4A     		ldr	r2, .L3+4
 205 0066 436B     		ldr	r3, [r0, #52]
 206 0068 C2F8FC33 		str	r3, [r2, #1020]
 207              		.loc 1 137 0
 208 006c 836B     		ldr	r3, [r0, #56]
 209 006e C2F80034 		str	r3, [r2, #1024]
 210              		.loc 1 138 0
 211 0072 C36B     		ldr	r3, [r0, #60]
 212 0074 C2F82034 		str	r3, [r2, #1056]
 213              		.loc 1 139 0
 214 0078 036C     		ldr	r3, [r0, #64]
 215 007a C2F80035 		str	r3, [r2, #1280]
 216              		.loc 1 140 0
 217 007e 436C     		ldr	r3, [r0, #68]
 218 0080 C2F80435 		str	r3, [r2, #1284]
 219              		.loc 1 141 0
 220 0084 836C     		ldr	r3, [r0, #72]
 221 0086 C2F80835 		str	r3, [r2, #1288]
 222              		.loc 1 142 0
 223 008a C36C     		ldr	r3, [r0, #76]
 224 008c C2F80C35 		str	r3, [r2, #1292]
 225              		.loc 1 143 0
ARM GAS  /tmp/ccs6HPrS.s 			page 5


 226 0090 036D     		ldr	r3, [r0, #80]
 227 0092 C2F81035 		str	r3, [r2, #1296]
 228              		.loc 1 144 0
 229 0096 436D     		ldr	r3, [r0, #84]
 230 0098 C2F81435 		str	r3, [r2, #1300]
 231              		.loc 1 145 0
 232 009c 836D     		ldr	r3, [r0, #88]
 233 009e C2F81835 		str	r3, [r2, #1304]
 234              		.loc 1 146 0
 235 00a2 C36D     		ldr	r3, [r0, #92]
 236 00a4 C2F81C35 		str	r3, [r2, #1308]
 237              		.loc 1 147 0
 238 00a8 036E     		ldr	r3, [r0, #96]
 239 00aa C2F82835 		str	r3, [r2, #1320]
 240              	.LBE47:
 241              	.LBE46:
 242              		.loc 1 180 0
 243 00ae BE4B     		ldr	r3, .L3+8
 244              	.LBB50:
 245              	.LBB48:
 246              		.loc 1 148 0
 247 00b0 416E     		ldr	r1, [r0, #100]
 248              	.LBE48:
 249              	.LBE50:
 250              		.loc 1 180 0
 251 00b2 BE4D     		ldr	r5, .L3+12
 252              	.LBB51:
 253              	.LBB49:
 254              		.loc 1 148 0
 255 00b4 C2F82C15 		str	r1, [r2, #1324]
 256              	.LBE49:
 257              	.LBE51:
 258              		.loc 1 181 0
 259 00b8 0124     		movs	r4, #1
 260              		.loc 1 180 0
 261 00ba C3F82055 		str	r5, [r3, #1312]
 262              		.loc 1 181 0
 263 00be C3F82445 		str	r4, [r3, #1316]
 264              	.LVL5:
 265              	.LBB52:
 266              	.LBB53:
 267              		.loc 1 136 0
 268 00c2 826E     		ldr	r2, [r0, #104]
 269 00c4 C3F8FC23 		str	r2, [r3, #1020]
 270              		.loc 1 137 0
 271 00c8 C26E     		ldr	r2, [r0, #108]
 272 00ca C3F80024 		str	r2, [r3, #1024]
 273              		.loc 1 138 0
 274 00ce 026F     		ldr	r2, [r0, #112]
 275 00d0 C3F82024 		str	r2, [r3, #1056]
 276              		.loc 1 139 0
 277 00d4 426F     		ldr	r2, [r0, #116]
 278 00d6 C3F80025 		str	r2, [r3, #1280]
 279              		.loc 1 140 0
 280 00da 826F     		ldr	r2, [r0, #120]
 281 00dc C3F80425 		str	r2, [r3, #1284]
 282              		.loc 1 141 0
ARM GAS  /tmp/ccs6HPrS.s 			page 6


 283 00e0 C26F     		ldr	r2, [r0, #124]
 284 00e2 C3F80825 		str	r2, [r3, #1288]
 285              		.loc 1 142 0
 286 00e6 D0F88020 		ldr	r2, [r0, #128]
 287 00ea C3F80C25 		str	r2, [r3, #1292]
 288              		.loc 1 143 0
 289 00ee D0F88420 		ldr	r2, [r0, #132]
 290 00f2 C3F81025 		str	r2, [r3, #1296]
 291              		.loc 1 144 0
 292 00f6 D0F88820 		ldr	r2, [r0, #136]
 293 00fa C3F81425 		str	r2, [r3, #1300]
 294              		.loc 1 145 0
 295 00fe D0F88C20 		ldr	r2, [r0, #140]
 296 0102 C3F81825 		str	r2, [r3, #1304]
 297              		.loc 1 146 0
 298 0106 D0F89020 		ldr	r2, [r0, #144]
 299 010a C3F81C25 		str	r2, [r3, #1308]
 300              		.loc 1 147 0
 301 010e D0F89420 		ldr	r2, [r0, #148]
 302 0112 C3F82825 		str	r2, [r3, #1320]
 303              		.loc 1 148 0
 304 0116 D0F89820 		ldr	r2, [r0, #152]
 305 011a C3F82C25 		str	r2, [r3, #1324]
 306              	.LBE53:
 307              	.LBE52:
 308              		.loc 1 183 0
 309 011e 0021     		movs	r1, #0
 310 0120 C3F82015 		str	r1, [r3, #1312]
 311              	.LVL6:
 312              	.LBB54:
 313              	.LBB55:
 314              		.loc 1 136 0
 315 0124 03F58053 		add	r3, r3, #4096
 316 0128 D0F89C20 		ldr	r2, [r0, #156]
 317 012c C3F8FC23 		str	r2, [r3, #1020]
 318              		.loc 1 137 0
 319 0130 D0F8A020 		ldr	r2, [r0, #160]
 320 0134 C3F80024 		str	r2, [r3, #1024]
 321              		.loc 1 138 0
 322 0138 D0F8A420 		ldr	r2, [r0, #164]
 323 013c C3F82024 		str	r2, [r3, #1056]
 324              		.loc 1 139 0
 325 0140 D0F8A820 		ldr	r2, [r0, #168]
 326 0144 C3F80025 		str	r2, [r3, #1280]
 327              		.loc 1 140 0
 328 0148 D0F8AC20 		ldr	r2, [r0, #172]
 329 014c C3F80425 		str	r2, [r3, #1284]
 330              		.loc 1 141 0
 331 0150 D0F8B020 		ldr	r2, [r0, #176]
 332 0154 C3F80825 		str	r2, [r3, #1288]
 333              		.loc 1 142 0
 334 0158 D0F8B420 		ldr	r2, [r0, #180]
 335 015c C3F80C25 		str	r2, [r3, #1292]
 336              		.loc 1 143 0
 337 0160 D0F8B820 		ldr	r2, [r0, #184]
 338 0164 C3F81025 		str	r2, [r3, #1296]
 339              		.loc 1 144 0
ARM GAS  /tmp/ccs6HPrS.s 			page 7


 340 0168 D0F8BC20 		ldr	r2, [r0, #188]
 341 016c C3F81425 		str	r2, [r3, #1300]
 342              		.loc 1 145 0
 343 0170 D0F8C020 		ldr	r2, [r0, #192]
 344 0174 C3F81825 		str	r2, [r3, #1304]
 345              		.loc 1 146 0
 346 0178 D0F8C420 		ldr	r2, [r0, #196]
 347 017c C3F81C25 		str	r2, [r3, #1308]
 348              		.loc 1 147 0
 349 0180 D0F8C820 		ldr	r2, [r0, #200]
 350 0184 C3F82825 		str	r2, [r3, #1320]
 351              		.loc 1 148 0
 352 0188 D0F8CC20 		ldr	r2, [r0, #204]
 353 018c C3F82C25 		str	r2, [r3, #1324]
 354              	.LVL7:
 355              	.LBE55:
 356              	.LBE54:
 357              	.LBB56:
 358              	.LBB57:
 359              		.loc 1 136 0
 360 0190 874A     		ldr	r2, .L3+16
 361 0192 D0F8D030 		ldr	r3, [r0, #208]
 362 0196 C2F8FC33 		str	r3, [r2, #1020]
 363              		.loc 1 137 0
 364 019a D0F8D430 		ldr	r3, [r0, #212]
 365 019e C2F80034 		str	r3, [r2, #1024]
 366              		.loc 1 138 0
 367 01a2 D0F8D830 		ldr	r3, [r0, #216]
 368 01a6 C2F82034 		str	r3, [r2, #1056]
 369              		.loc 1 139 0
 370 01aa D0F8DC30 		ldr	r3, [r0, #220]
 371 01ae C2F80035 		str	r3, [r2, #1280]
 372              		.loc 1 140 0
 373 01b2 D0F8E030 		ldr	r3, [r0, #224]
 374 01b6 C2F80435 		str	r3, [r2, #1284]
 375              		.loc 1 141 0
 376 01ba D0F8E430 		ldr	r3, [r0, #228]
 377 01be C2F80835 		str	r3, [r2, #1288]
 378              		.loc 1 142 0
 379 01c2 D0F8E830 		ldr	r3, [r0, #232]
 380 01c6 C2F80C35 		str	r3, [r2, #1292]
 381              		.loc 1 143 0
 382 01ca D0F8EC30 		ldr	r3, [r0, #236]
 383 01ce C2F81035 		str	r3, [r2, #1296]
 384              		.loc 1 144 0
 385 01d2 D0F8F030 		ldr	r3, [r0, #240]
 386 01d6 C2F81435 		str	r3, [r2, #1300]
 387              		.loc 1 145 0
 388 01da D0F8F430 		ldr	r3, [r0, #244]
 389 01de C2F81835 		str	r3, [r2, #1304]
 390              		.loc 1 146 0
 391 01e2 D0F8F830 		ldr	r3, [r0, #248]
 392 01e6 C2F81C35 		str	r3, [r2, #1308]
 393              		.loc 1 147 0
 394 01ea D0F8FC30 		ldr	r3, [r0, #252]
 395 01ee C2F82835 		str	r3, [r2, #1320]
 396              	.LBE57:
ARM GAS  /tmp/ccs6HPrS.s 			page 8


 397              	.LBE56:
 398              		.loc 1 189 0
 399 01f2 704B     		ldr	r3, .L3+20
 400              	.LBB59:
 401              	.LBB58:
 402              		.loc 1 148 0
 403 01f4 D0F80061 		ldr	r6, [r0, #256]
 404 01f8 C2F82C65 		str	r6, [r2, #1324]
 405              	.LBE58:
 406              	.LBE59:
 407              		.loc 1 189 0
 408 01fc C3F82055 		str	r5, [r3, #1312]
 409              		.loc 1 190 0
 410 0200 C3F82445 		str	r4, [r3, #1316]
 411              	.LVL8:
 412              	.LBB60:
 413              	.LBB61:
 414              		.loc 1 136 0
 415 0204 D0F80421 		ldr	r2, [r0, #260]
 416 0208 C3F8FC23 		str	r2, [r3, #1020]
 417              		.loc 1 137 0
 418 020c D0F80821 		ldr	r2, [r0, #264]
 419 0210 C3F80024 		str	r2, [r3, #1024]
 420              		.loc 1 138 0
 421 0214 D0F80C21 		ldr	r2, [r0, #268]
 422 0218 C3F82024 		str	r2, [r3, #1056]
 423              		.loc 1 139 0
 424 021c D0F81021 		ldr	r2, [r0, #272]
 425 0220 C3F80025 		str	r2, [r3, #1280]
 426              		.loc 1 140 0
 427 0224 D0F81421 		ldr	r2, [r0, #276]
 428 0228 C3F80425 		str	r2, [r3, #1284]
 429              		.loc 1 141 0
 430 022c D0F81821 		ldr	r2, [r0, #280]
 431 0230 C3F80825 		str	r2, [r3, #1288]
 432              		.loc 1 142 0
 433 0234 D0F81C21 		ldr	r2, [r0, #284]
 434 0238 C3F80C25 		str	r2, [r3, #1292]
 435              		.loc 1 143 0
 436 023c D0F82021 		ldr	r2, [r0, #288]
 437 0240 C3F81025 		str	r2, [r3, #1296]
 438              		.loc 1 144 0
 439 0244 D0F82421 		ldr	r2, [r0, #292]
 440 0248 C3F81425 		str	r2, [r3, #1300]
 441              		.loc 1 145 0
 442 024c D0F82821 		ldr	r2, [r0, #296]
 443 0250 C3F81825 		str	r2, [r3, #1304]
 444              		.loc 1 146 0
 445 0254 D0F82C21 		ldr	r2, [r0, #300]
 446 0258 C3F81C25 		str	r2, [r3, #1308]
 447              		.loc 1 147 0
 448 025c D0F83021 		ldr	r2, [r0, #304]
 449 0260 C3F82825 		str	r2, [r3, #1320]
 450              		.loc 1 148 0
 451 0264 D0F83421 		ldr	r2, [r0, #308]
 452 0268 C3F82C25 		str	r2, [r3, #1324]
 453              	.LBE61:
ARM GAS  /tmp/ccs6HPrS.s 			page 9


 454              	.LBE60:
 455              	.LBB62:
 456              	.LBB63:
 457              		.loc 1 136 0
 458 026c 524A     		ldr	r2, .L3+24
 459              	.LBE63:
 460              	.LBE62:
 461              		.loc 1 192 0
 462 026e C3F82015 		str	r1, [r3, #1312]
 463              	.LVL9:
 464              	.LBB65:
 465              	.LBB64:
 466              		.loc 1 136 0
 467 0272 D0F83831 		ldr	r3, [r0, #312]
 468 0276 C2F8FC33 		str	r3, [r2, #1020]
 469              		.loc 1 137 0
 470 027a D0F83C31 		ldr	r3, [r0, #316]
 471 027e C2F80034 		str	r3, [r2, #1024]
 472              		.loc 1 138 0
 473 0282 D0F84031 		ldr	r3, [r0, #320]
 474 0286 C2F82034 		str	r3, [r2, #1056]
 475              		.loc 1 139 0
 476 028a D0F84431 		ldr	r3, [r0, #324]
 477 028e C2F80035 		str	r3, [r2, #1280]
 478              		.loc 1 140 0
 479 0292 D0F84831 		ldr	r3, [r0, #328]
 480 0296 C2F80435 		str	r3, [r2, #1284]
 481              		.loc 1 141 0
 482 029a D0F84C31 		ldr	r3, [r0, #332]
 483 029e C2F80835 		str	r3, [r2, #1288]
 484              		.loc 1 142 0
 485 02a2 D0F85031 		ldr	r3, [r0, #336]
 486 02a6 C2F80C35 		str	r3, [r2, #1292]
 487              		.loc 1 143 0
 488 02aa D0F85431 		ldr	r3, [r0, #340]
 489 02ae C2F81035 		str	r3, [r2, #1296]
 490              		.loc 1 144 0
 491 02b2 D0F85831 		ldr	r3, [r0, #344]
 492 02b6 C2F81435 		str	r3, [r2, #1300]
 493              		.loc 1 145 0
 494 02ba D0F85C31 		ldr	r3, [r0, #348]
 495 02be C2F81835 		str	r3, [r2, #1304]
 496              		.loc 1 146 0
 497 02c2 D0F86031 		ldr	r3, [r0, #352]
 498 02c6 C2F81C35 		str	r3, [r2, #1308]
 499              		.loc 1 147 0
 500 02ca D0F86431 		ldr	r3, [r0, #356]
 501 02ce C2F82835 		str	r3, [r2, #1320]
 502              		.loc 1 148 0
 503 02d2 D0F86831 		ldr	r3, [r0, #360]
 504 02d6 C2F82C35 		str	r3, [r2, #1324]
 505              	.LVL10:
 506              	.LBE64:
 507              	.LBE65:
 508              	.LBB66:
 509              	.LBB67:
 510              		.loc 1 136 0
ARM GAS  /tmp/ccs6HPrS.s 			page 10


 511 02da 384B     		ldr	r3, .L3+28
 512 02dc D0F86C21 		ldr	r2, [r0, #364]
 513 02e0 C3F8FC23 		str	r2, [r3, #1020]
 514              		.loc 1 137 0
 515 02e4 D0F87021 		ldr	r2, [r0, #368]
 516 02e8 C3F80024 		str	r2, [r3, #1024]
 517              		.loc 1 138 0
 518 02ec D0F87421 		ldr	r2, [r0, #372]
 519 02f0 C3F82024 		str	r2, [r3, #1056]
 520              		.loc 1 139 0
 521 02f4 D0F87821 		ldr	r2, [r0, #376]
 522 02f8 C3F80025 		str	r2, [r3, #1280]
 523              		.loc 1 140 0
 524 02fc D0F87C21 		ldr	r2, [r0, #380]
 525 0300 C3F80425 		str	r2, [r3, #1284]
 526              		.loc 1 141 0
 527 0304 D0F88021 		ldr	r2, [r0, #384]
 528 0308 C3F80825 		str	r2, [r3, #1288]
 529              		.loc 1 142 0
 530 030c D0F88421 		ldr	r2, [r0, #388]
 531 0310 C3F80C25 		str	r2, [r3, #1292]
 532              		.loc 1 143 0
 533 0314 D0F88821 		ldr	r2, [r0, #392]
 534 0318 C3F81025 		str	r2, [r3, #1296]
 535              		.loc 1 144 0
 536 031c D0F88C21 		ldr	r2, [r0, #396]
 537 0320 C3F81425 		str	r2, [r3, #1300]
 538              		.loc 1 145 0
 539 0324 D0F89021 		ldr	r2, [r0, #400]
 540 0328 C3F81825 		str	r2, [r3, #1304]
 541              		.loc 1 146 0
 542 032c D0F89421 		ldr	r2, [r0, #404]
 543 0330 C3F81C25 		str	r2, [r3, #1308]
 544              		.loc 1 147 0
 545 0334 D0F89821 		ldr	r2, [r0, #408]
 546 0338 C3F82825 		str	r2, [r3, #1320]
 547              		.loc 1 148 0
 548 033c D0F89C21 		ldr	r2, [r0, #412]
 549 0340 C3F82C25 		str	r2, [r3, #1324]
 550              	.LVL11:
 551              	.LBE67:
 552              	.LBE66:
 553              	.LBB68:
 554              	.LBB69:
 555              		.loc 1 136 0
 556 0344 1E4A     		ldr	r2, .L3+32
 557 0346 D0F8A031 		ldr	r3, [r0, #416]
 558 034a C2F8FC33 		str	r3, [r2, #1020]
 559              		.loc 1 137 0
 560 034e D0F8A431 		ldr	r3, [r0, #420]
 561 0352 C2F80034 		str	r3, [r2, #1024]
 562              		.loc 1 138 0
 563 0356 D0F8A831 		ldr	r3, [r0, #424]
 564 035a C2F82034 		str	r3, [r2, #1056]
 565              		.loc 1 139 0
 566 035e D0F8AC31 		ldr	r3, [r0, #428]
 567 0362 C2F80035 		str	r3, [r2, #1280]
ARM GAS  /tmp/ccs6HPrS.s 			page 11


 568              		.loc 1 140 0
 569 0366 D0F8B031 		ldr	r3, [r0, #432]
 570 036a C2F80435 		str	r3, [r2, #1284]
 571              		.loc 1 141 0
 572 036e D0F8B431 		ldr	r3, [r0, #436]
 573 0372 C2F80835 		str	r3, [r2, #1288]
 574              		.loc 1 142 0
 575 0376 D0F8B831 		ldr	r3, [r0, #440]
 576 037a C2F80C35 		str	r3, [r2, #1292]
 577              		.loc 1 143 0
 578 037e D0F8BC31 		ldr	r3, [r0, #444]
 579 0382 C2F81035 		str	r3, [r2, #1296]
 580              		.loc 1 144 0
 581 0386 D0F8C031 		ldr	r3, [r0, #448]
 582 038a C2F81435 		str	r3, [r2, #1300]
 583              		.loc 1 145 0
 584 038e D0F8C431 		ldr	r3, [r0, #452]
 585 0392 C2F81835 		str	r3, [r2, #1304]
 586              		.loc 1 146 0
 587 0396 D0F8C831 		ldr	r3, [r0, #456]
 588 039a C2F81C35 		str	r3, [r2, #1308]
 589 039e 11E0     		b	.L4
 590              	.L5:
 591              		.align	2
 592              	.L3:
 593 03a0 00E00F40 		.word	1074782208
 594 03a4 00900540 		.word	1074106368
 595 03a8 00A00540 		.word	1074110464
 596 03ac 4B434F4C 		.word	1280262987
 597 03b0 00C00540 		.word	1074118656
 598 03b4 00D00540 		.word	1074122752
 599 03b8 00E00540 		.word	1074126848
 600 03bc 00F00540 		.word	1074130944
 601 03c0 00000640 		.word	1074135040
 602              	.L4:
 603              		.loc 1 147 0
 604 03c4 D0F8CC31 		ldr	r3, [r0, #460]
 605 03c8 C2F82835 		str	r3, [r2, #1320]
 606              		.loc 1 148 0
 607 03cc D0F8D011 		ldr	r1, [r0, #464]
 608              	.LBE69:
 609              	.LBE68:
 610              	.LBB71:
 611              	.LBB72:
 612              		.loc 1 136 0
 613 03d0 A34B     		ldr	r3, .L6
 614              	.LBE72:
 615              	.LBE71:
 616              	.LBB74:
 617              	.LBB70:
 618              		.loc 1 148 0
 619 03d2 C2F82C15 		str	r1, [r2, #1324]
 620              	.LVL12:
 621              	.LBE70:
 622              	.LBE74:
 623              	.LBB75:
 624              	.LBB73:
ARM GAS  /tmp/ccs6HPrS.s 			page 12


 625              		.loc 1 136 0
 626 03d6 D0F8D421 		ldr	r2, [r0, #468]
 627 03da C3F8FC23 		str	r2, [r3, #1020]
 628              		.loc 1 137 0
 629 03de D0F8D821 		ldr	r2, [r0, #472]
 630 03e2 C3F80024 		str	r2, [r3, #1024]
 631              		.loc 1 138 0
 632 03e6 D0F8DC21 		ldr	r2, [r0, #476]
 633 03ea C3F82024 		str	r2, [r3, #1056]
 634              		.loc 1 139 0
 635 03ee D0F8E021 		ldr	r2, [r0, #480]
 636 03f2 C3F80025 		str	r2, [r3, #1280]
 637              		.loc 1 140 0
 638 03f6 D0F8E421 		ldr	r2, [r0, #484]
 639 03fa C3F80425 		str	r2, [r3, #1284]
 640              		.loc 1 141 0
 641 03fe D0F8E821 		ldr	r2, [r0, #488]
 642 0402 C3F80825 		str	r2, [r3, #1288]
 643              		.loc 1 142 0
 644 0406 D0F8EC21 		ldr	r2, [r0, #492]
 645 040a C3F80C25 		str	r2, [r3, #1292]
 646              		.loc 1 143 0
 647 040e D0F8F021 		ldr	r2, [r0, #496]
 648 0412 C3F81025 		str	r2, [r3, #1296]
 649              		.loc 1 144 0
 650 0416 D0F8F421 		ldr	r2, [r0, #500]
 651 041a C3F81425 		str	r2, [r3, #1300]
 652              		.loc 1 145 0
 653 041e D0F8F821 		ldr	r2, [r0, #504]
 654 0422 C3F81825 		str	r2, [r3, #1304]
 655              		.loc 1 146 0
 656 0426 D0F8FC21 		ldr	r2, [r0, #508]
 657 042a C3F81C25 		str	r2, [r3, #1308]
 658              		.loc 1 147 0
 659 042e D0F80022 		ldr	r2, [r0, #512]
 660 0432 C3F82825 		str	r2, [r3, #1320]
 661              		.loc 1 148 0
 662 0436 D0F80422 		ldr	r2, [r0, #516]
 663 043a C3F82C25 		str	r2, [r3, #1324]
 664              	.LVL13:
 665              	.LBE73:
 666              	.LBE75:
 667              	.LBB76:
 668              	.LBB77:
 669              		.loc 1 136 0
 670 043e 03F58053 		add	r3, r3, #4096
 671 0442 D0F80822 		ldr	r2, [r0, #520]
 672 0446 C3F8FC23 		str	r2, [r3, #1020]
 673              		.loc 1 137 0
 674 044a D0F80C22 		ldr	r2, [r0, #524]
 675 044e C3F80024 		str	r2, [r3, #1024]
 676              		.loc 1 138 0
 677 0452 D0F81022 		ldr	r2, [r0, #528]
 678 0456 C3F82024 		str	r2, [r3, #1056]
 679              		.loc 1 139 0
 680 045a D0F81422 		ldr	r2, [r0, #532]
 681 045e C3F80025 		str	r2, [r3, #1280]
ARM GAS  /tmp/ccs6HPrS.s 			page 13


 682              		.loc 1 140 0
 683 0462 D0F81822 		ldr	r2, [r0, #536]
 684 0466 C3F80425 		str	r2, [r3, #1284]
 685              		.loc 1 141 0
 686 046a D0F81C22 		ldr	r2, [r0, #540]
 687 046e C3F80825 		str	r2, [r3, #1288]
 688              		.loc 1 142 0
 689 0472 D0F82022 		ldr	r2, [r0, #544]
 690 0476 C3F80C25 		str	r2, [r3, #1292]
 691              		.loc 1 143 0
 692 047a D0F82422 		ldr	r2, [r0, #548]
 693 047e C3F81025 		str	r2, [r3, #1296]
 694              		.loc 1 144 0
 695 0482 D0F82822 		ldr	r2, [r0, #552]
 696 0486 C3F81425 		str	r2, [r3, #1300]
 697              		.loc 1 145 0
 698 048a D0F82C22 		ldr	r2, [r0, #556]
 699 048e C3F81825 		str	r2, [r3, #1304]
 700              		.loc 1 146 0
 701 0492 D0F83022 		ldr	r2, [r0, #560]
 702 0496 C3F81C25 		str	r2, [r3, #1308]
 703              		.loc 1 147 0
 704 049a D0F83422 		ldr	r2, [r0, #564]
 705 049e C3F82825 		str	r2, [r3, #1320]
 706              		.loc 1 148 0
 707 04a2 D0F83822 		ldr	r2, [r0, #568]
 708 04a6 C3F82C25 		str	r2, [r3, #1324]
 709              	.LVL14:
 710              	.LBE77:
 711              	.LBE76:
 712              	.LBB78:
 713              	.LBB79:
 714              		.loc 1 136 0
 715 04aa 03F58053 		add	r3, r3, #4096
 716 04ae D0F83C22 		ldr	r2, [r0, #572]
 717 04b2 C3F8FC23 		str	r2, [r3, #1020]
 718              		.loc 1 137 0
 719 04b6 D0F84022 		ldr	r2, [r0, #576]
 720 04ba C3F80024 		str	r2, [r3, #1024]
 721              		.loc 1 138 0
 722 04be D0F84422 		ldr	r2, [r0, #580]
 723 04c2 C3F82024 		str	r2, [r3, #1056]
 724              		.loc 1 139 0
 725 04c6 D0F84822 		ldr	r2, [r0, #584]
 726 04ca C3F80025 		str	r2, [r3, #1280]
 727              		.loc 1 140 0
 728 04ce D0F84C22 		ldr	r2, [r0, #588]
 729 04d2 C3F80425 		str	r2, [r3, #1284]
 730              		.loc 1 141 0
 731 04d6 D0F85022 		ldr	r2, [r0, #592]
 732 04da C3F80825 		str	r2, [r3, #1288]
 733              		.loc 1 142 0
 734 04de D0F85422 		ldr	r2, [r0, #596]
 735 04e2 C3F80C25 		str	r2, [r3, #1292]
 736              		.loc 1 143 0
 737 04e6 D0F85822 		ldr	r2, [r0, #600]
 738 04ea C3F81025 		str	r2, [r3, #1296]
ARM GAS  /tmp/ccs6HPrS.s 			page 14


 739              		.loc 1 144 0
 740 04ee D0F85C22 		ldr	r2, [r0, #604]
 741 04f2 C3F81425 		str	r2, [r3, #1300]
 742              		.loc 1 145 0
 743 04f6 D0F86022 		ldr	r2, [r0, #608]
 744 04fa C3F81825 		str	r2, [r3, #1304]
 745              		.loc 1 146 0
 746 04fe D0F86422 		ldr	r2, [r0, #612]
 747 0502 C3F81C25 		str	r2, [r3, #1308]
 748              		.loc 1 147 0
 749 0506 D0F86822 		ldr	r2, [r0, #616]
 750 050a C3F82825 		str	r2, [r3, #1320]
 751              		.loc 1 148 0
 752 050e D0F86C22 		ldr	r2, [r0, #620]
 753 0512 C3F82C25 		str	r2, [r3, #1324]
 754              	.LVL15:
 755              	.LBE79:
 756              	.LBE78:
 757              	.LBB80:
 758              	.LBB81:
 759              		.loc 1 136 0
 760 0516 03F58053 		add	r3, r3, #4096
 761 051a D0F87022 		ldr	r2, [r0, #624]
 762 051e C3F8FC23 		str	r2, [r3, #1020]
 763              		.loc 1 137 0
 764 0522 D0F87422 		ldr	r2, [r0, #628]
 765 0526 C3F80024 		str	r2, [r3, #1024]
 766              		.loc 1 138 0
 767 052a D0F87822 		ldr	r2, [r0, #632]
 768 052e C3F82024 		str	r2, [r3, #1056]
 769              		.loc 1 139 0
 770 0532 D0F87C22 		ldr	r2, [r0, #636]
 771 0536 C3F80025 		str	r2, [r3, #1280]
 772              		.loc 1 140 0
 773 053a D0F88022 		ldr	r2, [r0, #640]
 774 053e C3F80425 		str	r2, [r3, #1284]
 775              		.loc 1 141 0
 776 0542 D0F88422 		ldr	r2, [r0, #644]
 777 0546 C3F80825 		str	r2, [r3, #1288]
 778              		.loc 1 142 0
 779 054a D0F88822 		ldr	r2, [r0, #648]
 780 054e C3F80C25 		str	r2, [r3, #1292]
 781              		.loc 1 143 0
 782 0552 D0F88C22 		ldr	r2, [r0, #652]
 783 0556 C3F81025 		str	r2, [r3, #1296]
 784              		.loc 1 144 0
 785 055a D0F89022 		ldr	r2, [r0, #656]
 786 055e C3F81425 		str	r2, [r3, #1300]
 787              		.loc 1 145 0
 788 0562 D0F89422 		ldr	r2, [r0, #660]
 789 0566 C3F81825 		str	r2, [r3, #1304]
 790              		.loc 1 146 0
 791 056a D0F89822 		ldr	r2, [r0, #664]
 792 056e C3F81C25 		str	r2, [r3, #1308]
 793              		.loc 1 147 0
 794 0572 D0F89C22 		ldr	r2, [r0, #668]
 795 0576 C3F82825 		str	r2, [r3, #1320]
ARM GAS  /tmp/ccs6HPrS.s 			page 15


 796              		.loc 1 148 0
 797 057a D0F8A022 		ldr	r2, [r0, #672]
 798 057e C3F82C25 		str	r2, [r3, #1324]
 799              	.LVL16:
 800              	.LBE81:
 801              	.LBE80:
 802              	.LBB82:
 803              	.LBB83:
 804              		.loc 1 136 0
 805 0582 03F58053 		add	r3, r3, #4096
 806 0586 D0F8A422 		ldr	r2, [r0, #676]
 807 058a C3F8FC23 		str	r2, [r3, #1020]
 808              		.loc 1 137 0
 809 058e D0F8A822 		ldr	r2, [r0, #680]
 810 0592 C3F80024 		str	r2, [r3, #1024]
 811              		.loc 1 138 0
 812 0596 D0F8AC22 		ldr	r2, [r0, #684]
 813 059a C3F82024 		str	r2, [r3, #1056]
 814              		.loc 1 139 0
 815 059e D0F8B022 		ldr	r2, [r0, #688]
 816 05a2 C3F80025 		str	r2, [r3, #1280]
 817              		.loc 1 140 0
 818 05a6 D0F8B422 		ldr	r2, [r0, #692]
 819 05aa C3F80425 		str	r2, [r3, #1284]
 820              		.loc 1 141 0
 821 05ae D0F8B822 		ldr	r2, [r0, #696]
 822 05b2 C3F80825 		str	r2, [r3, #1288]
 823              		.loc 1 142 0
 824 05b6 D0F8BC22 		ldr	r2, [r0, #700]
 825 05ba C3F80C25 		str	r2, [r3, #1292]
 826              		.loc 1 143 0
 827 05be D0F8C022 		ldr	r2, [r0, #704]
 828 05c2 C3F81025 		str	r2, [r3, #1296]
 829              		.loc 1 144 0
 830 05c6 D0F8C422 		ldr	r2, [r0, #708]
 831 05ca C3F81425 		str	r2, [r3, #1300]
 832              		.loc 1 145 0
 833 05ce D0F8C822 		ldr	r2, [r0, #712]
 834 05d2 C3F81825 		str	r2, [r3, #1304]
 835              		.loc 1 146 0
 836 05d6 D0F8CC22 		ldr	r2, [r0, #716]
 837 05da C3F81C25 		str	r2, [r3, #1308]
 838              		.loc 1 147 0
 839 05de D0F8D022 		ldr	r2, [r0, #720]
 840 05e2 C3F82825 		str	r2, [r3, #1320]
 841              		.loc 1 148 0
 842 05e6 D0F8D422 		ldr	r2, [r0, #724]
 843 05ea C3F82C25 		str	r2, [r3, #1324]
 844              	.LVL17:
 845              	.LBE83:
 846              	.LBE82:
 847              	.LBB84:
 848              	.LBB85:
 849              		.loc 1 136 0
 850 05ee 03F58053 		add	r3, r3, #4096
 851 05f2 D0F8D822 		ldr	r2, [r0, #728]
 852 05f6 C3F8FC23 		str	r2, [r3, #1020]
ARM GAS  /tmp/ccs6HPrS.s 			page 16


 853              		.loc 1 137 0
 854 05fa D0F8DC22 		ldr	r2, [r0, #732]
 855 05fe C3F80024 		str	r2, [r3, #1024]
 856              		.loc 1 138 0
 857 0602 D0F8E022 		ldr	r2, [r0, #736]
 858 0606 C3F82024 		str	r2, [r3, #1056]
 859              		.loc 1 139 0
 860 060a D0F8E422 		ldr	r2, [r0, #740]
 861 060e C3F80025 		str	r2, [r3, #1280]
 862              		.loc 1 140 0
 863 0612 D0F8E822 		ldr	r2, [r0, #744]
 864 0616 C3F80425 		str	r2, [r3, #1284]
 865              		.loc 1 141 0
 866 061a D0F8EC22 		ldr	r2, [r0, #748]
 867 061e C3F80825 		str	r2, [r3, #1288]
 868              		.loc 1 142 0
 869 0622 D0F8F022 		ldr	r2, [r0, #752]
 870 0626 C3F80C25 		str	r2, [r3, #1292]
 871              		.loc 1 143 0
 872 062a D0F8F422 		ldr	r2, [r0, #756]
 873 062e C3F81025 		str	r2, [r3, #1296]
 874              		.loc 1 144 0
 875 0632 D0F8F822 		ldr	r2, [r0, #760]
 876 0636 C3F81425 		str	r2, [r3, #1300]
 877              		.loc 1 145 0
 878 063a D0F8FC22 		ldr	r2, [r0, #764]
 879 063e C3F81825 		str	r2, [r3, #1304]
 880              		.loc 1 146 0
 881 0642 D0F80023 		ldr	r2, [r0, #768]
 882 0646 C3F81C25 		str	r2, [r3, #1308]
 883              		.loc 1 147 0
 884 064a D0F80423 		ldr	r2, [r0, #772]
 885 064e C3F82825 		str	r2, [r3, #1320]
 886              		.loc 1 148 0
 887 0652 D0F80823 		ldr	r2, [r0, #776]
 888 0656 C3F82C25 		str	r2, [r3, #1324]
 889              	.LBE85:
 890              	.LBE84:
 891              		.loc 1 241 0
 892 065a 70BC     		pop	{r4, r5, r6}
 893 065c 7047     		bx	lr
 894              	.L7:
 895 065e 00BF     		.align	2
 896              	.L6:
 897 0660 00100640 		.word	1074139136
 898              		.cfi_endproc
 899              	.LFE119:
 900              		.size	_pal_lld_init, .-_pal_lld_init
 901 0664 AFF30080 		.section	.text._pal_lld_setgroupmode,"ax",%progbits
 901      AFF30080 
 901      AFF30080 
 902              		.align	2
 903              		.p2align 4,,15
 904              		.global	_pal_lld_setgroupmode
 905              		.thumb
 906              		.thumb_func
 907              		.type	_pal_lld_setgroupmode, %function
ARM GAS  /tmp/ccs6HPrS.s 			page 17


 908              	_pal_lld_setgroupmode:
 909              	.LFB120:
 910              		.loc 1 257 0
 911              		.cfi_startproc
 912              		@ args = 0, pretend = 0, frame = 0
 913              		@ frame_needed = 0, uses_anonymous_args = 0
 914              		@ link register save eliminated.
 915              	.LVL18:
 916 0000 7047     		bx	lr
 917              		.cfi_endproc
 918              	.LFE120:
 919              		.size	_pal_lld_setgroupmode, .-_pal_lld_setgroupmode
 920 0002 00BFAFF3 		.text
 920      0080AFF3 
 920      0080AFF3 
 920      0080
 921              	.Letext0:
 922              		.file 3 "/usr/include/newlib/machine/_default_types.h"
 923              		.file 4 "/usr/include/newlib/stdint.h"
 924              		.file 5 "../../os/ports/GCC/ARMCMx/TM4C129x/tm4c129x.h"
 925              		.file 6 "../../os/hal/platforms/TM4C129x/pal_lld.h"
 926              		.file 7 "../../os/ports/common/ARMCMx/CMSIS/include/core_cm4.h"