ARM GAS  /tmp/cc43DkP6.s 			page 1


   1              		.syntax unified
   2              		.cpu cortex-m4
   3              		.fpu softvfp
   4              		.eabi_attribute 20, 1
   5              		.eabi_attribute 21, 1
   6              		.eabi_attribute 23, 3
   7              		.eabi_attribute 24, 1
   8              		.eabi_attribute 25, 1
   9              		.eabi_attribute 26, 1
  10              		.eabi_attribute 30, 2
  11              		.eabi_attribute 34, 1
  12              		.eabi_attribute 18, 4
  13              		.thumb
  14              		.file	"testdyn.c"
  15              		.text
  16              	.Ltext0:
  17              		.cfi_sections	.debug_frame
  18              		.section	.text.dyn1_execute,"ax",%progbits
  19              		.align	2
  20              		.p2align 4,,15
  21              		.thumb
  22              		.thumb_func
  23              		.type	dyn1_execute, %function
  24              	dyn1_execute:
  25              	.LFB120:
  26              		.file 1 "../../test/testdyn.c"
  27              		.loc 1 83 0
  28              		.cfi_startproc
  29              		@ args = 0, pretend = 0, frame = 8
  30              		@ frame_needed = 0, uses_anonymous_args = 0
  31 0000 70B5     		push	{r4, r5, r6, lr}
  32              		.cfi_def_cfa_offset 16
  33              		.cfi_offset 4, -16
  34              		.cfi_offset 5, -12
  35              		.cfi_offset 6, -8
  36              		.cfi_offset 14, -4
  37              		.loc 1 86 0
  38 0002 334B     		ldr	r3, .L12
  39              		.loc 1 88 0
  40 0004 3348     		ldr	r0, .L12+4
  41              		.loc 1 86 0
  42 0006 9B69     		ldr	r3, [r3, #24]
  43              		.loc 1 90 0
  44 0008 334C     		ldr	r4, .L12+8
  45              		.loc 1 86 0
  46 000a 9D68     		ldr	r5, [r3, #8]
  47              	.LVL0:
  48              		.loc 1 83 0
  49 000c 84B0     		sub	sp, sp, #16
  50              		.cfi_def_cfa_offset 32
  51              		.loc 1 88 0
  52 000e 03A9     		add	r1, sp, #12
  53 0010 FFF7FEFF 		bl	chHeapStatus
  54              	.LVL1:
  55              		.loc 1 90 0
  56 0014 314B     		ldr	r3, .L12+12
  57 0016 0093     		str	r3, [sp]
ARM GAS  /tmp/cc43DkP6.s 			page 2


  58 0018 6A1E     		subs	r2, r5, #1
  59 001a 314B     		ldr	r3, .L12+16
  60 001c 2D48     		ldr	r0, .L12+4
  61 001e 4FF4A871 		mov	r1, #336
  62 0022 FFF7FEFF 		bl	chThdCreateFromHeap
  63              	.LVL2:
  64              		.loc 1 92 0
  65 0026 2F4B     		ldr	r3, .L12+20
  66              		.loc 1 90 0
  67 0028 2060     		str	r0, [r4]
  68              		.loc 1 92 0
  69 002a AA1E     		subs	r2, r5, #2
  70 002c 0093     		str	r3, [sp]
  71 002e 4FF4A871 		mov	r1, #336
  72 0032 2B4B     		ldr	r3, .L12+16
  73 0034 2748     		ldr	r0, .L12+4
  74 0036 FFF7FEFF 		bl	chThdCreateFromHeap
  75              	.LVL3:
  76              		.loc 1 95 0
  77 003a 02A9     		add	r1, sp, #8
  78              		.loc 1 92 0
  79 003c 6060     		str	r0, [r4, #4]
  80              		.loc 1 95 0
  81 003e 2548     		ldr	r0, .L12+4
  82 0040 FFF7FEFF 		bl	chHeapStatus
  83              	.LVL4:
  84              		.loc 1 96 0
  85 0044 0299     		ldr	r1, [sp, #8]
  86 0046 2348     		ldr	r0, .L12+4
  87 0048 FFF7FEFF 		bl	chHeapAlloc
  88              	.LVL5:
  89              		.loc 1 97 0
  90 004c 264B     		ldr	r3, .L12+24
  91 004e 0093     		str	r3, [sp]
  92 0050 4FF4A871 		mov	r1, #336
  93              		.loc 1 96 0
  94 0054 0646     		mov	r6, r0
  95              	.LVL6:
  96              		.loc 1 97 0
  97 0056 EA1E     		subs	r2, r5, #3
  98 0058 214B     		ldr	r3, .L12+16
  99 005a 1E48     		ldr	r0, .L12+4
 100              	.LVL7:
 101 005c FFF7FEFF 		bl	chThdCreateFromHeap
 102              	.LVL8:
 103 0060 A060     		str	r0, [r4, #8]
 104              		.loc 1 99 0
 105 0062 3046     		mov	r0, r6
 106 0064 FFF7FEFF 		bl	chHeapFree
 107              	.LVL9:
 108              		.loc 1 101 0
 109 0068 2168     		ldr	r1, [r4]
 110 006a 21B1     		cbz	r1, .L2
 111              		.loc 1 101 0 is_stmt 0 discriminator 1
 112 006c 6168     		ldr	r1, [r4, #4]
 113 006e 11B1     		cbz	r1, .L2
 114 0070 A168     		ldr	r1, [r4, #8]
ARM GAS  /tmp/cc43DkP6.s 			page 3


 115 0072 19B3     		cbz	r1, .L10
 116 0074 0021     		movs	r1, #0
 117              	.L2:
 118              		.loc 1 101 0 discriminator 4
 119 0076 0120     		movs	r0, #1
 120 0078 FFF7FEFF 		bl	_test_assert
 121              	.LVL10:
 122 007c 08B1     		cbz	r0, .L11
 123              	.L1:
 124              		.loc 1 115 0 is_stmt 1
 125 007e 04B0     		add	sp, sp, #16
 126              		@ sp needed
 127 0080 70BD     		pop	{r4, r5, r6, pc}
 128              	.LVL11:
 129              	.L11:
 130              		.loc 1 109 0
 131 0082 FFF7FEFF 		bl	test_wait_threads
 132              	.LVL12:
 133              		.loc 1 110 0
 134 0086 0220     		movs	r0, #2
 135 0088 1849     		ldr	r1, .L12+28
 136 008a FFF7FEFF 		bl	_test_assert_sequence
 137              	.LVL13:
 138 008e 0028     		cmp	r0, #0
 139 0090 F5D1     		bne	.L1
 140              		.loc 1 113 0
 141 0092 02A9     		add	r1, sp, #8
 142 0094 0F48     		ldr	r0, .L12+4
 143 0096 FFF7FEFF 		bl	chHeapStatus
 144              	.LVL14:
 145 009a 421E     		subs	r2, r0, #1
 146 009c 5142     		rsbs	r1, r2, #0
 147 009e 5141     		adcs	r1, r1, r2
 148 00a0 0320     		movs	r0, #3
 149 00a2 FFF7FEFF 		bl	_test_assert
 150              	.LVL15:
 151 00a6 0028     		cmp	r0, #0
 152 00a8 E9D1     		bne	.L1
 153              		.loc 1 114 0
 154 00aa 0299     		ldr	r1, [sp, #8]
 155 00ac 039B     		ldr	r3, [sp, #12]
 156 00ae CB1A     		subs	r3, r1, r3
 157 00b0 5942     		rsbs	r1, r3, #0
 158 00b2 5941     		adcs	r1, r1, r3
 159 00b4 0420     		movs	r0, #4
 160 00b6 FFF7FEFF 		bl	_test_assert
 161              	.LVL16:
 162 00ba E0E7     		b	.L1
 163              	.L10:
 164              		.loc 1 101 0 discriminator 1
 165 00bc E368     		ldr	r3, [r4, #12]
 166 00be 002B     		cmp	r3, #0
 167 00c0 D9D1     		bne	.L2
 168 00c2 2169     		ldr	r1, [r4, #16]
 169 00c4 D1F10101 		rsbs	r1, r1, #1
 170 00c8 38BF     		it	cc
 171 00ca 0021     		movcc	r1, #0
ARM GAS  /tmp/cc43DkP6.s 			page 4


 172 00cc D3E7     		b	.L2
 173              	.L13:
 174 00ce 00BF     		.align	2
 175              	.L12:
 176 00d0 00000000 		.word	rlist
 177 00d4 00000000 		.word	.LANCHOR0
 178 00d8 00000000 		.word	threads
 179 00dc 00000000 		.word	.LC0
 180 00e0 00000000 		.word	thread
 181 00e4 04000000 		.word	.LC1
 182 00e8 08000000 		.word	.LC2
 183 00ec 0C000000 		.word	.LC3
 184              		.cfi_endproc
 185              	.LFE120:
 186              		.size	dyn1_execute, .-dyn1_execute
 187              		.section	.text.thread,"ax",%progbits
 188              		.align	2
 189              		.p2align 4,,15
 190              		.thumb
 191              		.thumb_func
 192              		.type	thread, %function
 193              	thread:
 194              	.LFB118:
 195              		.loc 1 71 0
 196              		.cfi_startproc
 197              		@ args = 0, pretend = 0, frame = 0
 198              		@ frame_needed = 0, uses_anonymous_args = 0
 199              	.LVL17:
 200 0000 08B5     		push	{r3, lr}
 201              		.cfi_def_cfa_offset 8
 202              		.cfi_offset 3, -8
 203              		.cfi_offset 14, -4
 204              		.loc 1 73 0
 205 0002 0078     		ldrb	r0, [r0]	@ zero_extendqisi2
 206              	.LVL18:
 207 0004 FFF7FEFF 		bl	test_emit_token
 208              	.LVL19:
 209              		.loc 1 75 0
 210 0008 0020     		movs	r0, #0
 211 000a 08BD     		pop	{r3, pc}
 212              		.cfi_endproc
 213              	.LFE118:
 214              		.size	thread, .-thread
 215 000c AFF30080 		.section	.text.dyn1_setup,"ax",%progbits
 216              		.align	2
 217              		.p2align 4,,15
 218              		.thumb
 219              		.thumb_func
 220              		.type	dyn1_setup, %function
 221              	dyn1_setup:
 222              	.LFB119:
 223              		.loc 1 78 0
 224              		.cfi_startproc
 225              		@ args = 0, pretend = 0, frame = 0
 226              		@ frame_needed = 0, uses_anonymous_args = 0
 227              		@ link register save eliminated.
 228              		.loc 1 80 0
ARM GAS  /tmp/cc43DkP6.s 			page 5


 229 0000 0248     		ldr	r0, .L16
 230 0002 0349     		ldr	r1, .L16+4
 231 0004 4FF4D262 		mov	r2, #1680
 232 0008 FFF7FEBF 		b	chHeapInit
 233              	.LVL20:
 234              	.L17:
 235              		.align	2
 236              	.L16:
 237 000c 00000000 		.word	.LANCHOR0
 238 0010 00000000 		.word	test
 239              		.cfi_endproc
 240              	.LFE119:
 241              		.size	dyn1_setup, .-dyn1_setup
 242 0014 AFF30080 		.section	.text.dyn3_setup,"ax",%progbits
 242      AFF30080 
 242      AFF30080 
 243              		.align	2
 244              		.p2align 4,,15
 245              		.thumb
 246              		.thumb_func
 247              		.type	dyn3_setup, %function
 248              	dyn3_setup:
 249              	.LFB124:
 250              		.loc 1 203 0
 251              		.cfi_startproc
 252              		@ args = 0, pretend = 0, frame = 0
 253              		@ frame_needed = 0, uses_anonymous_args = 0
 254              		@ link register save eliminated.
 255              		.loc 1 205 0
 256 0000 0248     		ldr	r0, .L19
 257 0002 0349     		ldr	r1, .L19+4
 258 0004 4FF4D262 		mov	r2, #1680
 259 0008 FFF7FEBF 		b	chHeapInit
 260              	.LVL21:
 261              	.L20:
 262              		.align	2
 263              	.L19:
 264 000c 00000000 		.word	.LANCHOR0
 265 0010 00000000 		.word	test
 266              		.cfi_endproc
 267              	.LFE124:
 268              		.size	dyn3_setup, .-dyn3_setup
 269 0014 AFF30080 		.section	.text.dyn2_execute,"ax",%progbits
 269      AFF30080 
 269      AFF30080 
 270              		.align	2
 271              		.p2align 4,,15
 272              		.thumb
 273              		.thumb_func
 274              		.type	dyn2_execute, %function
 275              	dyn2_execute:
 276              	.LFB122:
 277              		.loc 1 141 0
 278              		.cfi_startproc
 279              		@ args = 0, pretend = 0, frame = 0
 280              		@ frame_needed = 0, uses_anonymous_args = 0
 281              		.loc 1 143 0
ARM GAS  /tmp/cc43DkP6.s 			page 6


 282 0000 324B     		ldr	r3, .L35
 283 0002 9B69     		ldr	r3, [r3, #24]
 284              		.loc 1 141 0
 285 0004 70B5     		push	{r4, r5, r6, lr}
 286              		.cfi_def_cfa_offset 16
 287              		.cfi_offset 4, -16
 288              		.cfi_offset 5, -12
 289              		.cfi_offset 6, -8
 290              		.cfi_offset 14, -4
 291 0006 324C     		ldr	r4, .L35+4
 292              		.loc 1 143 0
 293 0008 9D68     		ldr	r5, [r3, #8]
 294              	.LVL22:
 295 000a 04F11006 		add	r6, r4, #16
 296              	.LVL23:
 297              	.L23:
 298              		.loc 1 147 0 discriminator 2
 299 000e 54F8041F 		ldr	r1, [r4, #4]!
 300 0012 3048     		ldr	r0, .L35+8
 301 0014 FFF7FEFF 		bl	chPoolFree
 302              	.LVL24:
 303              		.loc 1 146 0 discriminator 2
 304 0018 B442     		cmp	r4, r6
 305 001a F8D1     		bne	.L23
 306              		.loc 1 150 0
 307 001c 2E4A     		ldr	r2, .L35+12
 308 001e 2F4B     		ldr	r3, .L35+16
 309 0020 2C48     		ldr	r0, .L35+8
 310 0022 2F4C     		ldr	r4, .L35+20
 311 0024 691E     		subs	r1, r5, #1
 312 0026 FFF7FEFF 		bl	chThdCreateFromMemoryPool
 313              	.LVL25:
 314              		.loc 1 151 0
 315 002a A91E     		subs	r1, r5, #2
 316              		.loc 1 150 0
 317 002c 2060     		str	r0, [r4]
 318              		.loc 1 151 0
 319 002e 2A4A     		ldr	r2, .L35+12
 320 0030 2C4B     		ldr	r3, .L35+24
 321 0032 2848     		ldr	r0, .L35+8
 322 0034 FFF7FEFF 		bl	chThdCreateFromMemoryPool
 323              	.LVL26:
 324              		.loc 1 152 0
 325 0038 E91E     		subs	r1, r5, #3
 326              		.loc 1 151 0
 327 003a 6060     		str	r0, [r4, #4]
 328              		.loc 1 152 0
 329 003c 264A     		ldr	r2, .L35+12
 330 003e 2A4B     		ldr	r3, .L35+28
 331 0040 2448     		ldr	r0, .L35+8
 332 0042 FFF7FEFF 		bl	chThdCreateFromMemoryPool
 333              	.LVL27:
 334              		.loc 1 153 0
 335 0046 291F     		subs	r1, r5, #4
 336              		.loc 1 152 0
 337 0048 A060     		str	r0, [r4, #8]
 338              		.loc 1 153 0
ARM GAS  /tmp/cc43DkP6.s 			page 7


 339 004a 234A     		ldr	r2, .L35+12
 340 004c 274B     		ldr	r3, .L35+32
 341 004e 2148     		ldr	r0, .L35+8
 342 0050 FFF7FEFF 		bl	chThdCreateFromMemoryPool
 343              	.LVL28:
 344              		.loc 1 154 0
 345 0054 691F     		subs	r1, r5, #5
 346              		.loc 1 153 0
 347 0056 E060     		str	r0, [r4, #12]
 348              		.loc 1 154 0
 349 0058 1F4A     		ldr	r2, .L35+12
 350 005a 1E48     		ldr	r0, .L35+8
 351 005c 244B     		ldr	r3, .L35+36
 352 005e FFF7FEFF 		bl	chThdCreateFromMemoryPool
 353              	.LVL29:
 354              		.loc 1 156 0
 355 0062 2168     		ldr	r1, [r4]
 356              		.loc 1 154 0
 357 0064 2061     		str	r0, [r4, #16]
 358              		.loc 1 156 0
 359 0066 49B1     		cbz	r1, .L24
 360              		.loc 1 156 0 is_stmt 0 discriminator 1
 361 0068 6168     		ldr	r1, [r4, #4]
 362 006a 39B1     		cbz	r1, .L24
 363 006c A168     		ldr	r1, [r4, #8]
 364 006e 29B1     		cbz	r1, .L24
 365 0070 E168     		ldr	r1, [r4, #12]
 366 0072 19B1     		cbz	r1, .L24
 367 0074 D0F10101 		rsbs	r1, r0, #1
 368 0078 38BF     		it	cc
 369 007a 0021     		movcc	r1, #0
 370              	.L24:
 371              		.loc 1 156 0 discriminator 4
 372 007c 0120     		movs	r0, #1
 373 007e FFF7FEFF 		bl	_test_assert
 374              	.LVL30:
 375 0082 00B1     		cbz	r0, .L34
 376              	.L21:
 377 0084 70BD     		pop	{r4, r5, r6, pc}
 378              	.LVL31:
 379              	.L34:
 380              		.loc 1 164 0 is_stmt 1
 381 0086 FFF7FEFF 		bl	test_wait_threads
 382              	.LVL32:
 383              		.loc 1 165 0
 384 008a 0220     		movs	r0, #2
 385 008c 1949     		ldr	r1, .L35+40
 386 008e FFF7FEFF 		bl	_test_assert_sequence
 387              	.LVL33:
 388 0092 0028     		cmp	r0, #0
 389 0094 F6D1     		bne	.L21
 390 0096 0424     		movs	r4, #4
 391              	.L29:
 392              	.LVL34:
 393              		.loc 1 169 0
 394 0098 0E48     		ldr	r0, .L35+8
 395 009a FFF7FEFF 		bl	chPoolAlloc
ARM GAS  /tmp/cc43DkP6.s 			page 8


 396              	.LVL35:
 397 009e 011C     		adds	r1, r0, #0
 398 00a0 18BF     		it	ne
 399 00a2 0121     		movne	r1, #1
 400 00a4 0320     		movs	r0, #3
 401 00a6 FFF7FEFF 		bl	_test_assert
 402              	.LVL36:
 403 00aa 0028     		cmp	r0, #0
 404 00ac EAD1     		bne	.L21
 405              		.loc 1 168 0
 406 00ae 013C     		subs	r4, r4, #1
 407              	.LVL37:
 408 00b0 F2D1     		bne	.L29
 409              		.loc 1 170 0
 410 00b2 0848     		ldr	r0, .L35+8
 411 00b4 FFF7FEFF 		bl	chPoolAlloc
 412              	.LVL38:
 413 00b8 D0F10101 		rsbs	r1, r0, #1
 414 00bc 38BF     		it	cc
 415 00be 0021     		movcc	r1, #0
 416 00c0 0420     		movs	r0, #4
 417              		.loc 1 171 0
 418 00c2 BDE87040 		pop	{r4, r5, r6, lr}
 419              	.LVL39:
 420              		.loc 1 170 0
 421 00c6 FFF7FEBF 		b	_test_assert
 422              	.LVL40:
 423              	.L36:
 424 00ca 00BF     		.align	2
 425              	.L35:
 426 00cc 00000000 		.word	rlist
 427 00d0 FCFFFFFF 		.word	wa-4
 428 00d4 00000000 		.word	.LANCHOR1
 429 00d8 00000000 		.word	thread
 430 00dc 00000000 		.word	.LC0
 431 00e0 00000000 		.word	threads
 432 00e4 04000000 		.word	.LC1
 433 00e8 08000000 		.word	.LC2
 434 00ec 10000000 		.word	.LC4
 435 00f0 14000000 		.word	.LC5
 436 00f4 18000000 		.word	.LC6
 437              		.cfi_endproc
 438              	.LFE122:
 439              		.size	dyn2_execute, .-dyn2_execute
 440 00f8 AFF30080 		.section	.text.dyn2_setup,"ax",%progbits
 440      AFF30080 
 441              		.align	2
 442              		.p2align 4,,15
 443              		.thumb
 444              		.thumb_func
 445              		.type	dyn2_setup, %function
 446              	dyn2_setup:
 447              	.LFB121:
 448              		.loc 1 136 0
 449              		.cfi_startproc
 450              		@ args = 0, pretend = 0, frame = 0
 451              		@ frame_needed = 0, uses_anonymous_args = 0
ARM GAS  /tmp/cc43DkP6.s 			page 9


 452              		@ link register save eliminated.
 453              		.loc 1 138 0
 454 0000 0248     		ldr	r0, .L38
 455 0002 4FF4A871 		mov	r1, #336
 456 0006 0022     		movs	r2, #0
 457 0008 FFF7FEBF 		b	chPoolInit
 458              	.LVL41:
 459              	.L39:
 460              		.align	2
 461              	.L38:
 462 000c 00000000 		.word	.LANCHOR1
 463              		.cfi_endproc
 464              	.LFE121:
 465              		.size	dyn2_setup, .-dyn2_setup
 466              		.section	.text.regfind,"ax",%progbits
 467              		.align	2
 468              		.p2align 4,,15
 469              		.thumb
 470              		.thumb_func
 471              		.type	regfind, %function
 472              	regfind:
 473              	.LFB123:
 474              		.loc 1 191 0
 475              		.cfi_startproc
 476              		@ args = 0, pretend = 0, frame = 0
 477              		@ frame_needed = 0, uses_anonymous_args = 0
 478              	.LVL42:
 479 0000 38B5     		push	{r3, r4, r5, lr}
 480              		.cfi_def_cfa_offset 16
 481              		.cfi_offset 3, -16
 482              		.cfi_offset 4, -12
 483              		.cfi_offset 5, -8
 484              		.cfi_offset 14, -4
 485              		.loc 1 191 0
 486 0002 0546     		mov	r5, r0
 487              		.loc 1 195 0
 488 0004 FFF7FEFF 		bl	chRegFirstThread
 489              	.LVL43:
 490              		.loc 1 193 0
 491 0008 0024     		movs	r4, #0
 492              		.loc 1 195 0
 493 000a 0346     		mov	r3, r0
 494              	.LVL44:
 495              	.L42:
 496              		.loc 1 198 0 discriminator 1
 497 000c 1846     		mov	r0, r3
 498              		.loc 1 197 0 discriminator 1
 499 000e AB42     		cmp	r3, r5
 500 0010 08BF     		it	eq
 501 0012 44F00104 		orreq	r4, r4, #1
 502              	.LVL45:
 503              		.loc 1 198 0 discriminator 1
 504 0016 FFF7FEFF 		bl	chRegNextThread
 505              	.LVL46:
 506              		.loc 1 199 0 discriminator 1
 507 001a 0346     		mov	r3, r0
 508 001c 0028     		cmp	r0, #0
ARM GAS  /tmp/cc43DkP6.s 			page 10


 509 001e F5D1     		bne	.L42
 510              		.loc 1 201 0
 511 0020 2046     		mov	r0, r4
 512              	.LVL47:
 513 0022 38BD     		pop	{r3, r4, r5, pc}
 514              		.cfi_endproc
 515              	.LFE123:
 516              		.size	regfind, .-regfind
 517 0024 AFF30080 		.section	.text.dyn3_execute,"ax",%progbits
 517      AFF30080 
 517      AFF30080 
 518              		.align	2
 519              		.p2align 4,,15
 520              		.thumb
 521              		.thumb_func
 522              		.type	dyn3_execute, %function
 523              	dyn3_execute:
 524              	.LFB125:
 525              		.loc 1 208 0
 526              		.cfi_startproc
 527              		@ args = 0, pretend = 0, frame = 0
 528              		@ frame_needed = 0, uses_anonymous_args = 0
 529              	.LVL48:
 530 0000 10B5     		push	{r4, lr}
 531              		.cfi_def_cfa_offset 8
 532              		.cfi_offset 4, -8
 533              		.cfi_offset 14, -4
 534              		.loc 1 210 0
 535 0002 4A4B     		ldr	r3, .L48
 536              		.loc 1 213 0
 537 0004 4A49     		ldr	r1, .L48+4
 538              		.loc 1 210 0
 539 0006 9B69     		ldr	r3, [r3, #24]
 540              		.loc 1 213 0
 541 0008 4A48     		ldr	r0, .L48+8
 542 000a 9A68     		ldr	r2, [r3, #8]
 543 000c 4A4B     		ldr	r3, .L48+12
 544              		.loc 1 208 0
 545 000e 82B0     		sub	sp, sp, #8
 546              		.cfi_def_cfa_offset 16
 547              		.loc 1 213 0
 548 0010 013A     		subs	r2, r2, #1
 549 0012 0091     		str	r1, [sp]
 550              	.LVL49:
 551 0014 4FF4A871 		mov	r1, #336
 552 0018 FFF7FEFF 		bl	chThdCreateFromHeap
 553              	.LVL50:
 554 001c 0446     		mov	r4, r0
 555              	.LVL51:
 556              		.loc 1 214 0
 557 001e 0120     		movs	r0, #1
 558              	.LVL52:
 559 0020 A17F     		ldrb	r1, [r4, #30]	@ zero_extendqisi2
 560 0022 B1EB000C 		subs	ip, r1, r0
 561 0026 DCF10001 		rsbs	r1, ip, #0
 562 002a 51EB0C01 		adcs	r1, r1, ip
 563 002e FFF7FEFF 		bl	_test_assert
ARM GAS  /tmp/cc43DkP6.s 			page 11


 564              	.LVL53:
 565 0032 08B1     		cbz	r0, .L47
 566              	.L43:
 567              		.loc 1 236 0
 568 0034 02B0     		add	sp, sp, #8
 569              		@ sp needed
 570 0036 10BD     		pop	{r4, pc}
 571              	.LVL54:
 572              	.L47:
 573              		.loc 1 215 0
 574 0038 2046     		mov	r0, r4
 575 003a FFF7FEFF 		bl	chThdAddRef
 576              	.LVL55:
 577              		.loc 1 216 0
 578 003e A17F     		ldrb	r1, [r4, #30]	@ zero_extendqisi2
 579 0040 0220     		movs	r0, #2
 580 0042 B1EB000E 		subs	lr, r1, r0
 581 0046 DEF10001 		rsbs	r1, lr, #0
 582 004a 51EB0E01 		adcs	r1, r1, lr
 583 004e FFF7FEFF 		bl	_test_assert
 584              	.LVL56:
 585 0052 0028     		cmp	r0, #0
 586 0054 EED1     		bne	.L43
 587              		.loc 1 217 0
 588 0056 2046     		mov	r0, r4
 589 0058 FFF7FEFF 		bl	chThdRelease
 590              	.LVL57:
 591              		.loc 1 218 0
 592 005c A17F     		ldrb	r1, [r4, #30]	@ zero_extendqisi2
 593 005e 4A1E     		subs	r2, r1, #1
 594 0060 5142     		rsbs	r1, r2, #0
 595 0062 5141     		adcs	r1, r1, r2
 596 0064 0320     		movs	r0, #3
 597 0066 FFF7FEFF 		bl	_test_assert
 598              	.LVL58:
 599 006a 0028     		cmp	r0, #0
 600 006c E2D1     		bne	.L43
 601              		.loc 1 221 0
 602 006e 2046     		mov	r0, r4
 603 0070 FFF7FEFF 		bl	regfind
 604              	.LVL59:
 605 0074 0146     		mov	r1, r0
 606 0076 0420     		movs	r0, #4
 607 0078 FFF7FEFF 		bl	_test_assert
 608              	.LVL60:
 609 007c 0028     		cmp	r0, #0
 610 007e D9D1     		bne	.L43
 611              		.loc 1 222 0
 612 0080 2046     		mov	r0, r4
 613 0082 FFF7FEFF 		bl	regfind
 614              	.LVL61:
 615 0086 0146     		mov	r1, r0
 616 0088 0520     		movs	r0, #5
 617 008a FFF7FEFF 		bl	_test_assert
 618              	.LVL62:
 619 008e 0028     		cmp	r0, #0
 620 0090 D0D1     		bne	.L43
ARM GAS  /tmp/cc43DkP6.s 			page 12


 621              		.loc 1 225 0
 622 0092 2046     		mov	r0, r4
 623 0094 FFF7FEFF 		bl	chThdRelease
 624              	.LVL63:
 625              		.loc 1 226 0
 626 0098 A17F     		ldrb	r1, [r4, #30]	@ zero_extendqisi2
 627 009a D1F10101 		rsbs	r1, r1, #1
 628 009e 38BF     		it	cc
 629 00a0 0021     		movcc	r1, #0
 630 00a2 0620     		movs	r0, #6
 631 00a4 FFF7FEFF 		bl	_test_assert
 632              	.LVL64:
 633 00a8 0028     		cmp	r0, #0
 634 00aa C3D1     		bne	.L43
 635              		.loc 1 227 0
 636 00ac 217F     		ldrb	r1, [r4, #28]	@ zero_extendqisi2
 637 00ae D1F10101 		rsbs	r1, r1, #1
 638 00b2 38BF     		it	cc
 639 00b4 0021     		movcc	r1, #0
 640 00b6 0720     		movs	r0, #7
 641 00b8 FFF7FEFF 		bl	_test_assert
 642              	.LVL65:
 643 00bc 0028     		cmp	r0, #0
 644 00be B9D1     		bne	.L43
 645              		.loc 1 228 0
 646 00c0 2046     		mov	r0, r4
 647 00c2 FFF7FEFF 		bl	regfind
 648              	.LVL66:
 649 00c6 0146     		mov	r1, r0
 650 00c8 0820     		movs	r0, #8
 651 00ca FFF7FEFF 		bl	_test_assert
 652              	.LVL67:
 653 00ce 0028     		cmp	r0, #0
 654 00d0 B0D1     		bne	.L43
 655              		.loc 1 229 0
 656 00d2 2046     		mov	r0, r4
 657 00d4 FFF7FEFF 		bl	regfind
 658              	.LVL68:
 659 00d8 0146     		mov	r1, r0
 660 00da 0920     		movs	r0, #9
 661 00dc FFF7FEFF 		bl	_test_assert
 662              	.LVL69:
 663 00e0 0028     		cmp	r0, #0
 664 00e2 A7D1     		bne	.L43
 665              		.loc 1 230 0
 666 00e4 4FF4FA70 		mov	r0, #500
 667 00e8 FFF7FEFF 		bl	chThdSleep
 668              	.LVL70:
 669              		.loc 1 231 0
 670 00ec 217F     		ldrb	r1, [r4, #28]	@ zero_extendqisi2
 671 00ee B1F10E03 		subs	r3, r1, #14
 672 00f2 5942     		rsbs	r1, r3, #0
 673 00f4 5941     		adcs	r1, r1, r3
 674 00f6 0A20     		movs	r0, #10
 675 00f8 FFF7FEFF 		bl	_test_assert
 676              	.LVL71:
 677 00fc 0028     		cmp	r0, #0
ARM GAS  /tmp/cc43DkP6.s 			page 13


 678 00fe 99D1     		bne	.L43
 679              		.loc 1 234 0
 680 0100 2046     		mov	r0, r4
 681 0102 FFF7FEFF 		bl	regfind
 682              	.LVL72:
 683 0106 0146     		mov	r1, r0
 684 0108 0B20     		movs	r0, #11
 685 010a FFF7FEFF 		bl	_test_assert
 686              	.LVL73:
 687 010e 0028     		cmp	r0, #0
 688 0110 90D1     		bne	.L43
 689              		.loc 1 235 0
 690 0112 2046     		mov	r0, r4
 691 0114 FFF7FEFF 		bl	regfind
 692              	.LVL74:
 693 0118 80F00101 		eor	r1, r0, #1
 694 011c C9B2     		uxtb	r1, r1
 695 011e 0C20     		movs	r0, #12
 696              		.loc 1 236 0
 697 0120 02B0     		add	sp, sp, #8
 698              		@ sp needed
 699 0122 BDE81040 		pop	{r4, lr}
 700              	.LVL75:
 701              		.loc 1 235 0
 702 0126 FFF7FEBF 		b	_test_assert
 703              	.LVL76:
 704              	.L49:
 705 012a 00BF     		.align	2
 706              	.L48:
 707 012c 00000000 		.word	rlist
 708 0130 00000000 		.word	.LC0
 709 0134 00000000 		.word	.LANCHOR0
 710 0138 00000000 		.word	thread
 711              		.cfi_endproc
 712              	.LFE125:
 713              		.size	dyn3_execute, .-dyn3_execute
 714              		.global	patterndyn
 715              		.global	testdyn3
 716              		.global	testdyn2
 717              		.global	testdyn1
 718 013c AFF30080 		.section	.rodata.testdyn1,"a",%progbits
 719              		.align	2
 720              		.type	testdyn1, %object
 721              		.size	testdyn1, 16
 722              	testdyn1:
 723 0000 78000000 		.word	.LC9
 724 0004 00000000 		.word	dyn1_setup
 725 0008 00000000 		.word	0
 726 000c 00000000 		.word	dyn1_execute
 727              		.section	.rodata.testdyn2,"a",%progbits
 728              		.align	2
 729              		.type	testdyn2, %object
 730              		.size	testdyn2, 16
 731              	testdyn2:
 732 0000 48000000 		.word	.LC8
 733 0004 00000000 		.word	dyn2_setup
 734 0008 00000000 		.word	0
ARM GAS  /tmp/cc43DkP6.s 			page 14


 735 000c 00000000 		.word	dyn2_execute
 736              		.section	.rodata.testdyn3,"a",%progbits
 737              		.align	2
 738              		.type	testdyn3, %object
 739              		.size	testdyn3, 16
 740              	testdyn3:
 741 0000 20000000 		.word	.LC7
 742 0004 00000000 		.word	dyn3_setup
 743 0008 00000000 		.word	0
 744 000c 00000000 		.word	dyn3_execute
 745              		.section	.bss.mp1,"aw",%nobits
 746              		.align	2
 747              		.set	.LANCHOR1,. + 0
 748              		.type	mp1, %object
 749              		.size	mp1, 12
 750              	mp1:
 751 0000 00000000 		.space	12
 751      00000000 
 751      00000000 
 752              		.section	.rodata.str1.4,"aMS",%progbits,1
 753              		.align	2
 754              	.LC0:
 755 0000 4100     		.ascii	"A\000"
 756 0002 0000     		.space	2
 757              	.LC1:
 758 0004 4200     		.ascii	"B\000"
 759 0006 0000     		.space	2
 760              	.LC2:
 761 0008 4300     		.ascii	"C\000"
 762 000a 0000     		.space	2
 763              	.LC3:
 764 000c 414200   		.ascii	"AB\000"
 765 000f 00       		.space	1
 766              	.LC4:
 767 0010 4400     		.ascii	"D\000"
 768 0012 0000     		.space	2
 769              	.LC5:
 770 0014 4500     		.ascii	"E\000"
 771 0016 0000     		.space	2
 772              	.LC6:
 773 0018 41424344 		.ascii	"ABCD\000"
 773      00
 774 001d 000000   		.space	3
 775              	.LC7:
 776 0020 44796E61 		.ascii	"Dynamic APIs, registry and references\000"
 776      6D696320 
 776      41504973 
 776      2C207265 
 776      67697374 
 777 0046 0000     		.space	2
 778              	.LC8:
 779 0048 44796E61 		.ascii	"Dynamic APIs, threads creation from memory pool\000"
 779      6D696320 
 779      41504973 
 779      2C207468 
 779      72656164 
 780              	.LC9:
ARM GAS  /tmp/cc43DkP6.s 			page 15


 781 0078 44796E61 		.ascii	"Dynamic APIs, threads creation from heap\000"
 781      6D696320 
 781      41504973 
 781      2C207468 
 781      72656164 
 782 00a1 000000   		.section	.rodata.patterndyn,"a",%progbits
 783              		.align	2
 784              		.type	patterndyn, %object
 785              		.size	patterndyn, 16
 786              	patterndyn:
 787 0000 00000000 		.word	testdyn1
 788 0004 00000000 		.word	testdyn2
 789 0008 00000000 		.word	testdyn3
 790 000c 00000000 		.word	0
 791              		.section	.bss.heap1,"aw",%nobits
 792              		.align	3
 793              		.set	.LANCHOR0,. + 0
 794              		.type	heap1, %object
 795              		.size	heap1, 32
 796              	heap1:
 797 0000 00000000 		.space	32
 797      00000000 
 797      00000000 
 797      00000000 
 797      00000000 
 798              		.text
 799              	.Letext0:
 800              		.file 2 "/usr/lib/gcc/arm-none-eabi/4.8/include/stddef.h"
 801              		.file 3 "/usr/include/newlib/machine/_default_types.h"
 802              		.file 4 "/usr/include/newlib/stdint.h"
 803              		.file 5 "../../os/ports/GCC/ARMCMx/chtypes.h"
 804              		.file 6 "../../os/kernel/include/chlists.h"
 805              		.file 7 "../../os/kernel/include/chthreads.h"
 806              		.file 8 "../../os/ports/GCC/ARMCMx/chcore_v7m.h"
 807              		.file 9 "../../os/kernel/include/chschd.h"
 808              		.file 10 "../../os/kernel/include/chmtx.h"
 809              		.file 11 "../../os/kernel/include/chmemcore.h"
 810              		.file 12 "../../os/kernel/include/chheap.h"
 811              		.file 13 "../../os/kernel/include/chmempools.h"
 812              		.file 14 "../../test/test.h"
 813              		.file 15 "../../os/ports/common/ARMCMx/CMSIS/include/core_cm4.h"
 814              		.file 16 "../../os/kernel/include/chdynamic.h"
 815              		.file 17 "../../os/kernel/include/chregistry.h"
 816              		.section	.debug_info,"",%progbits
 817              	.Ldebug_info0:
 818 0000 630F0000 		.4byte	0xf63
 819 0004 0400     		.2byte	0x4
 820 0006 00000000 		.4byte	.Ldebug_abbrev0
 821 000a 04       		.byte	0x4
 822 000b 01       		.uleb128 0x1
 823 000c 08000000 		.4byte	.LASF128
 824 0010 01       		.byte	0x1
 825 0011 45050000 		.4byte	.LASF129
 826 0015 C8020000 		.4byte	.LASF130
 827 0019 00000000 		.4byte	.Ldebug_ranges0+0
 828 001d 00000000 		.4byte	0
 829 0021 00000000 		.4byte	.Ldebug_line0
ARM GAS  /tmp/cc43DkP6.s 			page 16


 830 0025 02       		.uleb128 0x2
 831 0026 04       		.byte	0x4
 832 0027 05       		.byte	0x5
 833 0028 696E7400 		.ascii	"int\000"
 834 002c 03       		.uleb128 0x3
 835 002d B8000000 		.4byte	.LASF2
 836 0031 02       		.byte	0x2
 837 0032 D4       		.byte	0xd4
 838 0033 37000000 		.4byte	0x37
 839 0037 04       		.uleb128 0x4
 840 0038 04       		.byte	0x4
 841 0039 07       		.byte	0x7
 842 003a 36020000 		.4byte	.LASF0
 843 003e 04       		.uleb128 0x4
 844 003f 01       		.byte	0x1
 845 0040 06       		.byte	0x6
 846 0041 72010000 		.4byte	.LASF1
 847 0045 03       		.uleb128 0x3
 848 0046 CF000000 		.4byte	.LASF3
 849 004a 03       		.byte	0x3
 850 004b 1D       		.byte	0x1d
 851 004c 50000000 		.4byte	0x50
 852 0050 04       		.uleb128 0x4
 853 0051 01       		.byte	0x1
 854 0052 08       		.byte	0x8
 855 0053 E7030000 		.4byte	.LASF4
 856 0057 04       		.uleb128 0x4
 857 0058 02       		.byte	0x2
 858 0059 05       		.byte	0x5
 859 005a 18040000 		.4byte	.LASF5
 860 005e 04       		.uleb128 0x4
 861 005f 02       		.byte	0x2
 862 0060 07       		.byte	0x7
 863 0061 61020000 		.4byte	.LASF6
 864 0065 03       		.uleb128 0x3
 865 0066 A7020000 		.4byte	.LASF7
 866 006a 03       		.byte	0x3
 867 006b 3F       		.byte	0x3f
 868 006c 70000000 		.4byte	0x70
 869 0070 04       		.uleb128 0x4
 870 0071 04       		.byte	0x4
 871 0072 05       		.byte	0x5
 872 0073 BB010000 		.4byte	.LASF8
 873 0077 03       		.uleb128 0x3
 874 0078 20050000 		.4byte	.LASF9
 875 007c 03       		.byte	0x3
 876 007d 41       		.byte	0x41
 877 007e 82000000 		.4byte	0x82
 878 0082 04       		.uleb128 0x4
 879 0083 04       		.byte	0x4
 880 0084 07       		.byte	0x7
 881 0085 AC040000 		.4byte	.LASF10
 882 0089 04       		.uleb128 0x4
 883 008a 08       		.byte	0x8
 884 008b 05       		.byte	0x5
 885 008c 64010000 		.4byte	.LASF11
 886 0090 03       		.uleb128 0x3
ARM GAS  /tmp/cc43DkP6.s 			page 17


 887 0091 A8030000 		.4byte	.LASF12
 888 0095 03       		.byte	0x3
 889 0096 5B       		.byte	0x5b
 890 0097 9B000000 		.4byte	0x9b
 891 009b 04       		.uleb128 0x4
 892 009c 08       		.byte	0x8
 893 009d 07       		.byte	0x7
 894 009e E6000000 		.4byte	.LASF13
 895 00a2 03       		.uleb128 0x3
 896 00a3 96050000 		.4byte	.LASF14
 897 00a7 04       		.byte	0x4
 898 00a8 2A       		.byte	0x2a
 899 00a9 45000000 		.4byte	0x45
 900 00ad 03       		.uleb128 0x3
 901 00ae DF030000 		.4byte	.LASF15
 902 00b2 04       		.byte	0x4
 903 00b3 41       		.byte	0x41
 904 00b4 65000000 		.4byte	0x65
 905 00b8 03       		.uleb128 0x3
 906 00b9 83040000 		.4byte	.LASF16
 907 00bd 04       		.byte	0x4
 908 00be 42       		.byte	0x42
 909 00bf 77000000 		.4byte	0x77
 910 00c3 03       		.uleb128 0x3
 911 00c4 C6000000 		.4byte	.LASF17
 912 00c8 04       		.byte	0x4
 913 00c9 4E       		.byte	0x4e
 914 00ca 90000000 		.4byte	0x90
 915 00ce 03       		.uleb128 0x3
 916 00cf 4B010000 		.4byte	.LASF18
 917 00d3 05       		.byte	0x5
 918 00d4 2B       		.byte	0x2b
 919 00d5 D9000000 		.4byte	0xd9
 920 00d9 04       		.uleb128 0x4
 921 00da 01       		.byte	0x1
 922 00db 02       		.byte	0x2
 923 00dc D9030000 		.4byte	.LASF19
 924 00e0 03       		.uleb128 0x3
 925 00e1 87020000 		.4byte	.LASF20
 926 00e5 05       		.byte	0x5
 927 00e6 2C       		.byte	0x2c
 928 00e7 A2000000 		.4byte	0xa2
 929 00eb 03       		.uleb128 0x3
 930 00ec D8010000 		.4byte	.LASF21
 931 00f0 05       		.byte	0x5
 932 00f1 2D       		.byte	0x2d
 933 00f2 A2000000 		.4byte	0xa2
 934 00f6 03       		.uleb128 0x3
 935 00f7 94040000 		.4byte	.LASF22
 936 00fb 05       		.byte	0x5
 937 00fc 2E       		.byte	0x2e
 938 00fd A2000000 		.4byte	0xa2
 939 0101 03       		.uleb128 0x3
 940 0102 CA030000 		.4byte	.LASF23
 941 0106 05       		.byte	0x5
 942 0107 30       		.byte	0x30
 943 0108 B8000000 		.4byte	0xb8
ARM GAS  /tmp/cc43DkP6.s 			page 18


 944 010c 03       		.uleb128 0x3
 945 010d 81020000 		.4byte	.LASF24
 946 0111 05       		.byte	0x5
 947 0112 31       		.byte	0x31
 948 0113 AD000000 		.4byte	0xad
 949 0117 03       		.uleb128 0x3
 950 0118 9B020000 		.4byte	.LASF25
 951 011c 05       		.byte	0x5
 952 011d 33       		.byte	0x33
 953 011e B8000000 		.4byte	0xb8
 954 0122 03       		.uleb128 0x3
 955 0123 04050000 		.4byte	.LASF26
 956 0127 05       		.byte	0x5
 957 0128 35       		.byte	0x35
 958 0129 B8000000 		.4byte	0xb8
 959 012d 03       		.uleb128 0x3
 960 012e 5C040000 		.4byte	.LASF27
 961 0132 06       		.byte	0x6
 962 0133 2A       		.byte	0x2a
 963 0134 38010000 		.4byte	0x138
 964 0138 05       		.uleb128 0x5
 965 0139 5C040000 		.4byte	.LASF27
 966 013d 48       		.byte	0x48
 967 013e 07       		.byte	0x7
 968 013f 5E       		.byte	0x5e
 969 0140 29020000 		.4byte	0x229
 970 0144 06       		.uleb128 0x6
 971 0145 40040000 		.4byte	.LASF28
 972 0149 07       		.byte	0x7
 973 014a 5F       		.byte	0x5f
 974 014b 4A020000 		.4byte	0x24a
 975 014f 00       		.byte	0
 976 0150 06       		.uleb128 0x6
 977 0151 BB030000 		.4byte	.LASF29
 978 0155 07       		.byte	0x7
 979 0156 61       		.byte	0x61
 980 0157 4A020000 		.4byte	0x24a
 981 015b 04       		.byte	0x4
 982 015c 06       		.uleb128 0x6
 983 015d 52010000 		.4byte	.LASF30
 984 0161 07       		.byte	0x7
 985 0162 63       		.byte	0x63
 986 0163 01010000 		.4byte	0x101
 987 0167 08       		.byte	0x8
 988 0168 06       		.uleb128 0x6
 989 0169 F3050000 		.4byte	.LASF31
 990 016d 07       		.byte	0x7
 991 016e 64       		.byte	0x64
 992 016f 16030000 		.4byte	0x316
 993 0173 0C       		.byte	0xc
 994 0174 06       		.uleb128 0x6
 995 0175 FD010000 		.4byte	.LASF32
 996 0179 07       		.byte	0x7
 997 017a 66       		.byte	0x66
 998 017b 4A020000 		.4byte	0x24a
 999 017f 10       		.byte	0x10
 1000 0180 06       		.uleb128 0x6
ARM GAS  /tmp/cc43DkP6.s 			page 19


 1001 0181 4A030000 		.4byte	.LASF33
 1002 0185 07       		.byte	0x7
 1003 0186 67       		.byte	0x67
 1004 0187 4A020000 		.4byte	0x24a
 1005 018b 14       		.byte	0x14
 1006 018c 06       		.uleb128 0x6
 1007 018d C7050000 		.4byte	.LASF34
 1008 0191 07       		.byte	0x7
 1009 0192 6E       		.byte	0x6e
 1010 0193 2D050000 		.4byte	0x52d
 1011 0197 18       		.byte	0x18
 1012 0198 06       		.uleb128 0x6
 1013 0199 22040000 		.4byte	.LASF35
 1014 019d 07       		.byte	0x7
 1015 019e 79       		.byte	0x79
 1016 019f EB000000 		.4byte	0xeb
 1017 01a3 1C       		.byte	0x1c
 1018 01a4 06       		.uleb128 0x6
 1019 01a5 47040000 		.4byte	.LASF36
 1020 01a9 07       		.byte	0x7
 1021 01aa 7D       		.byte	0x7d
 1022 01ab E0000000 		.4byte	0xe0
 1023 01af 1D       		.byte	0x1d
 1024 01b0 06       		.uleb128 0x6
 1025 01b1 77050000 		.4byte	.LASF37
 1026 01b5 07       		.byte	0x7
 1027 01b6 82       		.byte	0x82
 1028 01b7 F6000000 		.4byte	0xf6
 1029 01bb 1E       		.byte	0x1e
 1030 01bc 06       		.uleb128 0x6
 1031 01bd E9010000 		.4byte	.LASF38
 1032 01c1 07       		.byte	0x7
 1033 01c2 8F       		.byte	0x8f
 1034 01c3 37030000 		.4byte	0x337
 1035 01c7 20       		.byte	0x20
 1036 01c8 07       		.uleb128 0x7
 1037 01c9 705F7500 		.ascii	"p_u\000"
 1038 01cd 07       		.byte	0x7
 1039 01ce B4       		.byte	0xb4
 1040 01cf F8040000 		.4byte	0x4f8
 1041 01d3 24       		.byte	0x24
 1042 01d4 06       		.uleb128 0x6
 1043 01d5 F9050000 		.4byte	.LASF39
 1044 01d9 07       		.byte	0x7
 1045 01da B9       		.byte	0xb9
 1046 01db 70020000 		.4byte	0x270
 1047 01df 28       		.byte	0x28
 1048 01e0 06       		.uleb128 0x6
 1049 01e1 43020000 		.4byte	.LASF40
 1050 01e5 07       		.byte	0x7
 1051 01e6 BF       		.byte	0xbf
 1052 01e7 50020000 		.4byte	0x250
 1053 01eb 2C       		.byte	0x2c
 1054 01ec 06       		.uleb128 0x6
 1055 01ed E5050000 		.4byte	.LASF41
 1056 01f1 07       		.byte	0x7
 1057 01f2 C3       		.byte	0xc3
ARM GAS  /tmp/cc43DkP6.s 			page 20


 1058 01f3 0C010000 		.4byte	0x10c
 1059 01f7 34       		.byte	0x34
 1060 01f8 06       		.uleb128 0x6
 1061 01f9 32030000 		.4byte	.LASF42
 1062 01fd 07       		.byte	0x7
 1063 01fe C9       		.byte	0xc9
 1064 01ff 17010000 		.4byte	0x117
 1065 0203 38       		.byte	0x38
 1066 0204 06       		.uleb128 0x6
 1067 0205 0E040000 		.4byte	.LASF43
 1068 0209 07       		.byte	0x7
 1069 020a D0       		.byte	0xd0
 1070 020b 3F050000 		.4byte	0x53f
 1071 020f 3C       		.byte	0x3c
 1072 0210 06       		.uleb128 0x6
 1073 0211 0E050000 		.4byte	.LASF44
 1074 0215 07       		.byte	0x7
 1075 0216 D4       		.byte	0xd4
 1076 0217 01010000 		.4byte	0x101
 1077 021b 40       		.byte	0x40
 1078 021c 06       		.uleb128 0x6
 1079 021d 90010000 		.4byte	.LASF45
 1080 0221 07       		.byte	0x7
 1081 0222 DA       		.byte	0xda
 1082 0223 8D020000 		.4byte	0x28d
 1083 0227 44       		.byte	0x44
 1084 0228 00       		.byte	0
 1085 0229 08       		.uleb128 0x8
 1086 022a 08       		.byte	0x8
 1087 022b 06       		.byte	0x6
 1088 022c 61       		.byte	0x61
 1089 022d 4A020000 		.4byte	0x24a
 1090 0231 06       		.uleb128 0x6
 1091 0232 40040000 		.4byte	.LASF28
 1092 0236 06       		.byte	0x6
 1093 0237 62       		.byte	0x62
 1094 0238 4A020000 		.4byte	0x24a
 1095 023c 00       		.byte	0
 1096 023d 06       		.uleb128 0x6
 1097 023e BB030000 		.4byte	.LASF29
 1098 0242 06       		.byte	0x6
 1099 0243 64       		.byte	0x64
 1100 0244 4A020000 		.4byte	0x24a
 1101 0248 04       		.byte	0x4
 1102 0249 00       		.byte	0
 1103 024a 09       		.uleb128 0x9
 1104 024b 04       		.byte	0x4
 1105 024c 2D010000 		.4byte	0x12d
 1106 0250 03       		.uleb128 0x3
 1107 0251 58030000 		.4byte	.LASF46
 1108 0255 06       		.byte	0x6
 1109 0256 66       		.byte	0x66
 1110 0257 29020000 		.4byte	0x229
 1111 025b 08       		.uleb128 0x8
 1112 025c 04       		.byte	0x4
 1113 025d 06       		.byte	0x6
 1114 025e 6B       		.byte	0x6b
ARM GAS  /tmp/cc43DkP6.s 			page 21


 1115 025f 70020000 		.4byte	0x270
 1116 0263 06       		.uleb128 0x6
 1117 0264 40040000 		.4byte	.LASF28
 1118 0268 06       		.byte	0x6
 1119 0269 6D       		.byte	0x6d
 1120 026a 4A020000 		.4byte	0x24a
 1121 026e 00       		.byte	0
 1122 026f 00       		.byte	0
 1123 0270 03       		.uleb128 0x3
 1124 0271 8F020000 		.4byte	.LASF47
 1125 0275 06       		.byte	0x6
 1126 0276 70       		.byte	0x70
 1127 0277 5B020000 		.4byte	0x25b
 1128 027b 04       		.uleb128 0x4
 1129 027c 04       		.byte	0x4
 1130 027d 07       		.byte	0x7
 1131 027e 08030000 		.4byte	.LASF48
 1132 0282 03       		.uleb128 0x3
 1133 0283 27020000 		.4byte	.LASF49
 1134 0287 08       		.byte	0x8
 1135 0288 E5       		.byte	0xe5
 1136 0289 8D020000 		.4byte	0x28d
 1137 028d 0A       		.uleb128 0xa
 1138 028e 04       		.byte	0x4
 1139 028f 03       		.uleb128 0x3
 1140 0290 BD020000 		.4byte	.LASF50
 1141 0294 08       		.byte	0x8
 1142 0295 EB       		.byte	0xeb
 1143 0296 C3000000 		.4byte	0xc3
 1144 029a 0B       		.uleb128 0xb
 1145 029b 3E050000 		.4byte	.LASF51
 1146 029f 24       		.byte	0x24
 1147 02a0 08       		.byte	0x8
 1148 02a1 0C01     		.2byte	0x10c
 1149 02a3 16030000 		.4byte	0x316
 1150 02a7 0C       		.uleb128 0xc
 1151 02a8 723400   		.ascii	"r4\000"
 1152 02ab 08       		.byte	0x8
 1153 02ac 1F01     		.2byte	0x11f
 1154 02ae 82020000 		.4byte	0x282
 1155 02b2 00       		.byte	0
 1156 02b3 0C       		.uleb128 0xc
 1157 02b4 723500   		.ascii	"r5\000"
 1158 02b7 08       		.byte	0x8
 1159 02b8 2001     		.2byte	0x120
 1160 02ba 82020000 		.4byte	0x282
 1161 02be 04       		.byte	0x4
 1162 02bf 0C       		.uleb128 0xc
 1163 02c0 723600   		.ascii	"r6\000"
 1164 02c3 08       		.byte	0x8
 1165 02c4 2101     		.2byte	0x121
 1166 02c6 82020000 		.4byte	0x282
 1167 02ca 08       		.byte	0x8
 1168 02cb 0C       		.uleb128 0xc
 1169 02cc 723700   		.ascii	"r7\000"
 1170 02cf 08       		.byte	0x8
 1171 02d0 2201     		.2byte	0x122
ARM GAS  /tmp/cc43DkP6.s 			page 22


 1172 02d2 82020000 		.4byte	0x282
 1173 02d6 0C       		.byte	0xc
 1174 02d7 0C       		.uleb128 0xc
 1175 02d8 723800   		.ascii	"r8\000"
 1176 02db 08       		.byte	0x8
 1177 02dc 2301     		.2byte	0x123
 1178 02de 82020000 		.4byte	0x282
 1179 02e2 10       		.byte	0x10
 1180 02e3 0C       		.uleb128 0xc
 1181 02e4 723900   		.ascii	"r9\000"
 1182 02e7 08       		.byte	0x8
 1183 02e8 2401     		.2byte	0x124
 1184 02ea 82020000 		.4byte	0x282
 1185 02ee 14       		.byte	0x14
 1186 02ef 0C       		.uleb128 0xc
 1187 02f0 72313000 		.ascii	"r10\000"
 1188 02f4 08       		.byte	0x8
 1189 02f5 2501     		.2byte	0x125
 1190 02f7 82020000 		.4byte	0x282
 1191 02fb 18       		.byte	0x18
 1192 02fc 0C       		.uleb128 0xc
 1193 02fd 72313100 		.ascii	"r11\000"
 1194 0301 08       		.byte	0x8
 1195 0302 2601     		.2byte	0x126
 1196 0304 82020000 		.4byte	0x282
 1197 0308 1C       		.byte	0x1c
 1198 0309 0C       		.uleb128 0xc
 1199 030a 6C7200   		.ascii	"lr\000"
 1200 030d 08       		.byte	0x8
 1201 030e 2701     		.2byte	0x127
 1202 0310 82020000 		.4byte	0x282
 1203 0314 20       		.byte	0x20
 1204 0315 00       		.byte	0
 1205 0316 0B       		.uleb128 0xb
 1206 0317 36050000 		.4byte	.LASF52
 1207 031b 04       		.byte	0x4
 1208 031c 08       		.byte	0x8
 1209 031d 3101     		.2byte	0x131
 1210 031f 31030000 		.4byte	0x331
 1211 0323 0C       		.uleb128 0xc
 1212 0324 72313300 		.ascii	"r13\000"
 1213 0328 08       		.byte	0x8
 1214 0329 3201     		.2byte	0x132
 1215 032b 31030000 		.4byte	0x331
 1216 032f 00       		.byte	0
 1217 0330 00       		.byte	0
 1218 0331 09       		.uleb128 0x9
 1219 0332 04       		.byte	0x4
 1220 0333 9A020000 		.4byte	0x29a
 1221 0337 0D       		.uleb128 0xd
 1222 0338 22010000 		.4byte	0x122
 1223 033c 08       		.uleb128 0x8
 1224 033d 1C       		.byte	0x1c
 1225 033e 09       		.byte	0x9
 1226 033f 5E       		.byte	0x5e
 1227 0340 8D030000 		.4byte	0x38d
 1228 0344 06       		.uleb128 0x6
ARM GAS  /tmp/cc43DkP6.s 			page 23


 1229 0345 8C040000 		.4byte	.LASF53
 1230 0349 09       		.byte	0x9
 1231 034a 5F       		.byte	0x5f
 1232 034b 50020000 		.4byte	0x250
 1233 034f 00       		.byte	0
 1234 0350 06       		.uleb128 0x6
 1235 0351 32040000 		.4byte	.LASF54
 1236 0355 09       		.byte	0x9
 1237 0356 60       		.byte	0x60
 1238 0357 01010000 		.4byte	0x101
 1239 035b 08       		.byte	0x8
 1240 035c 06       		.uleb128 0x6
 1241 035d 52030000 		.4byte	.LASF55
 1242 0361 09       		.byte	0x9
 1243 0362 62       		.byte	0x62
 1244 0363 16030000 		.4byte	0x316
 1245 0367 0C       		.byte	0xc
 1246 0368 06       		.uleb128 0x6
 1247 0369 1F020000 		.4byte	.LASF56
 1248 036d 09       		.byte	0x9
 1249 036e 65       		.byte	0x65
 1250 036f 4A020000 		.4byte	0x24a
 1251 0373 10       		.byte	0x10
 1252 0374 06       		.uleb128 0x6
 1253 0375 95030000 		.4byte	.LASF57
 1254 0379 09       		.byte	0x9
 1255 037a 66       		.byte	0x66
 1256 037b 4A020000 		.4byte	0x24a
 1257 037f 14       		.byte	0x14
 1258 0380 06       		.uleb128 0x6
 1259 0381 DB050000 		.4byte	.LASF58
 1260 0385 09       		.byte	0x9
 1261 0386 69       		.byte	0x69
 1262 0387 4A020000 		.4byte	0x24a
 1263 038b 18       		.byte	0x18
 1264 038c 00       		.byte	0
 1265 038d 03       		.uleb128 0x3
 1266 038e 7E050000 		.4byte	.LASF59
 1267 0392 09       		.byte	0x9
 1268 0393 6B       		.byte	0x6b
 1269 0394 3C030000 		.4byte	0x33c
 1270 0398 05       		.uleb128 0x5
 1271 0399 2C030000 		.4byte	.LASF60
 1272 039d 10       		.byte	0x10
 1273 039e 0A       		.byte	0xa
 1274 039f 2C       		.byte	0x2c
 1275 03a0 C9030000 		.4byte	0x3c9
 1276 03a4 06       		.uleb128 0x6
 1277 03a5 98010000 		.4byte	.LASF61
 1278 03a9 0A       		.byte	0xa
 1279 03aa 2D       		.byte	0x2d
 1280 03ab 50020000 		.4byte	0x250
 1281 03af 00       		.byte	0
 1282 03b0 06       		.uleb128 0x6
 1283 03b1 EB050000 		.4byte	.LASF62
 1284 03b5 0A       		.byte	0xa
 1285 03b6 2F       		.byte	0x2f
ARM GAS  /tmp/cc43DkP6.s 			page 24


 1286 03b7 4A020000 		.4byte	0x24a
 1287 03bb 08       		.byte	0x8
 1288 03bc 06       		.uleb128 0x6
 1289 03bd FD040000 		.4byte	.LASF63
 1290 03c1 0A       		.byte	0xa
 1291 03c2 31       		.byte	0x31
 1292 03c3 C9030000 		.4byte	0x3c9
 1293 03c7 0C       		.byte	0xc
 1294 03c8 00       		.byte	0
 1295 03c9 09       		.uleb128 0x9
 1296 03ca 04       		.byte	0x4
 1297 03cb 98030000 		.4byte	0x398
 1298 03cf 03       		.uleb128 0x3
 1299 03d0 2C030000 		.4byte	.LASF60
 1300 03d4 0A       		.byte	0xa
 1301 03d5 33       		.byte	0x33
 1302 03d6 98030000 		.4byte	0x398
 1303 03da 03       		.uleb128 0x3
 1304 03db D9000000 		.4byte	.LASF64
 1305 03df 0B       		.byte	0xb
 1306 03e0 2C       		.byte	0x2c
 1307 03e1 E5030000 		.4byte	0x3e5
 1308 03e5 09       		.uleb128 0x9
 1309 03e6 04       		.byte	0x4
 1310 03e7 EB030000 		.4byte	0x3eb
 1311 03eb 0E       		.uleb128 0xe
 1312 03ec 8D020000 		.4byte	0x28d
 1313 03f0 FA030000 		.4byte	0x3fa
 1314 03f4 0F       		.uleb128 0xf
 1315 03f5 2C000000 		.4byte	0x2c
 1316 03f9 00       		.byte	0
 1317 03fa 03       		.uleb128 0x3
 1318 03fb 9D030000 		.4byte	.LASF65
 1319 03ff 0C       		.byte	0xc
 1320 0400 34       		.byte	0x34
 1321 0401 05040000 		.4byte	0x405
 1322 0405 05       		.uleb128 0x5
 1323 0406 09060000 		.4byte	.LASF66
 1324 040a 20       		.byte	0x20
 1325 040b 0C       		.byte	0xc
 1326 040c 47       		.byte	0x47
 1327 040d 36040000 		.4byte	0x436
 1328 0411 06       		.uleb128 0x6
 1329 0412 B5050000 		.4byte	.LASF67
 1330 0416 0C       		.byte	0xc
 1331 0417 48       		.byte	0x48
 1332 0418 DA030000 		.4byte	0x3da
 1333 041c 00       		.byte	0
 1334 041d 06       		.uleb128 0x6
 1335 041e 06010000 		.4byte	.LASF68
 1336 0422 0C       		.byte	0xc
 1337 0423 4A       		.byte	0x4a
 1338 0424 55040000 		.4byte	0x455
 1339 0428 08       		.byte	0x8
 1340 0429 06       		.uleb128 0x6
 1341 042a 7E010000 		.4byte	.LASF69
 1342 042e 0C       		.byte	0xc
ARM GAS  /tmp/cc43DkP6.s 			page 25


 1343 042f 4C       		.byte	0x4c
 1344 0430 CF030000 		.4byte	0x3cf
 1345 0434 10       		.byte	0x10
 1346 0435 00       		.byte	0
 1347 0436 10       		.uleb128 0x10
 1348 0437 04       		.byte	0x4
 1349 0438 0C       		.byte	0xc
 1350 0439 3C       		.byte	0x3c
 1351 043a 55040000 		.4byte	0x455
 1352 043e 11       		.uleb128 0x11
 1353 043f 46010000 		.4byte	.LASF70
 1354 0443 0C       		.byte	0xc
 1355 0444 3D       		.byte	0x3d
 1356 0445 76040000 		.4byte	0x476
 1357 0449 11       		.uleb128 0x11
 1358 044a 9C040000 		.4byte	.LASF71
 1359 044e 0C       		.byte	0xc
 1360 044f 3E       		.byte	0x3e
 1361 0450 7C040000 		.4byte	0x47c
 1362 0454 00       		.byte	0
 1363 0455 12       		.uleb128 0x12
 1364 0456 F5030000 		.4byte	.LASF91
 1365 045a 08       		.byte	0x8
 1366 045b 0C       		.byte	0xc
 1367 045c 39       		.byte	0x39
 1368 045d 76040000 		.4byte	0x476
 1369 0461 11       		.uleb128 0x11
 1370 0462 30020000 		.4byte	.LASF72
 1371 0466 0C       		.byte	0xc
 1372 0467 3A       		.byte	0x3a
 1373 0468 8F020000 		.4byte	0x28f
 1374 046c 13       		.uleb128 0x13
 1375 046d 6800     		.ascii	"h\000"
 1376 046f 0C       		.byte	0xc
 1377 0470 41       		.byte	0x41
 1378 0471 82040000 		.4byte	0x482
 1379 0475 00       		.byte	0
 1380 0476 09       		.uleb128 0x9
 1381 0477 04       		.byte	0x4
 1382 0478 55040000 		.4byte	0x455
 1383 047c 09       		.uleb128 0x9
 1384 047d 04       		.byte	0x4
 1385 047e FA030000 		.4byte	0x3fa
 1386 0482 08       		.uleb128 0x8
 1387 0483 08       		.byte	0x8
 1388 0484 0C       		.byte	0xc
 1389 0485 3B       		.byte	0x3b
 1390 0486 A1040000 		.4byte	0x4a1
 1391 048a 07       		.uleb128 0x7
 1392 048b 7500     		.ascii	"u\000"
 1393 048d 0C       		.byte	0xc
 1394 048e 3F       		.byte	0x3f
 1395 048f 36040000 		.4byte	0x436
 1396 0493 00       		.byte	0
 1397 0494 06       		.uleb128 0x6
 1398 0495 5C020000 		.4byte	.LASF73
 1399 0499 0C       		.byte	0xc
ARM GAS  /tmp/cc43DkP6.s 			page 26


 1400 049a 40       		.byte	0x40
 1401 049b 2C000000 		.4byte	0x2c
 1402 049f 04       		.byte	0x4
 1403 04a0 00       		.byte	0
 1404 04a1 05       		.uleb128 0x5
 1405 04a2 6B050000 		.4byte	.LASF74
 1406 04a6 04       		.byte	0x4
 1407 04a7 0D       		.byte	0xd
 1408 04a8 2C       		.byte	0x2c
 1409 04a9 BA040000 		.4byte	0x4ba
 1410 04ad 06       		.uleb128 0x6
 1411 04ae B3030000 		.4byte	.LASF75
 1412 04b2 0D       		.byte	0xd
 1413 04b3 2D       		.byte	0x2d
 1414 04b4 BA040000 		.4byte	0x4ba
 1415 04b8 00       		.byte	0
 1416 04b9 00       		.byte	0
 1417 04ba 09       		.uleb128 0x9
 1418 04bb 04       		.byte	0x4
 1419 04bc A1040000 		.4byte	0x4a1
 1420 04c0 08       		.uleb128 0x8
 1421 04c1 0C       		.byte	0xc
 1422 04c2 0D       		.byte	0xd
 1423 04c3 34       		.byte	0x34
 1424 04c4 ED040000 		.4byte	0x4ed
 1425 04c8 06       		.uleb128 0x6
 1426 04c9 E1010000 		.4byte	.LASF76
 1427 04cd 0D       		.byte	0xd
 1428 04ce 35       		.byte	0x35
 1429 04cf BA040000 		.4byte	0x4ba
 1430 04d3 00       		.byte	0
 1431 04d4 06       		.uleb128 0x6
 1432 04d5 65030000 		.4byte	.LASF77
 1433 04d9 0D       		.byte	0xd
 1434 04da 36       		.byte	0x36
 1435 04db 2C000000 		.4byte	0x2c
 1436 04df 04       		.byte	0x4
 1437 04e0 06       		.uleb128 0x6
 1438 04e1 84010000 		.4byte	.LASF78
 1439 04e5 0D       		.byte	0xd
 1440 04e6 38       		.byte	0x38
 1441 04e7 DA030000 		.4byte	0x3da
 1442 04eb 08       		.byte	0x8
 1443 04ec 00       		.byte	0
 1444 04ed 03       		.uleb128 0x3
 1445 04ee 78040000 		.4byte	.LASF79
 1446 04f2 0D       		.byte	0xd
 1447 04f3 3A       		.byte	0x3a
 1448 04f4 C0040000 		.4byte	0x4c0
 1449 04f8 10       		.uleb128 0x10
 1450 04f9 04       		.byte	0x4
 1451 04fa 07       		.byte	0x7
 1452 04fb 96       		.byte	0x96
 1453 04fc 2D050000 		.4byte	0x52d
 1454 0500 11       		.uleb128 0x11
 1455 0501 BF000000 		.4byte	.LASF80
 1456 0505 07       		.byte	0x7
ARM GAS  /tmp/cc43DkP6.s 			page 27


 1457 0506 9D       		.byte	0x9d
 1458 0507 0C010000 		.4byte	0x10c
 1459 050b 11       		.uleb128 0x11
 1460 050c FD000000 		.4byte	.LASF81
 1461 0510 07       		.byte	0x7
 1462 0511 A4       		.byte	0xa4
 1463 0512 0C010000 		.4byte	0x10c
 1464 0516 11       		.uleb128 0x11
 1465 0517 C0050000 		.4byte	.LASF82
 1466 051b 07       		.byte	0x7
 1467 051c AB       		.byte	0xab
 1468 051d 8D020000 		.4byte	0x28d
 1469 0521 11       		.uleb128 0x11
 1470 0522 39040000 		.4byte	.LASF83
 1471 0526 07       		.byte	0x7
 1472 0527 B2       		.byte	0xb2
 1473 0528 17010000 		.4byte	0x117
 1474 052c 00       		.byte	0
 1475 052d 09       		.uleb128 0x9
 1476 052e 04       		.byte	0x4
 1477 052f 33050000 		.4byte	0x533
 1478 0533 14       		.uleb128 0x14
 1479 0534 38050000 		.4byte	0x538
 1480 0538 04       		.uleb128 0x4
 1481 0539 01       		.byte	0x1
 1482 053a 08       		.byte	0x8
 1483 053b BE040000 		.4byte	.LASF84
 1484 053f 09       		.uleb128 0x9
 1485 0540 04       		.byte	0x4
 1486 0541 CF030000 		.4byte	0x3cf
 1487 0545 03       		.uleb128 0x3
 1488 0546 00000000 		.4byte	.LASF85
 1489 054a 07       		.byte	0x7
 1490 054b E5       		.byte	0xe5
 1491 054c 50050000 		.4byte	0x550
 1492 0550 09       		.uleb128 0x9
 1493 0551 04       		.byte	0x4
 1494 0552 56050000 		.4byte	0x556
 1495 0556 0E       		.uleb128 0xe
 1496 0557 0C010000 		.4byte	0x10c
 1497 055b 65050000 		.4byte	0x565
 1498 055f 0F       		.uleb128 0xf
 1499 0560 8D020000 		.4byte	0x28d
 1500 0564 00       		.byte	0
 1501 0565 05       		.uleb128 0x5
 1502 0566 6F040000 		.4byte	.LASF86
 1503 056a 10       		.byte	0x10
 1504 056b 0E       		.byte	0xe
 1505 056c 3B       		.byte	0x3b
 1506 056d A2050000 		.4byte	0x5a2
 1507 0571 06       		.uleb128 0x6
 1508 0572 57020000 		.4byte	.LASF87
 1509 0576 0E       		.byte	0xe
 1510 0577 3C       		.byte	0x3c
 1511 0578 2D050000 		.4byte	0x52d
 1512 057c 00       		.byte	0
 1513 057d 06       		.uleb128 0x6
ARM GAS  /tmp/cc43DkP6.s 			page 28


 1514 057e 74030000 		.4byte	.LASF88
 1515 0582 0E       		.byte	0xe
 1516 0583 3D       		.byte	0x3d
 1517 0584 A3050000 		.4byte	0x5a3
 1518 0588 04       		.byte	0x4
 1519 0589 06       		.uleb128 0x6
 1520 058a 4E020000 		.4byte	.LASF89
 1521 058e 0E       		.byte	0xe
 1522 058f 3E       		.byte	0x3e
 1523 0590 A3050000 		.4byte	0x5a3
 1524 0594 08       		.byte	0x8
 1525 0595 06       		.uleb128 0x6
 1526 0596 C2030000 		.4byte	.LASF90
 1527 059a 0E       		.byte	0xe
 1528 059b 3F       		.byte	0x3f
 1529 059c A3050000 		.4byte	0x5a3
 1530 05a0 0C       		.byte	0xc
 1531 05a1 00       		.byte	0
 1532 05a2 15       		.uleb128 0x15
 1533 05a3 09       		.uleb128 0x9
 1534 05a4 04       		.byte	0x4
 1535 05a5 A2050000 		.4byte	0x5a2
 1536 05a9 16       		.uleb128 0x16
 1537 05aa 9006     		.2byte	0x690
 1538 05ac 0E       		.byte	0xe
 1539 05ad 44       		.byte	0x44
 1540 05ae EE050000 		.4byte	0x5ee
 1541 05b2 07       		.uleb128 0x7
 1542 05b3 543000   		.ascii	"T0\000"
 1543 05b6 0E       		.byte	0xe
 1544 05b7 45       		.byte	0x45
 1545 05b8 EE050000 		.4byte	0x5ee
 1546 05bc 00       		.byte	0
 1547 05bd 17       		.uleb128 0x17
 1548 05be 543100   		.ascii	"T1\000"
 1549 05c1 0E       		.byte	0xe
 1550 05c2 46       		.byte	0x46
 1551 05c3 EE050000 		.4byte	0x5ee
 1552 05c7 5001     		.2byte	0x150
 1553 05c9 17       		.uleb128 0x17
 1554 05ca 543200   		.ascii	"T2\000"
 1555 05cd 0E       		.byte	0xe
 1556 05ce 47       		.byte	0x47
 1557 05cf EE050000 		.4byte	0x5ee
 1558 05d3 A002     		.2byte	0x2a0
 1559 05d5 17       		.uleb128 0x17
 1560 05d6 543300   		.ascii	"T3\000"
 1561 05d9 0E       		.byte	0xe
 1562 05da 48       		.byte	0x48
 1563 05db EE050000 		.4byte	0x5ee
 1564 05df F003     		.2byte	0x3f0
 1565 05e1 17       		.uleb128 0x17
 1566 05e2 543400   		.ascii	"T4\000"
 1567 05e5 0E       		.byte	0xe
 1568 05e6 49       		.byte	0x49
 1569 05e7 EE050000 		.4byte	0x5ee
 1570 05eb 4005     		.2byte	0x540
ARM GAS  /tmp/cc43DkP6.s 			page 29


 1571 05ed 00       		.byte	0
 1572 05ee 18       		.uleb128 0x18
 1573 05ef 8F020000 		.4byte	0x28f
 1574 05f3 FE050000 		.4byte	0x5fe
 1575 05f7 19       		.uleb128 0x19
 1576 05f8 7B020000 		.4byte	0x27b
 1577 05fc 29       		.byte	0x29
 1578 05fd 00       		.byte	0
 1579 05fe 1A       		.uleb128 0x1a
 1580 05ff 01040000 		.4byte	.LASF92
 1581 0603 9006     		.2byte	0x690
 1582 0605 0E       		.byte	0xe
 1583 0606 43       		.byte	0x43
 1584 0607 21060000 		.4byte	0x621
 1585 060b 13       		.uleb128 0x13
 1586 060c 776100   		.ascii	"wa\000"
 1587 060f 0E       		.byte	0xe
 1588 0610 4A       		.byte	0x4a
 1589 0611 A9050000 		.4byte	0x5a9
 1590 0615 11       		.uleb128 0x11
 1591 0616 19050000 		.4byte	.LASF93
 1592 061a 0E       		.byte	0xe
 1593 061b 4B       		.byte	0x4b
 1594 061c 21060000 		.4byte	0x621
 1595 0620 00       		.byte	0
 1596 0621 18       		.uleb128 0x18
 1597 0622 A2000000 		.4byte	0xa2
 1598 0626 32060000 		.4byte	0x632
 1599 062a 1B       		.uleb128 0x1b
 1600 062b 7B020000 		.4byte	0x27b
 1601 062f 8F06     		.2byte	0x68f
 1602 0631 00       		.byte	0
 1603 0632 1C       		.uleb128 0x1c
 1604 0633 F0010000 		.4byte	.LASF95
 1605 0637 01       		.byte	0x1
 1606 0638 53       		.byte	0x53
 1607 0639 00000000 		.4byte	.LFB120
 1608 063d F0000000 		.4byte	.LFE120-.LFB120
 1609 0641 01       		.uleb128 0x1
 1610 0642 9C       		.byte	0x9c
 1611 0643 FD070000 		.4byte	0x7fd
 1612 0647 1D       		.uleb128 0x1d
 1613 0648 6E00     		.ascii	"n\000"
 1614 064a 01       		.byte	0x1
 1615 064b 54       		.byte	0x54
 1616 064c 2C000000 		.4byte	0x2c
 1617 0650 02       		.uleb128 0x2
 1618 0651 91       		.byte	0x91
 1619 0652 68       		.sleb128 -24
 1620 0653 1D       		.uleb128 0x1d
 1621 0654 737A00   		.ascii	"sz\000"
 1622 0657 01       		.byte	0x1
 1623 0658 54       		.byte	0x54
 1624 0659 2C000000 		.4byte	0x2c
 1625 065d 02       		.uleb128 0x2
 1626 065e 91       		.byte	0x91
 1627 065f 6C       		.sleb128 -20
ARM GAS  /tmp/cc43DkP6.s 			page 30


 1628 0660 1E       		.uleb128 0x1e
 1629 0661 703100   		.ascii	"p1\000"
 1630 0664 01       		.byte	0x1
 1631 0665 55       		.byte	0x55
 1632 0666 8D020000 		.4byte	0x28d
 1633 066a 00000000 		.4byte	.LLST0
 1634 066e 1F       		.uleb128 0x1f
 1635 066f 90030000 		.4byte	.LASF94
 1636 0673 01       		.byte	0x1
 1637 0674 56       		.byte	0x56
 1638 0675 01010000 		.4byte	0x101
 1639 0679 01       		.uleb128 0x1
 1640 067a 55       		.byte	0x55
 1641 067b 20       		.uleb128 0x20
 1642 067c 14000000 		.4byte	.LVL1
 1643 0680 C10D0000 		.4byte	0xdc1
 1644 0684 98060000 		.4byte	0x698
 1645 0688 21       		.uleb128 0x21
 1646 0689 01       		.uleb128 0x1
 1647 068a 51       		.byte	0x51
 1648 068b 02       		.uleb128 0x2
 1649 068c 91       		.byte	0x91
 1650 068d 6C       		.sleb128 -20
 1651 068e 21       		.uleb128 0x21
 1652 068f 01       		.uleb128 0x1
 1653 0690 50       		.byte	0x50
 1654 0691 05       		.uleb128 0x5
 1655 0692 03       		.byte	0x3
 1656 0693 00000000 		.4byte	.LANCHOR0
 1657 0697 00       		.byte	0
 1658 0698 20       		.uleb128 0x20
 1659 0699 26000000 		.4byte	.LVL2
 1660 069d E10D0000 		.4byte	0xde1
 1661 06a1 CF060000 		.4byte	0x6cf
 1662 06a5 21       		.uleb128 0x21
 1663 06a6 01       		.uleb128 0x1
 1664 06a7 53       		.byte	0x53
 1665 06a8 05       		.uleb128 0x5
 1666 06a9 03       		.byte	0x3
 1667 06aa 00000000 		.4byte	thread
 1668 06ae 21       		.uleb128 0x21
 1669 06af 01       		.uleb128 0x1
 1670 06b0 52       		.byte	0x52
 1671 06b1 02       		.uleb128 0x2
 1672 06b2 75       		.byte	0x75
 1673 06b3 7F       		.sleb128 -1
 1674 06b4 21       		.uleb128 0x21
 1675 06b5 01       		.uleb128 0x1
 1676 06b6 51       		.byte	0x51
 1677 06b7 03       		.uleb128 0x3
 1678 06b8 0A       		.byte	0xa
 1679 06b9 5001     		.2byte	0x150
 1680 06bb 21       		.uleb128 0x21
 1681 06bc 01       		.uleb128 0x1
 1682 06bd 50       		.byte	0x50
 1683 06be 05       		.uleb128 0x5
 1684 06bf 03       		.byte	0x3
ARM GAS  /tmp/cc43DkP6.s 			page 31


 1685 06c0 00000000 		.4byte	.LANCHOR0
 1686 06c4 21       		.uleb128 0x21
 1687 06c5 02       		.uleb128 0x2
 1688 06c6 7D       		.byte	0x7d
 1689 06c7 00       		.sleb128 0
 1690 06c8 05       		.uleb128 0x5
 1691 06c9 03       		.byte	0x3
 1692 06ca 00000000 		.4byte	.LC0
 1693 06ce 00       		.byte	0
 1694 06cf 20       		.uleb128 0x20
 1695 06d0 3A000000 		.4byte	.LVL3
 1696 06d4 E10D0000 		.4byte	0xde1
 1697 06d8 06070000 		.4byte	0x706
 1698 06dc 21       		.uleb128 0x21
 1699 06dd 01       		.uleb128 0x1
 1700 06de 53       		.byte	0x53
 1701 06df 05       		.uleb128 0x5
 1702 06e0 03       		.byte	0x3
 1703 06e1 00000000 		.4byte	thread
 1704 06e5 21       		.uleb128 0x21
 1705 06e6 01       		.uleb128 0x1
 1706 06e7 52       		.byte	0x52
 1707 06e8 02       		.uleb128 0x2
 1708 06e9 75       		.byte	0x75
 1709 06ea 7E       		.sleb128 -2
 1710 06eb 21       		.uleb128 0x21
 1711 06ec 01       		.uleb128 0x1
 1712 06ed 51       		.byte	0x51
 1713 06ee 03       		.uleb128 0x3
 1714 06ef 0A       		.byte	0xa
 1715 06f0 5001     		.2byte	0x150
 1716 06f2 21       		.uleb128 0x21
 1717 06f3 01       		.uleb128 0x1
 1718 06f4 50       		.byte	0x50
 1719 06f5 05       		.uleb128 0x5
 1720 06f6 03       		.byte	0x3
 1721 06f7 00000000 		.4byte	.LANCHOR0
 1722 06fb 21       		.uleb128 0x21
 1723 06fc 02       		.uleb128 0x2
 1724 06fd 7D       		.byte	0x7d
 1725 06fe 00       		.sleb128 0
 1726 06ff 05       		.uleb128 0x5
 1727 0700 03       		.byte	0x3
 1728 0701 04000000 		.4byte	.LC1
 1729 0705 00       		.byte	0
 1730 0706 20       		.uleb128 0x20
 1731 0707 44000000 		.4byte	.LVL4
 1732 070b C10D0000 		.4byte	0xdc1
 1733 070f 23070000 		.4byte	0x723
 1734 0713 21       		.uleb128 0x21
 1735 0714 01       		.uleb128 0x1
 1736 0715 51       		.byte	0x51
 1737 0716 02       		.uleb128 0x2
 1738 0717 91       		.byte	0x91
 1739 0718 68       		.sleb128 -24
 1740 0719 21       		.uleb128 0x21
 1741 071a 01       		.uleb128 0x1
ARM GAS  /tmp/cc43DkP6.s 			page 32


 1742 071b 50       		.byte	0x50
 1743 071c 05       		.uleb128 0x5
 1744 071d 03       		.byte	0x3
 1745 071e 00000000 		.4byte	.LANCHOR0
 1746 0722 00       		.byte	0
 1747 0723 20       		.uleb128 0x20
 1748 0724 4C000000 		.4byte	.LVL5
 1749 0728 0A0E0000 		.4byte	0xe0a
 1750 072c 3A070000 		.4byte	0x73a
 1751 0730 21       		.uleb128 0x21
 1752 0731 01       		.uleb128 0x1
 1753 0732 50       		.byte	0x50
 1754 0733 05       		.uleb128 0x5
 1755 0734 03       		.byte	0x3
 1756 0735 00000000 		.4byte	.LANCHOR0
 1757 0739 00       		.byte	0
 1758 073a 20       		.uleb128 0x20
 1759 073b 60000000 		.4byte	.LVL8
 1760 073f E10D0000 		.4byte	0xde1
 1761 0743 71070000 		.4byte	0x771
 1762 0747 21       		.uleb128 0x21
 1763 0748 01       		.uleb128 0x1
 1764 0749 53       		.byte	0x53
 1765 074a 05       		.uleb128 0x5
 1766 074b 03       		.byte	0x3
 1767 074c 00000000 		.4byte	thread
 1768 0750 21       		.uleb128 0x21
 1769 0751 01       		.uleb128 0x1
 1770 0752 52       		.byte	0x52
 1771 0753 02       		.uleb128 0x2
 1772 0754 75       		.byte	0x75
 1773 0755 7D       		.sleb128 -3
 1774 0756 21       		.uleb128 0x21
 1775 0757 01       		.uleb128 0x1
 1776 0758 51       		.byte	0x51
 1777 0759 03       		.uleb128 0x3
 1778 075a 0A       		.byte	0xa
 1779 075b 5001     		.2byte	0x150
 1780 075d 21       		.uleb128 0x21
 1781 075e 01       		.uleb128 0x1
 1782 075f 50       		.byte	0x50
 1783 0760 05       		.uleb128 0x5
 1784 0761 03       		.byte	0x3
 1785 0762 00000000 		.4byte	.LANCHOR0
 1786 0766 21       		.uleb128 0x21
 1787 0767 02       		.uleb128 0x2
 1788 0768 7D       		.byte	0x7d
 1789 0769 00       		.sleb128 0
 1790 076a 05       		.uleb128 0x5
 1791 076b 03       		.byte	0x3
 1792 076c 08000000 		.4byte	.LC2
 1793 0770 00       		.byte	0
 1794 0771 20       		.uleb128 0x20
 1795 0772 68000000 		.4byte	.LVL9
 1796 0776 240E0000 		.4byte	0xe24
 1797 077a 85070000 		.4byte	0x785
 1798 077e 21       		.uleb128 0x21
ARM GAS  /tmp/cc43DkP6.s 			page 33


 1799 077f 01       		.uleb128 0x1
 1800 0780 50       		.byte	0x50
 1801 0781 02       		.uleb128 0x2
 1802 0782 76       		.byte	0x76
 1803 0783 00       		.sleb128 0
 1804 0784 00       		.byte	0
 1805 0785 20       		.uleb128 0x20
 1806 0786 7C000000 		.4byte	.LVL10
 1807 078a 350E0000 		.4byte	0xe35
 1808 078e 98070000 		.4byte	0x798
 1809 0792 21       		.uleb128 0x21
 1810 0793 01       		.uleb128 0x1
 1811 0794 50       		.byte	0x50
 1812 0795 01       		.uleb128 0x1
 1813 0796 31       		.byte	0x31
 1814 0797 00       		.byte	0
 1815 0798 22       		.uleb128 0x22
 1816 0799 86000000 		.4byte	.LVL12
 1817 079d 4F0E0000 		.4byte	0xe4f
 1818 07a1 20       		.uleb128 0x20
 1819 07a2 8E000000 		.4byte	.LVL13
 1820 07a6 560E0000 		.4byte	0xe56
 1821 07aa BD070000 		.4byte	0x7bd
 1822 07ae 21       		.uleb128 0x21
 1823 07af 01       		.uleb128 0x1
 1824 07b0 51       		.byte	0x51
 1825 07b1 05       		.uleb128 0x5
 1826 07b2 03       		.byte	0x3
 1827 07b3 0C000000 		.4byte	.LC3
 1828 07b7 21       		.uleb128 0x21
 1829 07b8 01       		.uleb128 0x1
 1830 07b9 50       		.byte	0x50
 1831 07ba 01       		.uleb128 0x1
 1832 07bb 32       		.byte	0x32
 1833 07bc 00       		.byte	0
 1834 07bd 20       		.uleb128 0x20
 1835 07be 9A000000 		.4byte	.LVL14
 1836 07c2 C10D0000 		.4byte	0xdc1
 1837 07c6 DA070000 		.4byte	0x7da
 1838 07ca 21       		.uleb128 0x21
 1839 07cb 01       		.uleb128 0x1
 1840 07cc 51       		.byte	0x51
 1841 07cd 02       		.uleb128 0x2
 1842 07ce 91       		.byte	0x91
 1843 07cf 68       		.sleb128 -24
 1844 07d0 21       		.uleb128 0x21
 1845 07d1 01       		.uleb128 0x1
 1846 07d2 50       		.byte	0x50
 1847 07d3 05       		.uleb128 0x5
 1848 07d4 03       		.byte	0x3
 1849 07d5 00000000 		.4byte	.LANCHOR0
 1850 07d9 00       		.byte	0
 1851 07da 20       		.uleb128 0x20
 1852 07db A6000000 		.4byte	.LVL15
 1853 07df 350E0000 		.4byte	0xe35
 1854 07e3 ED070000 		.4byte	0x7ed
 1855 07e7 21       		.uleb128 0x21
ARM GAS  /tmp/cc43DkP6.s 			page 34


 1856 07e8 01       		.uleb128 0x1
 1857 07e9 50       		.byte	0x50
 1858 07ea 01       		.uleb128 0x1
 1859 07eb 33       		.byte	0x33
 1860 07ec 00       		.byte	0
 1861 07ed 23       		.uleb128 0x23
 1862 07ee BA000000 		.4byte	.LVL16
 1863 07f2 350E0000 		.4byte	0xe35
 1864 07f6 21       		.uleb128 0x21
 1865 07f7 01       		.uleb128 0x1
 1866 07f8 50       		.byte	0x50
 1867 07f9 01       		.uleb128 0x1
 1868 07fa 34       		.byte	0x34
 1869 07fb 00       		.byte	0
 1870 07fc 00       		.byte	0
 1871 07fd 24       		.uleb128 0x24
 1872 07fe D2030000 		.4byte	.LASF100
 1873 0802 01       		.byte	0x1
 1874 0803 47       		.byte	0x47
 1875 0804 0C010000 		.4byte	0x10c
 1876 0808 00000000 		.4byte	.LFB118
 1877 080c 0C000000 		.4byte	.LFE118-.LFB118
 1878 0810 01       		.uleb128 0x1
 1879 0811 9C       		.byte	0x9c
 1880 0812 2D080000 		.4byte	0x82d
 1881 0816 25       		.uleb128 0x25
 1882 0817 7000     		.ascii	"p\000"
 1883 0819 01       		.byte	0x1
 1884 081a 47       		.byte	0x47
 1885 081b 8D020000 		.4byte	0x28d
 1886 081f 1E000000 		.4byte	.LLST1
 1887 0823 22       		.uleb128 0x22
 1888 0824 08000000 		.4byte	.LVL19
 1889 0828 760E0000 		.4byte	0xe76
 1890 082c 00       		.byte	0
 1891 082d 1C       		.uleb128 0x1c
 1892 082e A1040000 		.4byte	.LASF96
 1893 0832 01       		.byte	0x1
 1894 0833 4E       		.byte	0x4e
 1895 0834 00000000 		.4byte	.LFB119
 1896 0838 14000000 		.4byte	.LFE119-.LFB119
 1897 083c 01       		.uleb128 0x1
 1898 083d 9C       		.byte	0x9c
 1899 083e 5D080000 		.4byte	0x85d
 1900 0842 26       		.uleb128 0x26
 1901 0843 0C000000 		.4byte	.LVL20
 1902 0847 870E0000 		.4byte	0xe87
 1903 084b 21       		.uleb128 0x21
 1904 084c 01       		.uleb128 0x1
 1905 084d 52       		.byte	0x52
 1906 084e 03       		.uleb128 0x3
 1907 084f 0A       		.byte	0xa
 1908 0850 9006     		.2byte	0x690
 1909 0852 21       		.uleb128 0x21
 1910 0853 01       		.uleb128 0x1
 1911 0854 50       		.byte	0x50
 1912 0855 05       		.uleb128 0x5
ARM GAS  /tmp/cc43DkP6.s 			page 35


 1913 0856 03       		.byte	0x3
 1914 0857 00000000 		.4byte	.LANCHOR0
 1915 085b 00       		.byte	0
 1916 085c 00       		.byte	0
 1917 085d 1C       		.uleb128 0x1c
 1918 085e D3040000 		.4byte	.LASF97
 1919 0862 01       		.byte	0x1
 1920 0863 CB       		.byte	0xcb
 1921 0864 00000000 		.4byte	.LFB124
 1922 0868 14000000 		.4byte	.LFE124-.LFB124
 1923 086c 01       		.uleb128 0x1
 1924 086d 9C       		.byte	0x9c
 1925 086e 8D080000 		.4byte	0x88d
 1926 0872 26       		.uleb128 0x26
 1927 0873 0C000000 		.4byte	.LVL21
 1928 0877 870E0000 		.4byte	0xe87
 1929 087b 21       		.uleb128 0x21
 1930 087c 01       		.uleb128 0x1
 1931 087d 52       		.byte	0x52
 1932 087e 03       		.uleb128 0x3
 1933 087f 0A       		.byte	0xa
 1934 0880 9006     		.2byte	0x690
 1935 0882 21       		.uleb128 0x21
 1936 0883 01       		.uleb128 0x1
 1937 0884 50       		.byte	0x50
 1938 0885 05       		.uleb128 0x5
 1939 0886 03       		.byte	0x3
 1940 0887 00000000 		.4byte	.LANCHOR0
 1941 088b 00       		.byte	0
 1942 088c 00       		.byte	0
 1943 088d 1C       		.uleb128 0x1c
 1944 088e 74020000 		.4byte	.LASF98
 1945 0892 01       		.byte	0x1
 1946 0893 8D       		.byte	0x8d
 1947 0894 00000000 		.4byte	.LFB122
 1948 0898 F8000000 		.4byte	.LFE122-.LFB122
 1949 089c 01       		.uleb128 0x1
 1950 089d 9C       		.byte	0x9c
 1951 089e 490A0000 		.4byte	0xa49
 1952 08a2 1E       		.uleb128 0x1e
 1953 08a3 6900     		.ascii	"i\000"
 1954 08a5 01       		.byte	0x1
 1955 08a6 8E       		.byte	0x8e
 1956 08a7 25000000 		.4byte	0x25
 1957 08ab 3F000000 		.4byte	.LLST2
 1958 08af 27       		.uleb128 0x27
 1959 08b0 90030000 		.4byte	.LASF94
 1960 08b4 01       		.byte	0x1
 1961 08b5 8F       		.byte	0x8f
 1962 08b6 01010000 		.4byte	0x101
 1963 08ba 80000000 		.4byte	.LLST3
 1964 08be 20       		.uleb128 0x20
 1965 08bf 18000000 		.4byte	.LVL24
 1966 08c3 A20E0000 		.4byte	0xea2
 1967 08c7 D5080000 		.4byte	0x8d5
 1968 08cb 21       		.uleb128 0x21
 1969 08cc 01       		.uleb128 0x1
ARM GAS  /tmp/cc43DkP6.s 			page 36


 1970 08cd 50       		.byte	0x50
 1971 08ce 05       		.uleb128 0x5
 1972 08cf 03       		.byte	0x3
 1973 08d0 00000000 		.4byte	.LANCHOR1
 1974 08d4 00       		.byte	0
 1975 08d5 20       		.uleb128 0x20
 1976 08d6 2A000000 		.4byte	.LVL25
 1977 08da BE0E0000 		.4byte	0xebe
 1978 08de 04090000 		.4byte	0x904
 1979 08e2 21       		.uleb128 0x21
 1980 08e3 01       		.uleb128 0x1
 1981 08e4 53       		.byte	0x53
 1982 08e5 05       		.uleb128 0x5
 1983 08e6 03       		.byte	0x3
 1984 08e7 00000000 		.4byte	.LC0
 1985 08eb 21       		.uleb128 0x21
 1986 08ec 01       		.uleb128 0x1
 1987 08ed 52       		.byte	0x52
 1988 08ee 05       		.uleb128 0x5
 1989 08ef 03       		.byte	0x3
 1990 08f0 00000000 		.4byte	thread
 1991 08f4 21       		.uleb128 0x21
 1992 08f5 01       		.uleb128 0x1
 1993 08f6 51       		.byte	0x51
 1994 08f7 02       		.uleb128 0x2
 1995 08f8 75       		.byte	0x75
 1996 08f9 7F       		.sleb128 -1
 1997 08fa 21       		.uleb128 0x21
 1998 08fb 01       		.uleb128 0x1
 1999 08fc 50       		.byte	0x50
 2000 08fd 05       		.uleb128 0x5
 2001 08fe 03       		.byte	0x3
 2002 08ff 00000000 		.4byte	.LANCHOR1
 2003 0903 00       		.byte	0
 2004 0904 20       		.uleb128 0x20
 2005 0905 38000000 		.4byte	.LVL26
 2006 0909 BE0E0000 		.4byte	0xebe
 2007 090d 33090000 		.4byte	0x933
 2008 0911 21       		.uleb128 0x21
 2009 0912 01       		.uleb128 0x1
 2010 0913 53       		.byte	0x53
 2011 0914 05       		.uleb128 0x5
 2012 0915 03       		.byte	0x3
 2013 0916 04000000 		.4byte	.LC1
 2014 091a 21       		.uleb128 0x21
 2015 091b 01       		.uleb128 0x1
 2016 091c 52       		.byte	0x52
 2017 091d 05       		.uleb128 0x5
 2018 091e 03       		.byte	0x3
 2019 091f 00000000 		.4byte	thread
 2020 0923 21       		.uleb128 0x21
 2021 0924 01       		.uleb128 0x1
 2022 0925 51       		.byte	0x51
 2023 0926 02       		.uleb128 0x2
 2024 0927 75       		.byte	0x75
 2025 0928 7E       		.sleb128 -2
 2026 0929 21       		.uleb128 0x21
ARM GAS  /tmp/cc43DkP6.s 			page 37


 2027 092a 01       		.uleb128 0x1
 2028 092b 50       		.byte	0x50
 2029 092c 05       		.uleb128 0x5
 2030 092d 03       		.byte	0x3
 2031 092e 00000000 		.4byte	.LANCHOR1
 2032 0932 00       		.byte	0
 2033 0933 20       		.uleb128 0x20
 2034 0934 46000000 		.4byte	.LVL27
 2035 0938 BE0E0000 		.4byte	0xebe
 2036 093c 62090000 		.4byte	0x962
 2037 0940 21       		.uleb128 0x21
 2038 0941 01       		.uleb128 0x1
 2039 0942 53       		.byte	0x53
 2040 0943 05       		.uleb128 0x5
 2041 0944 03       		.byte	0x3
 2042 0945 08000000 		.4byte	.LC2
 2043 0949 21       		.uleb128 0x21
 2044 094a 01       		.uleb128 0x1
 2045 094b 52       		.byte	0x52
 2046 094c 05       		.uleb128 0x5
 2047 094d 03       		.byte	0x3
 2048 094e 00000000 		.4byte	thread
 2049 0952 21       		.uleb128 0x21
 2050 0953 01       		.uleb128 0x1
 2051 0954 51       		.byte	0x51
 2052 0955 02       		.uleb128 0x2
 2053 0956 75       		.byte	0x75
 2054 0957 7D       		.sleb128 -3
 2055 0958 21       		.uleb128 0x21
 2056 0959 01       		.uleb128 0x1
 2057 095a 50       		.byte	0x50
 2058 095b 05       		.uleb128 0x5
 2059 095c 03       		.byte	0x3
 2060 095d 00000000 		.4byte	.LANCHOR1
 2061 0961 00       		.byte	0
 2062 0962 20       		.uleb128 0x20
 2063 0963 54000000 		.4byte	.LVL28
 2064 0967 BE0E0000 		.4byte	0xebe
 2065 096b 91090000 		.4byte	0x991
 2066 096f 21       		.uleb128 0x21
 2067 0970 01       		.uleb128 0x1
 2068 0971 53       		.byte	0x53
 2069 0972 05       		.uleb128 0x5
 2070 0973 03       		.byte	0x3
 2071 0974 10000000 		.4byte	.LC4
 2072 0978 21       		.uleb128 0x21
 2073 0979 01       		.uleb128 0x1
 2074 097a 52       		.byte	0x52
 2075 097b 05       		.uleb128 0x5
 2076 097c 03       		.byte	0x3
 2077 097d 00000000 		.4byte	thread
 2078 0981 21       		.uleb128 0x21
 2079 0982 01       		.uleb128 0x1
 2080 0983 51       		.byte	0x51
 2081 0984 02       		.uleb128 0x2
 2082 0985 75       		.byte	0x75
 2083 0986 7C       		.sleb128 -4
ARM GAS  /tmp/cc43DkP6.s 			page 38


 2084 0987 21       		.uleb128 0x21
 2085 0988 01       		.uleb128 0x1
 2086 0989 50       		.byte	0x50
 2087 098a 05       		.uleb128 0x5
 2088 098b 03       		.byte	0x3
 2089 098c 00000000 		.4byte	.LANCHOR1
 2090 0990 00       		.byte	0
 2091 0991 20       		.uleb128 0x20
 2092 0992 62000000 		.4byte	.LVL29
 2093 0996 BE0E0000 		.4byte	0xebe
 2094 099a C0090000 		.4byte	0x9c0
 2095 099e 21       		.uleb128 0x21
 2096 099f 01       		.uleb128 0x1
 2097 09a0 53       		.byte	0x53
 2098 09a1 05       		.uleb128 0x5
 2099 09a2 03       		.byte	0x3
 2100 09a3 14000000 		.4byte	.LC5
 2101 09a7 21       		.uleb128 0x21
 2102 09a8 01       		.uleb128 0x1
 2103 09a9 52       		.byte	0x52
 2104 09aa 05       		.uleb128 0x5
 2105 09ab 03       		.byte	0x3
 2106 09ac 00000000 		.4byte	thread
 2107 09b0 21       		.uleb128 0x21
 2108 09b1 01       		.uleb128 0x1
 2109 09b2 51       		.byte	0x51
 2110 09b3 02       		.uleb128 0x2
 2111 09b4 75       		.byte	0x75
 2112 09b5 7B       		.sleb128 -5
 2113 09b6 21       		.uleb128 0x21
 2114 09b7 01       		.uleb128 0x1
 2115 09b8 50       		.byte	0x50
 2116 09b9 05       		.uleb128 0x5
 2117 09ba 03       		.byte	0x3
 2118 09bb 00000000 		.4byte	.LANCHOR1
 2119 09bf 00       		.byte	0
 2120 09c0 20       		.uleb128 0x20
 2121 09c1 82000000 		.4byte	.LVL30
 2122 09c5 350E0000 		.4byte	0xe35
 2123 09c9 D3090000 		.4byte	0x9d3
 2124 09cd 21       		.uleb128 0x21
 2125 09ce 01       		.uleb128 0x1
 2126 09cf 50       		.byte	0x50
 2127 09d0 01       		.uleb128 0x1
 2128 09d1 31       		.byte	0x31
 2129 09d2 00       		.byte	0
 2130 09d3 22       		.uleb128 0x22
 2131 09d4 8A000000 		.4byte	.LVL32
 2132 09d8 4F0E0000 		.4byte	0xe4f
 2133 09dc 20       		.uleb128 0x20
 2134 09dd 92000000 		.4byte	.LVL33
 2135 09e1 560E0000 		.4byte	0xe56
 2136 09e5 F8090000 		.4byte	0x9f8
 2137 09e9 21       		.uleb128 0x21
 2138 09ea 01       		.uleb128 0x1
 2139 09eb 51       		.byte	0x51
 2140 09ec 05       		.uleb128 0x5
ARM GAS  /tmp/cc43DkP6.s 			page 39


 2141 09ed 03       		.byte	0x3
 2142 09ee 18000000 		.4byte	.LC6
 2143 09f2 21       		.uleb128 0x21
 2144 09f3 01       		.uleb128 0x1
 2145 09f4 50       		.byte	0x50
 2146 09f5 01       		.uleb128 0x1
 2147 09f6 32       		.byte	0x32
 2148 09f7 00       		.byte	0
 2149 09f8 20       		.uleb128 0x20
 2150 09f9 9E000000 		.4byte	.LVL35
 2151 09fd E20E0000 		.4byte	0xee2
 2152 0a01 0F0A0000 		.4byte	0xa0f
 2153 0a05 21       		.uleb128 0x21
 2154 0a06 01       		.uleb128 0x1
 2155 0a07 50       		.byte	0x50
 2156 0a08 05       		.uleb128 0x5
 2157 0a09 03       		.byte	0x3
 2158 0a0a 00000000 		.4byte	.LANCHOR1
 2159 0a0e 00       		.byte	0
 2160 0a0f 20       		.uleb128 0x20
 2161 0a10 AA000000 		.4byte	.LVL36
 2162 0a14 350E0000 		.4byte	0xe35
 2163 0a18 220A0000 		.4byte	0xa22
 2164 0a1c 21       		.uleb128 0x21
 2165 0a1d 01       		.uleb128 0x1
 2166 0a1e 50       		.byte	0x50
 2167 0a1f 01       		.uleb128 0x1
 2168 0a20 33       		.byte	0x33
 2169 0a21 00       		.byte	0
 2170 0a22 20       		.uleb128 0x20
 2171 0a23 B8000000 		.4byte	.LVL38
 2172 0a27 E20E0000 		.4byte	0xee2
 2173 0a2b 390A0000 		.4byte	0xa39
 2174 0a2f 21       		.uleb128 0x21
 2175 0a30 01       		.uleb128 0x1
 2176 0a31 50       		.byte	0x50
 2177 0a32 05       		.uleb128 0x5
 2178 0a33 03       		.byte	0x3
 2179 0a34 00000000 		.4byte	.LANCHOR1
 2180 0a38 00       		.byte	0
 2181 0a39 26       		.uleb128 0x26
 2182 0a3a CA000000 		.4byte	.LVL40
 2183 0a3e 350E0000 		.4byte	0xe35
 2184 0a42 21       		.uleb128 0x21
 2185 0a43 01       		.uleb128 0x1
 2186 0a44 50       		.byte	0x50
 2187 0a45 01       		.uleb128 0x1
 2188 0a46 34       		.byte	0x34
 2189 0a47 00       		.byte	0
 2190 0a48 00       		.byte	0
 2191 0a49 1C       		.uleb128 0x1c
 2192 0a4a 59010000 		.4byte	.LASF99
 2193 0a4e 01       		.byte	0x1
 2194 0a4f 88       		.byte	0x88
 2195 0a50 00000000 		.4byte	.LFB121
 2196 0a54 10000000 		.4byte	.LFE121-.LFB121
 2197 0a58 01       		.uleb128 0x1
ARM GAS  /tmp/cc43DkP6.s 			page 40


 2198 0a59 9C       		.byte	0x9c
 2199 0a5a 7E0A0000 		.4byte	0xa7e
 2200 0a5e 26       		.uleb128 0x26
 2201 0a5f 0C000000 		.4byte	.LVL41
 2202 0a63 F70E0000 		.4byte	0xef7
 2203 0a67 21       		.uleb128 0x21
 2204 0a68 01       		.uleb128 0x1
 2205 0a69 52       		.byte	0x52
 2206 0a6a 01       		.uleb128 0x1
 2207 0a6b 30       		.byte	0x30
 2208 0a6c 21       		.uleb128 0x21
 2209 0a6d 01       		.uleb128 0x1
 2210 0a6e 51       		.byte	0x51
 2211 0a6f 03       		.uleb128 0x3
 2212 0a70 0A       		.byte	0xa
 2213 0a71 5001     		.2byte	0x150
 2214 0a73 21       		.uleb128 0x21
 2215 0a74 01       		.uleb128 0x1
 2216 0a75 50       		.byte	0x50
 2217 0a76 05       		.uleb128 0x5
 2218 0a77 03       		.byte	0x3
 2219 0a78 00000000 		.4byte	.LANCHOR1
 2220 0a7c 00       		.byte	0
 2221 0a7d 00       		.byte	0
 2222 0a7e 24       		.uleb128 0x24
 2223 0a7f 88050000 		.4byte	.LASF101
 2224 0a83 01       		.byte	0x1
 2225 0a84 BF       		.byte	0xbf
 2226 0a85 CE000000 		.4byte	0xce
 2227 0a89 00000000 		.4byte	.LFB123
 2228 0a8d 24000000 		.4byte	.LFE123-.LFB123
 2229 0a91 01       		.uleb128 0x1
 2230 0a92 9C       		.byte	0x9c
 2231 0a93 D60A0000 		.4byte	0xad6
 2232 0a97 25       		.uleb128 0x25
 2233 0a98 747000   		.ascii	"tp\000"
 2234 0a9b 01       		.byte	0x1
 2235 0a9c BF       		.byte	0xbf
 2236 0a9d 4A020000 		.4byte	0x24a
 2237 0aa1 93000000 		.4byte	.LLST4
 2238 0aa5 1E       		.uleb128 0x1e
 2239 0aa6 66747000 		.ascii	"ftp\000"
 2240 0aaa 01       		.byte	0x1
 2241 0aab C0       		.byte	0xc0
 2242 0aac 4A020000 		.4byte	0x24a
 2243 0ab0 B1000000 		.4byte	.LLST5
 2244 0ab4 27       		.uleb128 0x27
 2245 0ab5 5A050000 		.4byte	.LASF102
 2246 0ab9 01       		.byte	0x1
 2247 0aba C1       		.byte	0xc1
 2248 0abb CE000000 		.4byte	0xce
 2249 0abf DA000000 		.4byte	.LLST6
 2250 0ac3 22       		.uleb128 0x22
 2251 0ac4 08000000 		.4byte	.LVL43
 2252 0ac8 120F0000 		.4byte	0xf12
 2253 0acc 22       		.uleb128 0x22
 2254 0acd 1A000000 		.4byte	.LVL46
ARM GAS  /tmp/cc43DkP6.s 			page 41


 2255 0ad1 1D0F0000 		.4byte	0xf1d
 2256 0ad5 00       		.byte	0
 2257 0ad6 1C       		.uleb128 0x1c
 2258 0ad7 3D030000 		.4byte	.LASF103
 2259 0adb 01       		.byte	0x1
 2260 0adc D0       		.byte	0xd0
 2261 0add 00000000 		.4byte	.LFB125
 2262 0ae1 3C010000 		.4byte	.LFE125-.LFB125
 2263 0ae5 01       		.uleb128 0x1
 2264 0ae6 9C       		.byte	0x9c
 2265 0ae7 DF0C0000 		.4byte	0xcdf
 2266 0aeb 1E       		.uleb128 0x1e
 2267 0aec 747000   		.ascii	"tp\000"
 2268 0aef 01       		.byte	0x1
 2269 0af0 D1       		.byte	0xd1
 2270 0af1 4A020000 		.4byte	0x24a
 2271 0af5 F9000000 		.4byte	.LLST7
 2272 0af9 28       		.uleb128 0x28
 2273 0afa 90030000 		.4byte	.LASF94
 2274 0afe 01       		.byte	0x1
 2275 0aff D2       		.byte	0xd2
 2276 0b00 01010000 		.4byte	0x101
 2277 0b04 20       		.uleb128 0x20
 2278 0b05 1C000000 		.4byte	.LVL50
 2279 0b09 E10D0000 		.4byte	0xde1
 2280 0b0d 350B0000 		.4byte	0xb35
 2281 0b11 21       		.uleb128 0x21
 2282 0b12 01       		.uleb128 0x1
 2283 0b13 53       		.byte	0x53
 2284 0b14 05       		.uleb128 0x5
 2285 0b15 03       		.byte	0x3
 2286 0b16 00000000 		.4byte	thread
 2287 0b1a 21       		.uleb128 0x21
 2288 0b1b 01       		.uleb128 0x1
 2289 0b1c 51       		.byte	0x51
 2290 0b1d 03       		.uleb128 0x3
 2291 0b1e 0A       		.byte	0xa
 2292 0b1f 5001     		.2byte	0x150
 2293 0b21 21       		.uleb128 0x21
 2294 0b22 01       		.uleb128 0x1
 2295 0b23 50       		.byte	0x50
 2296 0b24 05       		.uleb128 0x5
 2297 0b25 03       		.byte	0x3
 2298 0b26 00000000 		.4byte	.LANCHOR0
 2299 0b2a 21       		.uleb128 0x21
 2300 0b2b 02       		.uleb128 0x2
 2301 0b2c 7D       		.byte	0x7d
 2302 0b2d 00       		.sleb128 0
 2303 0b2e 05       		.uleb128 0x5
 2304 0b2f 03       		.byte	0x3
 2305 0b30 00000000 		.4byte	.LC0
 2306 0b34 00       		.byte	0
 2307 0b35 20       		.uleb128 0x20
 2308 0b36 32000000 		.4byte	.LVL53
 2309 0b3a 350E0000 		.4byte	0xe35
 2310 0b3e 480B0000 		.4byte	0xb48
 2311 0b42 21       		.uleb128 0x21
ARM GAS  /tmp/cc43DkP6.s 			page 42


 2312 0b43 01       		.uleb128 0x1
 2313 0b44 50       		.byte	0x50
 2314 0b45 01       		.uleb128 0x1
 2315 0b46 31       		.byte	0x31
 2316 0b47 00       		.byte	0
 2317 0b48 20       		.uleb128 0x20
 2318 0b49 3E000000 		.4byte	.LVL55
 2319 0b4d 320F0000 		.4byte	0xf32
 2320 0b51 5C0B0000 		.4byte	0xb5c
 2321 0b55 21       		.uleb128 0x21
 2322 0b56 01       		.uleb128 0x1
 2323 0b57 50       		.byte	0x50
 2324 0b58 02       		.uleb128 0x2
 2325 0b59 74       		.byte	0x74
 2326 0b5a 00       		.sleb128 0
 2327 0b5b 00       		.byte	0
 2328 0b5c 20       		.uleb128 0x20
 2329 0b5d 52000000 		.4byte	.LVL56
 2330 0b61 350E0000 		.4byte	0xe35
 2331 0b65 6F0B0000 		.4byte	0xb6f
 2332 0b69 21       		.uleb128 0x21
 2333 0b6a 01       		.uleb128 0x1
 2334 0b6b 50       		.byte	0x50
 2335 0b6c 01       		.uleb128 0x1
 2336 0b6d 32       		.byte	0x32
 2337 0b6e 00       		.byte	0
 2338 0b6f 20       		.uleb128 0x20
 2339 0b70 5C000000 		.4byte	.LVL57
 2340 0b74 470F0000 		.4byte	0xf47
 2341 0b78 830B0000 		.4byte	0xb83
 2342 0b7c 21       		.uleb128 0x21
 2343 0b7d 01       		.uleb128 0x1
 2344 0b7e 50       		.byte	0x50
 2345 0b7f 02       		.uleb128 0x2
 2346 0b80 74       		.byte	0x74
 2347 0b81 00       		.sleb128 0
 2348 0b82 00       		.byte	0
 2349 0b83 20       		.uleb128 0x20
 2350 0b84 6A000000 		.4byte	.LVL58
 2351 0b88 350E0000 		.4byte	0xe35
 2352 0b8c 960B0000 		.4byte	0xb96
 2353 0b90 21       		.uleb128 0x21
 2354 0b91 01       		.uleb128 0x1
 2355 0b92 50       		.byte	0x50
 2356 0b93 01       		.uleb128 0x1
 2357 0b94 33       		.byte	0x33
 2358 0b95 00       		.byte	0
 2359 0b96 20       		.uleb128 0x20
 2360 0b97 74000000 		.4byte	.LVL59
 2361 0b9b 7E0A0000 		.4byte	0xa7e
 2362 0b9f AA0B0000 		.4byte	0xbaa
 2363 0ba3 21       		.uleb128 0x21
 2364 0ba4 01       		.uleb128 0x1
 2365 0ba5 50       		.byte	0x50
 2366 0ba6 02       		.uleb128 0x2
 2367 0ba7 74       		.byte	0x74
 2368 0ba8 00       		.sleb128 0
ARM GAS  /tmp/cc43DkP6.s 			page 43


 2369 0ba9 00       		.byte	0
 2370 0baa 20       		.uleb128 0x20
 2371 0bab 7C000000 		.4byte	.LVL60
 2372 0baf 350E0000 		.4byte	0xe35
 2373 0bb3 BD0B0000 		.4byte	0xbbd
 2374 0bb7 21       		.uleb128 0x21
 2375 0bb8 01       		.uleb128 0x1
 2376 0bb9 50       		.byte	0x50
 2377 0bba 01       		.uleb128 0x1
 2378 0bbb 34       		.byte	0x34
 2379 0bbc 00       		.byte	0
 2380 0bbd 20       		.uleb128 0x20
 2381 0bbe 86000000 		.4byte	.LVL61
 2382 0bc2 7E0A0000 		.4byte	0xa7e
 2383 0bc6 D10B0000 		.4byte	0xbd1
 2384 0bca 21       		.uleb128 0x21
 2385 0bcb 01       		.uleb128 0x1
 2386 0bcc 50       		.byte	0x50
 2387 0bcd 02       		.uleb128 0x2
 2388 0bce 74       		.byte	0x74
 2389 0bcf 00       		.sleb128 0
 2390 0bd0 00       		.byte	0
 2391 0bd1 20       		.uleb128 0x20
 2392 0bd2 8E000000 		.4byte	.LVL62
 2393 0bd6 350E0000 		.4byte	0xe35
 2394 0bda E40B0000 		.4byte	0xbe4
 2395 0bde 21       		.uleb128 0x21
 2396 0bdf 01       		.uleb128 0x1
 2397 0be0 50       		.byte	0x50
 2398 0be1 01       		.uleb128 0x1
 2399 0be2 35       		.byte	0x35
 2400 0be3 00       		.byte	0
 2401 0be4 20       		.uleb128 0x20
 2402 0be5 98000000 		.4byte	.LVL63
 2403 0be9 470F0000 		.4byte	0xf47
 2404 0bed F80B0000 		.4byte	0xbf8
 2405 0bf1 21       		.uleb128 0x21
 2406 0bf2 01       		.uleb128 0x1
 2407 0bf3 50       		.byte	0x50
 2408 0bf4 02       		.uleb128 0x2
 2409 0bf5 74       		.byte	0x74
 2410 0bf6 00       		.sleb128 0
 2411 0bf7 00       		.byte	0
 2412 0bf8 20       		.uleb128 0x20
 2413 0bf9 A8000000 		.4byte	.LVL64
 2414 0bfd 350E0000 		.4byte	0xe35
 2415 0c01 0B0C0000 		.4byte	0xc0b
 2416 0c05 21       		.uleb128 0x21
 2417 0c06 01       		.uleb128 0x1
 2418 0c07 50       		.byte	0x50
 2419 0c08 01       		.uleb128 0x1
 2420 0c09 36       		.byte	0x36
 2421 0c0a 00       		.byte	0
 2422 0c0b 20       		.uleb128 0x20
 2423 0c0c BC000000 		.4byte	.LVL65
 2424 0c10 350E0000 		.4byte	0xe35
 2425 0c14 1E0C0000 		.4byte	0xc1e
ARM GAS  /tmp/cc43DkP6.s 			page 44


 2426 0c18 21       		.uleb128 0x21
 2427 0c19 01       		.uleb128 0x1
 2428 0c1a 50       		.byte	0x50
 2429 0c1b 01       		.uleb128 0x1
 2430 0c1c 37       		.byte	0x37
 2431 0c1d 00       		.byte	0
 2432 0c1e 20       		.uleb128 0x20
 2433 0c1f C6000000 		.4byte	.LVL66
 2434 0c23 7E0A0000 		.4byte	0xa7e
 2435 0c27 320C0000 		.4byte	0xc32
 2436 0c2b 21       		.uleb128 0x21
 2437 0c2c 01       		.uleb128 0x1
 2438 0c2d 50       		.byte	0x50
 2439 0c2e 02       		.uleb128 0x2
 2440 0c2f 74       		.byte	0x74
 2441 0c30 00       		.sleb128 0
 2442 0c31 00       		.byte	0
 2443 0c32 20       		.uleb128 0x20
 2444 0c33 CE000000 		.4byte	.LVL67
 2445 0c37 350E0000 		.4byte	0xe35
 2446 0c3b 450C0000 		.4byte	0xc45
 2447 0c3f 21       		.uleb128 0x21
 2448 0c40 01       		.uleb128 0x1
 2449 0c41 50       		.byte	0x50
 2450 0c42 01       		.uleb128 0x1
 2451 0c43 38       		.byte	0x38
 2452 0c44 00       		.byte	0
 2453 0c45 20       		.uleb128 0x20
 2454 0c46 D8000000 		.4byte	.LVL68
 2455 0c4a 7E0A0000 		.4byte	0xa7e
 2456 0c4e 590C0000 		.4byte	0xc59
 2457 0c52 21       		.uleb128 0x21
 2458 0c53 01       		.uleb128 0x1
 2459 0c54 50       		.byte	0x50
 2460 0c55 02       		.uleb128 0x2
 2461 0c56 74       		.byte	0x74
 2462 0c57 00       		.sleb128 0
 2463 0c58 00       		.byte	0
 2464 0c59 20       		.uleb128 0x20
 2465 0c5a E0000000 		.4byte	.LVL69
 2466 0c5e 350E0000 		.4byte	0xe35
 2467 0c62 6C0C0000 		.4byte	0xc6c
 2468 0c66 21       		.uleb128 0x21
 2469 0c67 01       		.uleb128 0x1
 2470 0c68 50       		.byte	0x50
 2471 0c69 01       		.uleb128 0x1
 2472 0c6a 39       		.byte	0x39
 2473 0c6b 00       		.byte	0
 2474 0c6c 20       		.uleb128 0x20
 2475 0c6d EC000000 		.4byte	.LVL70
 2476 0c71 580F0000 		.4byte	0xf58
 2477 0c75 810C0000 		.4byte	0xc81
 2478 0c79 21       		.uleb128 0x21
 2479 0c7a 01       		.uleb128 0x1
 2480 0c7b 50       		.byte	0x50
 2481 0c7c 03       		.uleb128 0x3
 2482 0c7d 0A       		.byte	0xa
ARM GAS  /tmp/cc43DkP6.s 			page 45


 2483 0c7e F401     		.2byte	0x1f4
 2484 0c80 00       		.byte	0
 2485 0c81 20       		.uleb128 0x20
 2486 0c82 FC000000 		.4byte	.LVL71
 2487 0c86 350E0000 		.4byte	0xe35
 2488 0c8a 940C0000 		.4byte	0xc94
 2489 0c8e 21       		.uleb128 0x21
 2490 0c8f 01       		.uleb128 0x1
 2491 0c90 50       		.byte	0x50
 2492 0c91 01       		.uleb128 0x1
 2493 0c92 3A       		.byte	0x3a
 2494 0c93 00       		.byte	0
 2495 0c94 20       		.uleb128 0x20
 2496 0c95 06010000 		.4byte	.LVL72
 2497 0c99 7E0A0000 		.4byte	0xa7e
 2498 0c9d A80C0000 		.4byte	0xca8
 2499 0ca1 21       		.uleb128 0x21
 2500 0ca2 01       		.uleb128 0x1
 2501 0ca3 50       		.byte	0x50
 2502 0ca4 02       		.uleb128 0x2
 2503 0ca5 74       		.byte	0x74
 2504 0ca6 00       		.sleb128 0
 2505 0ca7 00       		.byte	0
 2506 0ca8 20       		.uleb128 0x20
 2507 0ca9 0E010000 		.4byte	.LVL73
 2508 0cad 350E0000 		.4byte	0xe35
 2509 0cb1 BB0C0000 		.4byte	0xcbb
 2510 0cb5 21       		.uleb128 0x21
 2511 0cb6 01       		.uleb128 0x1
 2512 0cb7 50       		.byte	0x50
 2513 0cb8 01       		.uleb128 0x1
 2514 0cb9 3B       		.byte	0x3b
 2515 0cba 00       		.byte	0
 2516 0cbb 20       		.uleb128 0x20
 2517 0cbc 18010000 		.4byte	.LVL74
 2518 0cc0 7E0A0000 		.4byte	0xa7e
 2519 0cc4 CF0C0000 		.4byte	0xccf
 2520 0cc8 21       		.uleb128 0x21
 2521 0cc9 01       		.uleb128 0x1
 2522 0cca 50       		.byte	0x50
 2523 0ccb 02       		.uleb128 0x2
 2524 0ccc 74       		.byte	0x74
 2525 0ccd 00       		.sleb128 0
 2526 0cce 00       		.byte	0
 2527 0ccf 26       		.uleb128 0x26
 2528 0cd0 2A010000 		.4byte	.LVL76
 2529 0cd4 350E0000 		.4byte	0xe35
 2530 0cd8 21       		.uleb128 0x21
 2531 0cd9 01       		.uleb128 0x1
 2532 0cda 50       		.byte	0x50
 2533 0cdb 01       		.uleb128 0x1
 2534 0cdc 3C       		.byte	0x3c
 2535 0cdd 00       		.byte	0
 2536 0cde 00       		.byte	0
 2537 0cdf 1F       		.uleb128 0x1f
 2538 0ce0 03060000 		.4byte	.LASF104
 2539 0ce4 01       		.byte	0x1
ARM GAS  /tmp/cc43DkP6.s 			page 46


 2540 0ce5 36       		.byte	0x36
 2541 0ce6 FA030000 		.4byte	0x3fa
 2542 0cea 05       		.uleb128 0x5
 2543 0ceb 03       		.byte	0x3
 2544 0cec 00000000 		.4byte	heap1
 2545 0cf0 1D       		.uleb128 0x1d
 2546 0cf1 6D703100 		.ascii	"mp1\000"
 2547 0cf5 01       		.byte	0x1
 2548 0cf6 39       		.byte	0x39
 2549 0cf7 ED040000 		.4byte	0x4ed
 2550 0cfb 05       		.uleb128 0x5
 2551 0cfc 03       		.byte	0x3
 2552 0cfd 00000000 		.4byte	mp1
 2553 0d01 29       		.uleb128 0x29
 2554 0d02 23010000 		.4byte	.LASF105
 2555 0d06 0F       		.byte	0xf
 2556 0d07 9806     		.2byte	0x698
 2557 0d09 0D0D0000 		.4byte	0xd0d
 2558 0d0d 0D       		.uleb128 0xd
 2559 0d0e AD000000 		.4byte	0xad
 2560 0d12 2A       		.uleb128 0x2a
 2561 0d13 90050000 		.4byte	.LASF106
 2562 0d17 09       		.byte	0x9
 2563 0d18 6F       		.byte	0x6f
 2564 0d19 8D030000 		.4byte	0x38d
 2565 0d1d 18       		.uleb128 0x18
 2566 0d1e 4A020000 		.4byte	0x24a
 2567 0d22 2D0D0000 		.4byte	0xd2d
 2568 0d26 19       		.uleb128 0x19
 2569 0d27 7B020000 		.4byte	0x27b
 2570 0d2b 04       		.byte	0x4
 2571 0d2c 00       		.byte	0
 2572 0d2d 2A       		.uleb128 0x2a
 2573 0d2e 2A040000 		.4byte	.LASF107
 2574 0d32 0E       		.byte	0xe
 2575 0d33 A5       		.byte	0xa5
 2576 0d34 1D0D0000 		.4byte	0xd1d
 2577 0d38 2A       		.uleb128 0x2a
 2578 0d39 0D010000 		.4byte	.LASF108
 2579 0d3d 0E       		.byte	0xe
 2580 0d3e A6       		.byte	0xa6
 2581 0d3f FE050000 		.4byte	0x5fe
 2582 0d43 18       		.uleb128 0x18
 2583 0d44 8D020000 		.4byte	0x28d
 2584 0d48 4E0D0000 		.4byte	0xd4e
 2585 0d4c 2B       		.uleb128 0x2b
 2586 0d4d 00       		.byte	0
 2587 0d4e 2C       		.uleb128 0x2c
 2588 0d4f 776100   		.ascii	"wa\000"
 2589 0d52 0E       		.byte	0xe
 2590 0d53 A7       		.byte	0xa7
 2591 0d54 580D0000 		.4byte	0xd58
 2592 0d58 14       		.uleb128 0x14
 2593 0d59 430D0000 		.4byte	0xd43
 2594 0d5d 2D       		.uleb128 0x2d
 2595 0d5e 11030000 		.4byte	.LASF109
 2596 0d62 01       		.byte	0x1
ARM GAS  /tmp/cc43DkP6.s 			page 47


 2597 0d63 75       		.byte	0x75
 2598 0d64 6E0D0000 		.4byte	0xd6e
 2599 0d68 05       		.uleb128 0x5
 2600 0d69 03       		.byte	0x3
 2601 0d6a 00000000 		.4byte	testdyn1
 2602 0d6e 14       		.uleb128 0x14
 2603 0d6f 65050000 		.4byte	0x565
 2604 0d73 2D       		.uleb128 0x2d
 2605 0d74 1A030000 		.4byte	.LASF110
 2606 0d78 01       		.byte	0x1
 2607 0d79 AD       		.byte	0xad
 2608 0d7a 6E0D0000 		.4byte	0xd6e
 2609 0d7e 05       		.uleb128 0x5
 2610 0d7f 03       		.byte	0x3
 2611 0d80 00000000 		.4byte	testdyn2
 2612 0d84 2D       		.uleb128 0x2d
 2613 0d85 23030000 		.4byte	.LASF111
 2614 0d89 01       		.byte	0x1
 2615 0d8a EE       		.byte	0xee
 2616 0d8b 6E0D0000 		.4byte	0xd6e
 2617 0d8f 05       		.uleb128 0x5
 2618 0d90 03       		.byte	0x3
 2619 0d91 00000000 		.4byte	testdyn3
 2620 0d95 18       		.uleb128 0x18
 2621 0d96 A50D0000 		.4byte	0xda5
 2622 0d9a A50D0000 		.4byte	0xda5
 2623 0d9e 19       		.uleb128 0x19
 2624 0d9f 7B020000 		.4byte	0x27b
 2625 0da3 03       		.byte	0x3
 2626 0da4 00       		.byte	0
 2627 0da5 09       		.uleb128 0x9
 2628 0da6 04       		.byte	0x4
 2629 0da7 6E0D0000 		.4byte	0xd6e
 2630 0dab 2D       		.uleb128 0x2d
 2631 0dac 2B050000 		.4byte	.LASF112
 2632 0db0 01       		.byte	0x1
 2633 0db1 FA       		.byte	0xfa
 2634 0db2 BC0D0000 		.4byte	0xdbc
 2635 0db6 05       		.uleb128 0x5
 2636 0db7 03       		.byte	0x3
 2637 0db8 00000000 		.4byte	patterndyn
 2638 0dbc 14       		.uleb128 0x14
 2639 0dbd 950D0000 		.4byte	0xd95
 2640 0dc1 2E       		.uleb128 0x2e
 2641 0dc2 DE040000 		.4byte	.LASF113
 2642 0dc6 0C       		.byte	0xc
 2643 0dc7 5B       		.byte	0x5b
 2644 0dc8 2C000000 		.4byte	0x2c
 2645 0dcc DB0D0000 		.4byte	0xddb
 2646 0dd0 0F       		.uleb128 0xf
 2647 0dd1 7C040000 		.4byte	0x47c
 2648 0dd5 0F       		.uleb128 0xf
 2649 0dd6 DB0D0000 		.4byte	0xddb
 2650 0dda 00       		.byte	0
 2651 0ddb 09       		.uleb128 0x9
 2652 0ddc 04       		.byte	0x4
 2653 0ddd 2C000000 		.4byte	0x2c
ARM GAS  /tmp/cc43DkP6.s 			page 48


 2654 0de1 2E       		.uleb128 0x2e
 2655 0de2 C4010000 		.4byte	.LASF114
 2656 0de6 10       		.byte	0x10
 2657 0de7 3C       		.byte	0x3c
 2658 0de8 4A020000 		.4byte	0x24a
 2659 0dec 0A0E0000 		.4byte	0xe0a
 2660 0df0 0F       		.uleb128 0xf
 2661 0df1 7C040000 		.4byte	0x47c
 2662 0df5 0F       		.uleb128 0xf
 2663 0df6 2C000000 		.4byte	0x2c
 2664 0dfa 0F       		.uleb128 0xf
 2665 0dfb 01010000 		.4byte	0x101
 2666 0dff 0F       		.uleb128 0xf
 2667 0e00 45050000 		.4byte	0x545
 2668 0e04 0F       		.uleb128 0xf
 2669 0e05 8D020000 		.4byte	0x28d
 2670 0e09 00       		.byte	0
 2671 0e0a 2E       		.uleb128 0x2e
 2672 0e0b 63040000 		.4byte	.LASF115
 2673 0e0f 0C       		.byte	0xc
 2674 0e10 59       		.byte	0x59
 2675 0e11 8D020000 		.4byte	0x28d
 2676 0e15 240E0000 		.4byte	0xe24
 2677 0e19 0F       		.uleb128 0xf
 2678 0e1a 7C040000 		.4byte	0x47c
 2679 0e1e 0F       		.uleb128 0xf
 2680 0e1f 2C000000 		.4byte	0x2c
 2681 0e23 00       		.byte	0
 2682 0e24 2F       		.uleb128 0x2f
 2683 0e25 B0010000 		.4byte	.LASF118
 2684 0e29 0C       		.byte	0xc
 2685 0e2a 5A       		.byte	0x5a
 2686 0e2b 350E0000 		.4byte	0xe35
 2687 0e2f 0F       		.uleb128 0xf
 2688 0e30 8D020000 		.4byte	0x28d
 2689 0e34 00       		.byte	0
 2690 0e35 2E       		.uleb128 0x2e
 2691 0e36 CE050000 		.4byte	.LASF116
 2692 0e3a 0E       		.byte	0xe
 2693 0e3b 58       		.byte	0x58
 2694 0e3c CE000000 		.4byte	0xce
 2695 0e40 4F0E0000 		.4byte	0xe4f
 2696 0e44 0F       		.uleb128 0xf
 2697 0e45 37000000 		.4byte	0x37
 2698 0e49 0F       		.uleb128 0xf
 2699 0e4a CE000000 		.4byte	0xce
 2700 0e4e 00       		.byte	0
 2701 0e4f 30       		.uleb128 0x30
 2702 0e50 EB040000 		.4byte	.LASF131
 2703 0e54 0E       		.byte	0xe
 2704 0e55 5C       		.byte	0x5c
 2705 0e56 2E       		.uleb128 0x2e
 2706 0e57 7A030000 		.4byte	.LASF117
 2707 0e5b 0E       		.byte	0xe
 2708 0e5c 59       		.byte	0x59
 2709 0e5d CE000000 		.4byte	0xce
 2710 0e61 700E0000 		.4byte	0xe70
ARM GAS  /tmp/cc43DkP6.s 			page 49


 2711 0e65 0F       		.uleb128 0xf
 2712 0e66 37000000 		.4byte	0x37
 2713 0e6a 0F       		.uleb128 0xf
 2714 0e6b 700E0000 		.4byte	0xe70
 2715 0e6f 00       		.byte	0
 2716 0e70 09       		.uleb128 0x9
 2717 0e71 04       		.byte	0x4
 2718 0e72 38050000 		.4byte	0x538
 2719 0e76 2F       		.uleb128 0x2f
 2720 0e77 A0010000 		.4byte	.LASF119
 2721 0e7b 0E       		.byte	0xe
 2722 0e7c 56       		.byte	0x56
 2723 0e7d 870E0000 		.4byte	0xe87
 2724 0e81 0F       		.uleb128 0xf
 2725 0e82 38050000 		.4byte	0x538
 2726 0e86 00       		.byte	0
 2727 0e87 2F       		.uleb128 0x2f
 2728 0e88 3B010000 		.4byte	.LASF120
 2729 0e8c 0C       		.byte	0xc
 2730 0e8d 57       		.byte	0x57
 2731 0e8e A20E0000 		.4byte	0xea2
 2732 0e92 0F       		.uleb128 0xf
 2733 0e93 7C040000 		.4byte	0x47c
 2734 0e97 0F       		.uleb128 0xf
 2735 0e98 8D020000 		.4byte	0x28d
 2736 0e9c 0F       		.uleb128 0xf
 2737 0e9d 2C000000 		.4byte	0x2c
 2738 0ea1 00       		.byte	0
 2739 0ea2 2F       		.uleb128 0x2f
 2740 0ea3 AA050000 		.4byte	.LASF121
 2741 0ea7 0D       		.byte	0xd
 2742 0ea8 84       		.byte	0x84
 2743 0ea9 B80E0000 		.4byte	0xeb8
 2744 0ead 0F       		.uleb128 0xf
 2745 0eae B80E0000 		.4byte	0xeb8
 2746 0eb2 0F       		.uleb128 0xf
 2747 0eb3 8D020000 		.4byte	0x28d
 2748 0eb7 00       		.byte	0
 2749 0eb8 09       		.uleb128 0x9
 2750 0eb9 04       		.byte	0x4
 2751 0eba ED040000 		.4byte	0x4ed
 2752 0ebe 2E       		.uleb128 0x2e
 2753 0ebf 05020000 		.4byte	.LASF122
 2754 0ec3 10       		.byte	0x10
 2755 0ec4 40       		.byte	0x40
 2756 0ec5 4A020000 		.4byte	0x24a
 2757 0ec9 E20E0000 		.4byte	0xee2
 2758 0ecd 0F       		.uleb128 0xf
 2759 0ece B80E0000 		.4byte	0xeb8
 2760 0ed2 0F       		.uleb128 0xf
 2761 0ed3 01010000 		.4byte	0x101
 2762 0ed7 0F       		.uleb128 0xf
 2763 0ed8 45050000 		.4byte	0x545
 2764 0edc 0F       		.uleb128 0xf
 2765 0edd 8D020000 		.4byte	0x28d
 2766 0ee1 00       		.byte	0
 2767 0ee2 2E       		.uleb128 0x2e
ARM GAS  /tmp/cc43DkP6.s 			page 50


 2768 0ee3 9E050000 		.4byte	.LASF123
 2769 0ee7 0D       		.byte	0xd
 2770 0ee8 82       		.byte	0x82
 2771 0ee9 8D020000 		.4byte	0x28d
 2772 0eed F70E0000 		.4byte	0xef7
 2773 0ef1 0F       		.uleb128 0xf
 2774 0ef2 B80E0000 		.4byte	0xeb8
 2775 0ef6 00       		.byte	0
 2776 0ef7 2F       		.uleb128 0x2f
 2777 0ef8 30010000 		.4byte	.LASF124
 2778 0efc 0D       		.byte	0xd
 2779 0efd 7F       		.byte	0x7f
 2780 0efe 120F0000 		.4byte	0xf12
 2781 0f02 0F       		.uleb128 0xf
 2782 0f03 B80E0000 		.4byte	0xeb8
 2783 0f07 0F       		.uleb128 0xf
 2784 0f08 2C000000 		.4byte	0x2c
 2785 0f0c 0F       		.uleb128 0xf
 2786 0f0d DA030000 		.4byte	0x3da
 2787 0f11 00       		.byte	0
 2788 0f12 31       		.uleb128 0x31
 2789 0f13 12010000 		.4byte	.LASF132
 2790 0f17 11       		.byte	0x11
 2791 0f18 7F       		.byte	0x7f
 2792 0f19 4A020000 		.4byte	0x24a
 2793 0f1d 2E       		.uleb128 0x2e
 2794 0f1e C3040000 		.4byte	.LASF125
 2795 0f22 11       		.byte	0x11
 2796 0f23 80       		.byte	0x80
 2797 0f24 4A020000 		.4byte	0x24a
 2798 0f28 320F0000 		.4byte	0xf32
 2799 0f2c 0F       		.uleb128 0xf
 2800 0f2d 4A020000 		.4byte	0x24a
 2801 0f31 00       		.byte	0
 2802 0f32 2E       		.uleb128 0x2e
 2803 0f33 B1020000 		.4byte	.LASF126
 2804 0f37 10       		.byte	0x10
 2805 0f38 39       		.byte	0x39
 2806 0f39 4A020000 		.4byte	0x24a
 2807 0f3d 470F0000 		.4byte	0xf47
 2808 0f41 0F       		.uleb128 0xf
 2809 0f42 4A020000 		.4byte	0x24a
 2810 0f46 00       		.byte	0
 2811 0f47 2F       		.uleb128 0x2f
 2812 0f48 4F040000 		.4byte	.LASF127
 2813 0f4c 10       		.byte	0x10
 2814 0f4d 3A       		.byte	0x3a
 2815 0f4e 580F0000 		.4byte	0xf58
 2816 0f52 0F       		.uleb128 0xf
 2817 0f53 4A020000 		.4byte	0x24a
 2818 0f57 00       		.byte	0
 2819 0f58 32       		.uleb128 0x32
 2820 0f59 60050000 		.4byte	.LASF133
 2821 0f5d 07       		.byte	0x7
 2822 0f5e 7501     		.2byte	0x175
 2823 0f60 0F       		.uleb128 0xf
 2824 0f61 22010000 		.4byte	0x122
ARM GAS  /tmp/cc43DkP6.s 			page 51


 2825 0f65 00       		.byte	0
 2826 0f66 00       		.byte	0
 2827              		.section	.debug_abbrev,"",%progbits
 2828              	.Ldebug_abbrev0:
 2829 0000 01       		.uleb128 0x1
 2830 0001 11       		.uleb128 0x11
 2831 0002 01       		.byte	0x1
 2832 0003 25       		.uleb128 0x25
 2833 0004 0E       		.uleb128 0xe
 2834 0005 13       		.uleb128 0x13
 2835 0006 0B       		.uleb128 0xb
 2836 0007 03       		.uleb128 0x3
 2837 0008 0E       		.uleb128 0xe
 2838 0009 1B       		.uleb128 0x1b
 2839 000a 0E       		.uleb128 0xe
 2840 000b 55       		.uleb128 0x55
 2841 000c 17       		.uleb128 0x17
 2842 000d 11       		.uleb128 0x11
 2843 000e 01       		.uleb128 0x1
 2844 000f 10       		.uleb128 0x10
 2845 0010 17       		.uleb128 0x17
 2846 0011 00       		.byte	0
 2847 0012 00       		.byte	0
 2848 0013 02       		.uleb128 0x2
 2849 0014 24       		.uleb128 0x24
 2850 0015 00       		.byte	0
 2851 0016 0B       		.uleb128 0xb
 2852 0017 0B       		.uleb128 0xb
 2853 0018 3E       		.uleb128 0x3e
 2854 0019 0B       		.uleb128 0xb
 2855 001a 03       		.uleb128 0x3
 2856 001b 08       		.uleb128 0x8
 2857 001c 00       		.byte	0
 2858 001d 00       		.byte	0
 2859 001e 03       		.uleb128 0x3
 2860 001f 16       		.uleb128 0x16
 2861 0020 00       		.byte	0
 2862 0021 03       		.uleb128 0x3
 2863 0022 0E       		.uleb128 0xe
 2864 0023 3A       		.uleb128 0x3a
 2865 0024 0B       		.uleb128 0xb
 2866 0025 3B       		.uleb128 0x3b
 2867 0026 0B       		.uleb128 0xb
 2868 0027 49       		.uleb128 0x49
 2869 0028 13       		.uleb128 0x13
 2870 0029 00       		.byte	0
 2871 002a 00       		.byte	0
 2872 002b 04       		.uleb128 0x4
 2873 002c 24       		.uleb128 0x24
 2874 002d 00       		.byte	0
 2875 002e 0B       		.uleb128 0xb
 2876 002f 0B       		.uleb128 0xb
 2877 0030 3E       		.uleb128 0x3e
 2878 0031 0B       		.uleb128 0xb
 2879 0032 03       		.uleb128 0x3
 2880 0033 0E       		.uleb128 0xe
 2881 0034 00       		.byte	0
ARM GAS  /tmp/cc43DkP6.s 			page 52


 2882 0035 00       		.byte	0
 2883 0036 05       		.uleb128 0x5
 2884 0037 13       		.uleb128 0x13
 2885 0038 01       		.byte	0x1
 2886 0039 03       		.uleb128 0x3
 2887 003a 0E       		.uleb128 0xe
 2888 003b 0B       		.uleb128 0xb
 2889 003c 0B       		.uleb128 0xb
 2890 003d 3A       		.uleb128 0x3a
 2891 003e 0B       		.uleb128 0xb
 2892 003f 3B       		.uleb128 0x3b
 2893 0040 0B       		.uleb128 0xb
 2894 0041 01       		.uleb128 0x1
 2895 0042 13       		.uleb128 0x13
 2896 0043 00       		.byte	0
 2897 0044 00       		.byte	0
 2898 0045 06       		.uleb128 0x6
 2899 0046 0D       		.uleb128 0xd
 2900 0047 00       		.byte	0
 2901 0048 03       		.uleb128 0x3
 2902 0049 0E       		.uleb128 0xe
 2903 004a 3A       		.uleb128 0x3a
 2904 004b 0B       		.uleb128 0xb
 2905 004c 3B       		.uleb128 0x3b
 2906 004d 0B       		.uleb128 0xb
 2907 004e 49       		.uleb128 0x49
 2908 004f 13       		.uleb128 0x13
 2909 0050 38       		.uleb128 0x38
 2910 0051 0B       		.uleb128 0xb
 2911 0052 00       		.byte	0
 2912 0053 00       		.byte	0
 2913 0054 07       		.uleb128 0x7
 2914 0055 0D       		.uleb128 0xd
 2915 0056 00       		.byte	0
 2916 0057 03       		.uleb128 0x3
 2917 0058 08       		.uleb128 0x8
 2918 0059 3A       		.uleb128 0x3a
 2919 005a 0B       		.uleb128 0xb
 2920 005b 3B       		.uleb128 0x3b
 2921 005c 0B       		.uleb128 0xb
 2922 005d 49       		.uleb128 0x49
 2923 005e 13       		.uleb128 0x13
 2924 005f 38       		.uleb128 0x38
 2925 0060 0B       		.uleb128 0xb
 2926 0061 00       		.byte	0
 2927 0062 00       		.byte	0
 2928 0063 08       		.uleb128 0x8
 2929 0064 13       		.uleb128 0x13
 2930 0065 01       		.byte	0x1
 2931 0066 0B       		.uleb128 0xb
 2932 0067 0B       		.uleb128 0xb
 2933 0068 3A       		.uleb128 0x3a
 2934 0069 0B       		.uleb128 0xb
 2935 006a 3B       		.uleb128 0x3b
 2936 006b 0B       		.uleb128 0xb
 2937 006c 01       		.uleb128 0x1
 2938 006d 13       		.uleb128 0x13
ARM GAS  /tmp/cc43DkP6.s 			page 53


 2939 006e 00       		.byte	0
 2940 006f 00       		.byte	0
 2941 0070 09       		.uleb128 0x9
 2942 0071 0F       		.uleb128 0xf
 2943 0072 00       		.byte	0
 2944 0073 0B       		.uleb128 0xb
 2945 0074 0B       		.uleb128 0xb
 2946 0075 49       		.uleb128 0x49
 2947 0076 13       		.uleb128 0x13
 2948 0077 00       		.byte	0
 2949 0078 00       		.byte	0
 2950 0079 0A       		.uleb128 0xa
 2951 007a 0F       		.uleb128 0xf
 2952 007b 00       		.byte	0
 2953 007c 0B       		.uleb128 0xb
 2954 007d 0B       		.uleb128 0xb
 2955 007e 00       		.byte	0
 2956 007f 00       		.byte	0
 2957 0080 0B       		.uleb128 0xb
 2958 0081 13       		.uleb128 0x13
 2959 0082 01       		.byte	0x1
 2960 0083 03       		.uleb128 0x3
 2961 0084 0E       		.uleb128 0xe
 2962 0085 0B       		.uleb128 0xb
 2963 0086 0B       		.uleb128 0xb
 2964 0087 3A       		.uleb128 0x3a
 2965 0088 0B       		.uleb128 0xb
 2966 0089 3B       		.uleb128 0x3b
 2967 008a 05       		.uleb128 0x5
 2968 008b 01       		.uleb128 0x1
 2969 008c 13       		.uleb128 0x13
 2970 008d 00       		.byte	0
 2971 008e 00       		.byte	0
 2972 008f 0C       		.uleb128 0xc
 2973 0090 0D       		.uleb128 0xd
 2974 0091 00       		.byte	0
 2975 0092 03       		.uleb128 0x3
 2976 0093 08       		.uleb128 0x8
 2977 0094 3A       		.uleb128 0x3a
 2978 0095 0B       		.uleb128 0xb
 2979 0096 3B       		.uleb128 0x3b
 2980 0097 05       		.uleb128 0x5
 2981 0098 49       		.uleb128 0x49
 2982 0099 13       		.uleb128 0x13
 2983 009a 38       		.uleb128 0x38
 2984 009b 0B       		.uleb128 0xb
 2985 009c 00       		.byte	0
 2986 009d 00       		.byte	0
 2987 009e 0D       		.uleb128 0xd
 2988 009f 35       		.uleb128 0x35
 2989 00a0 00       		.byte	0
 2990 00a1 49       		.uleb128 0x49
 2991 00a2 13       		.uleb128 0x13
 2992 00a3 00       		.byte	0
 2993 00a4 00       		.byte	0
 2994 00a5 0E       		.uleb128 0xe
 2995 00a6 15       		.uleb128 0x15
ARM GAS  /tmp/cc43DkP6.s 			page 54


 2996 00a7 01       		.byte	0x1
 2997 00a8 27       		.uleb128 0x27
 2998 00a9 19       		.uleb128 0x19
 2999 00aa 49       		.uleb128 0x49
 3000 00ab 13       		.uleb128 0x13
 3001 00ac 01       		.uleb128 0x1
 3002 00ad 13       		.uleb128 0x13
 3003 00ae 00       		.byte	0
 3004 00af 00       		.byte	0
 3005 00b0 0F       		.uleb128 0xf
 3006 00b1 05       		.uleb128 0x5
 3007 00b2 00       		.byte	0
 3008 00b3 49       		.uleb128 0x49
 3009 00b4 13       		.uleb128 0x13
 3010 00b5 00       		.byte	0
 3011 00b6 00       		.byte	0
 3012 00b7 10       		.uleb128 0x10
 3013 00b8 17       		.uleb128 0x17
 3014 00b9 01       		.byte	0x1
 3015 00ba 0B       		.uleb128 0xb
 3016 00bb 0B       		.uleb128 0xb
 3017 00bc 3A       		.uleb128 0x3a
 3018 00bd 0B       		.uleb128 0xb
 3019 00be 3B       		.uleb128 0x3b
 3020 00bf 0B       		.uleb128 0xb
 3021 00c0 01       		.uleb128 0x1
 3022 00c1 13       		.uleb128 0x13
 3023 00c2 00       		.byte	0
 3024 00c3 00       		.byte	0
 3025 00c4 11       		.uleb128 0x11
 3026 00c5 0D       		.uleb128 0xd
 3027 00c6 00       		.byte	0
 3028 00c7 03       		.uleb128 0x3
 3029 00c8 0E       		.uleb128 0xe
 3030 00c9 3A       		.uleb128 0x3a
 3031 00ca 0B       		.uleb128 0xb
 3032 00cb 3B       		.uleb128 0x3b
 3033 00cc 0B       		.uleb128 0xb
 3034 00cd 49       		.uleb128 0x49
 3035 00ce 13       		.uleb128 0x13
 3036 00cf 00       		.byte	0
 3037 00d0 00       		.byte	0
 3038 00d1 12       		.uleb128 0x12
 3039 00d2 17       		.uleb128 0x17
 3040 00d3 01       		.byte	0x1
 3041 00d4 03       		.uleb128 0x3
 3042 00d5 0E       		.uleb128 0xe
 3043 00d6 0B       		.uleb128 0xb
 3044 00d7 0B       		.uleb128 0xb
 3045 00d8 3A       		.uleb128 0x3a
 3046 00d9 0B       		.uleb128 0xb
 3047 00da 3B       		.uleb128 0x3b
 3048 00db 0B       		.uleb128 0xb
 3049 00dc 01       		.uleb128 0x1
 3050 00dd 13       		.uleb128 0x13
 3051 00de 00       		.byte	0
 3052 00df 00       		.byte	0
ARM GAS  /tmp/cc43DkP6.s 			page 55


 3053 00e0 13       		.uleb128 0x13
 3054 00e1 0D       		.uleb128 0xd
 3055 00e2 00       		.byte	0
 3056 00e3 03       		.uleb128 0x3
 3057 00e4 08       		.uleb128 0x8
 3058 00e5 3A       		.uleb128 0x3a
 3059 00e6 0B       		.uleb128 0xb
 3060 00e7 3B       		.uleb128 0x3b
 3061 00e8 0B       		.uleb128 0xb
 3062 00e9 49       		.uleb128 0x49
 3063 00ea 13       		.uleb128 0x13
 3064 00eb 00       		.byte	0
 3065 00ec 00       		.byte	0
 3066 00ed 14       		.uleb128 0x14
 3067 00ee 26       		.uleb128 0x26
 3068 00ef 00       		.byte	0
 3069 00f0 49       		.uleb128 0x49
 3070 00f1 13       		.uleb128 0x13
 3071 00f2 00       		.byte	0
 3072 00f3 00       		.byte	0
 3073 00f4 15       		.uleb128 0x15
 3074 00f5 15       		.uleb128 0x15
 3075 00f6 00       		.byte	0
 3076 00f7 27       		.uleb128 0x27
 3077 00f8 19       		.uleb128 0x19
 3078 00f9 00       		.byte	0
 3079 00fa 00       		.byte	0
 3080 00fb 16       		.uleb128 0x16
 3081 00fc 13       		.uleb128 0x13
 3082 00fd 01       		.byte	0x1
 3083 00fe 0B       		.uleb128 0xb
 3084 00ff 05       		.uleb128 0x5
 3085 0100 3A       		.uleb128 0x3a
 3086 0101 0B       		.uleb128 0xb
 3087 0102 3B       		.uleb128 0x3b
 3088 0103 0B       		.uleb128 0xb
 3089 0104 01       		.uleb128 0x1
 3090 0105 13       		.uleb128 0x13
 3091 0106 00       		.byte	0
 3092 0107 00       		.byte	0
 3093 0108 17       		.uleb128 0x17
 3094 0109 0D       		.uleb128 0xd
 3095 010a 00       		.byte	0
 3096 010b 03       		.uleb128 0x3
 3097 010c 08       		.uleb128 0x8
 3098 010d 3A       		.uleb128 0x3a
 3099 010e 0B       		.uleb128 0xb
 3100 010f 3B       		.uleb128 0x3b
 3101 0110 0B       		.uleb128 0xb
 3102 0111 49       		.uleb128 0x49
 3103 0112 13       		.uleb128 0x13
 3104 0113 38       		.uleb128 0x38
 3105 0114 05       		.uleb128 0x5
 3106 0115 00       		.byte	0
 3107 0116 00       		.byte	0
 3108 0117 18       		.uleb128 0x18
 3109 0118 01       		.uleb128 0x1
ARM GAS  /tmp/cc43DkP6.s 			page 56


 3110 0119 01       		.byte	0x1
 3111 011a 49       		.uleb128 0x49
 3112 011b 13       		.uleb128 0x13
 3113 011c 01       		.uleb128 0x1
 3114 011d 13       		.uleb128 0x13
 3115 011e 00       		.byte	0
 3116 011f 00       		.byte	0
 3117 0120 19       		.uleb128 0x19
 3118 0121 21       		.uleb128 0x21
 3119 0122 00       		.byte	0
 3120 0123 49       		.uleb128 0x49
 3121 0124 13       		.uleb128 0x13
 3122 0125 2F       		.uleb128 0x2f
 3123 0126 0B       		.uleb128 0xb
 3124 0127 00       		.byte	0
 3125 0128 00       		.byte	0
 3126 0129 1A       		.uleb128 0x1a
 3127 012a 17       		.uleb128 0x17
 3128 012b 01       		.byte	0x1
 3129 012c 03       		.uleb128 0x3
 3130 012d 0E       		.uleb128 0xe
 3131 012e 0B       		.uleb128 0xb
 3132 012f 05       		.uleb128 0x5
 3133 0130 3A       		.uleb128 0x3a
 3134 0131 0B       		.uleb128 0xb
 3135 0132 3B       		.uleb128 0x3b
 3136 0133 0B       		.uleb128 0xb
 3137 0134 01       		.uleb128 0x1
 3138 0135 13       		.uleb128 0x13
 3139 0136 00       		.byte	0
 3140 0137 00       		.byte	0
 3141 0138 1B       		.uleb128 0x1b
 3142 0139 21       		.uleb128 0x21
 3143 013a 00       		.byte	0
 3144 013b 49       		.uleb128 0x49
 3145 013c 13       		.uleb128 0x13
 3146 013d 2F       		.uleb128 0x2f
 3147 013e 05       		.uleb128 0x5
 3148 013f 00       		.byte	0
 3149 0140 00       		.byte	0
 3150 0141 1C       		.uleb128 0x1c
 3151 0142 2E       		.uleb128 0x2e
 3152 0143 01       		.byte	0x1
 3153 0144 03       		.uleb128 0x3
 3154 0145 0E       		.uleb128 0xe
 3155 0146 3A       		.uleb128 0x3a
 3156 0147 0B       		.uleb128 0xb
 3157 0148 3B       		.uleb128 0x3b
 3158 0149 0B       		.uleb128 0xb
 3159 014a 27       		.uleb128 0x27
 3160 014b 19       		.uleb128 0x19
 3161 014c 11       		.uleb128 0x11
 3162 014d 01       		.uleb128 0x1
 3163 014e 12       		.uleb128 0x12
 3164 014f 06       		.uleb128 0x6
 3165 0150 40       		.uleb128 0x40
 3166 0151 18       		.uleb128 0x18
ARM GAS  /tmp/cc43DkP6.s 			page 57


 3167 0152 9742     		.uleb128 0x2117
 3168 0154 19       		.uleb128 0x19
 3169 0155 01       		.uleb128 0x1
 3170 0156 13       		.uleb128 0x13
 3171 0157 00       		.byte	0
 3172 0158 00       		.byte	0
 3173 0159 1D       		.uleb128 0x1d
 3174 015a 34       		.uleb128 0x34
 3175 015b 00       		.byte	0
 3176 015c 03       		.uleb128 0x3
 3177 015d 08       		.uleb128 0x8
 3178 015e 3A       		.uleb128 0x3a
 3179 015f 0B       		.uleb128 0xb
 3180 0160 3B       		.uleb128 0x3b
 3181 0161 0B       		.uleb128 0xb
 3182 0162 49       		.uleb128 0x49
 3183 0163 13       		.uleb128 0x13
 3184 0164 02       		.uleb128 0x2
 3185 0165 18       		.uleb128 0x18
 3186 0166 00       		.byte	0
 3187 0167 00       		.byte	0
 3188 0168 1E       		.uleb128 0x1e
 3189 0169 34       		.uleb128 0x34
 3190 016a 00       		.byte	0
 3191 016b 03       		.uleb128 0x3
 3192 016c 08       		.uleb128 0x8
 3193 016d 3A       		.uleb128 0x3a
 3194 016e 0B       		.uleb128 0xb
 3195 016f 3B       		.uleb128 0x3b
 3196 0170 0B       		.uleb128 0xb
 3197 0171 49       		.uleb128 0x49
 3198 0172 13       		.uleb128 0x13
 3199 0173 02       		.uleb128 0x2
 3200 0174 17       		.uleb128 0x17
 3201 0175 00       		.byte	0
 3202 0176 00       		.byte	0
 3203 0177 1F       		.uleb128 0x1f
 3204 0178 34       		.uleb128 0x34
 3205 0179 00       		.byte	0
 3206 017a 03       		.uleb128 0x3
 3207 017b 0E       		.uleb128 0xe
 3208 017c 3A       		.uleb128 0x3a
 3209 017d 0B       		.uleb128 0xb
 3210 017e 3B       		.uleb128 0x3b
 3211 017f 0B       		.uleb128 0xb
 3212 0180 49       		.uleb128 0x49
 3213 0181 13       		.uleb128 0x13
 3214 0182 02       		.uleb128 0x2
 3215 0183 18       		.uleb128 0x18
 3216 0184 00       		.byte	0
 3217 0185 00       		.byte	0
 3218 0186 20       		.uleb128 0x20
 3219 0187 898201   		.uleb128 0x4109
 3220 018a 01       		.byte	0x1
 3221 018b 11       		.uleb128 0x11
 3222 018c 01       		.uleb128 0x1
 3223 018d 31       		.uleb128 0x31
ARM GAS  /tmp/cc43DkP6.s 			page 58


 3224 018e 13       		.uleb128 0x13
 3225 018f 01       		.uleb128 0x1
 3226 0190 13       		.uleb128 0x13
 3227 0191 00       		.byte	0
 3228 0192 00       		.byte	0
 3229 0193 21       		.uleb128 0x21
 3230 0194 8A8201   		.uleb128 0x410a
 3231 0197 00       		.byte	0
 3232 0198 02       		.uleb128 0x2
 3233 0199 18       		.uleb128 0x18
 3234 019a 9142     		.uleb128 0x2111
 3235 019c 18       		.uleb128 0x18
 3236 019d 00       		.byte	0
 3237 019e 00       		.byte	0
 3238 019f 22       		.uleb128 0x22
 3239 01a0 898201   		.uleb128 0x4109
 3240 01a3 00       		.byte	0
 3241 01a4 11       		.uleb128 0x11
 3242 01a5 01       		.uleb128 0x1
 3243 01a6 31       		.uleb128 0x31
 3244 01a7 13       		.uleb128 0x13
 3245 01a8 00       		.byte	0
 3246 01a9 00       		.byte	0
 3247 01aa 23       		.uleb128 0x23
 3248 01ab 898201   		.uleb128 0x4109
 3249 01ae 01       		.byte	0x1
 3250 01af 11       		.uleb128 0x11
 3251 01b0 01       		.uleb128 0x1
 3252 01b1 31       		.uleb128 0x31
 3253 01b2 13       		.uleb128 0x13
 3254 01b3 00       		.byte	0
 3255 01b4 00       		.byte	0
 3256 01b5 24       		.uleb128 0x24
 3257 01b6 2E       		.uleb128 0x2e
 3258 01b7 01       		.byte	0x1
 3259 01b8 03       		.uleb128 0x3
 3260 01b9 0E       		.uleb128 0xe
 3261 01ba 3A       		.uleb128 0x3a
 3262 01bb 0B       		.uleb128 0xb
 3263 01bc 3B       		.uleb128 0x3b
 3264 01bd 0B       		.uleb128 0xb
 3265 01be 27       		.uleb128 0x27
 3266 01bf 19       		.uleb128 0x19
 3267 01c0 49       		.uleb128 0x49
 3268 01c1 13       		.uleb128 0x13
 3269 01c2 11       		.uleb128 0x11
 3270 01c3 01       		.uleb128 0x1
 3271 01c4 12       		.uleb128 0x12
 3272 01c5 06       		.uleb128 0x6
 3273 01c6 40       		.uleb128 0x40
 3274 01c7 18       		.uleb128 0x18
 3275 01c8 9742     		.uleb128 0x2117
 3276 01ca 19       		.uleb128 0x19
 3277 01cb 01       		.uleb128 0x1
 3278 01cc 13       		.uleb128 0x13
 3279 01cd 00       		.byte	0
 3280 01ce 00       		.byte	0
ARM GAS  /tmp/cc43DkP6.s 			page 59


 3281 01cf 25       		.uleb128 0x25
 3282 01d0 05       		.uleb128 0x5
 3283 01d1 00       		.byte	0
 3284 01d2 03       		.uleb128 0x3
 3285 01d3 08       		.uleb128 0x8
 3286 01d4 3A       		.uleb128 0x3a
 3287 01d5 0B       		.uleb128 0xb
 3288 01d6 3B       		.uleb128 0x3b
 3289 01d7 0B       		.uleb128 0xb
 3290 01d8 49       		.uleb128 0x49
 3291 01d9 13       		.uleb128 0x13
 3292 01da 02       		.uleb128 0x2
 3293 01db 17       		.uleb128 0x17
 3294 01dc 00       		.byte	0
 3295 01dd 00       		.byte	0
 3296 01de 26       		.uleb128 0x26
 3297 01df 898201   		.uleb128 0x4109
 3298 01e2 01       		.byte	0x1
 3299 01e3 11       		.uleb128 0x11
 3300 01e4 01       		.uleb128 0x1
 3301 01e5 9542     		.uleb128 0x2115
 3302 01e7 19       		.uleb128 0x19
 3303 01e8 31       		.uleb128 0x31
 3304 01e9 13       		.uleb128 0x13
 3305 01ea 00       		.byte	0
 3306 01eb 00       		.byte	0
 3307 01ec 27       		.uleb128 0x27
 3308 01ed 34       		.uleb128 0x34
 3309 01ee 00       		.byte	0
 3310 01ef 03       		.uleb128 0x3
 3311 01f0 0E       		.uleb128 0xe
 3312 01f1 3A       		.uleb128 0x3a
 3313 01f2 0B       		.uleb128 0xb
 3314 01f3 3B       		.uleb128 0x3b
 3315 01f4 0B       		.uleb128 0xb
 3316 01f5 49       		.uleb128 0x49
 3317 01f6 13       		.uleb128 0x13
 3318 01f7 02       		.uleb128 0x2
 3319 01f8 17       		.uleb128 0x17
 3320 01f9 00       		.byte	0
 3321 01fa 00       		.byte	0
 3322 01fb 28       		.uleb128 0x28
 3323 01fc 34       		.uleb128 0x34
 3324 01fd 00       		.byte	0
 3325 01fe 03       		.uleb128 0x3
 3326 01ff 0E       		.uleb128 0xe
 3327 0200 3A       		.uleb128 0x3a
 3328 0201 0B       		.uleb128 0xb
 3329 0202 3B       		.uleb128 0x3b
 3330 0203 0B       		.uleb128 0xb
 3331 0204 49       		.uleb128 0x49
 3332 0205 13       		.uleb128 0x13
 3333 0206 00       		.byte	0
 3334 0207 00       		.byte	0
 3335 0208 29       		.uleb128 0x29
 3336 0209 34       		.uleb128 0x34
 3337 020a 00       		.byte	0
ARM GAS  /tmp/cc43DkP6.s 			page 60


 3338 020b 03       		.uleb128 0x3
 3339 020c 0E       		.uleb128 0xe
 3340 020d 3A       		.uleb128 0x3a
 3341 020e 0B       		.uleb128 0xb
 3342 020f 3B       		.uleb128 0x3b
 3343 0210 05       		.uleb128 0x5
 3344 0211 49       		.uleb128 0x49
 3345 0212 13       		.uleb128 0x13
 3346 0213 3F       		.uleb128 0x3f
 3347 0214 19       		.uleb128 0x19
 3348 0215 3C       		.uleb128 0x3c
 3349 0216 19       		.uleb128 0x19
 3350 0217 00       		.byte	0
 3351 0218 00       		.byte	0
 3352 0219 2A       		.uleb128 0x2a
 3353 021a 34       		.uleb128 0x34
 3354 021b 00       		.byte	0
 3355 021c 03       		.uleb128 0x3
 3356 021d 0E       		.uleb128 0xe
 3357 021e 3A       		.uleb128 0x3a
 3358 021f 0B       		.uleb128 0xb
 3359 0220 3B       		.uleb128 0x3b
 3360 0221 0B       		.uleb128 0xb
 3361 0222 49       		.uleb128 0x49
 3362 0223 13       		.uleb128 0x13
 3363 0224 3F       		.uleb128 0x3f
 3364 0225 19       		.uleb128 0x19
 3365 0226 3C       		.uleb128 0x3c
 3366 0227 19       		.uleb128 0x19
 3367 0228 00       		.byte	0
 3368 0229 00       		.byte	0
 3369 022a 2B       		.uleb128 0x2b
 3370 022b 21       		.uleb128 0x21
 3371 022c 00       		.byte	0
 3372 022d 00       		.byte	0
 3373 022e 00       		.byte	0
 3374 022f 2C       		.uleb128 0x2c
 3375 0230 34       		.uleb128 0x34
 3376 0231 00       		.byte	0
 3377 0232 03       		.uleb128 0x3
 3378 0233 08       		.uleb128 0x8
 3379 0234 3A       		.uleb128 0x3a
 3380 0235 0B       		.uleb128 0xb
 3381 0236 3B       		.uleb128 0x3b
 3382 0237 0B       		.uleb128 0xb
 3383 0238 49       		.uleb128 0x49
 3384 0239 13       		.uleb128 0x13
 3385 023a 3F       		.uleb128 0x3f
 3386 023b 19       		.uleb128 0x19
 3387 023c 3C       		.uleb128 0x3c
 3388 023d 19       		.uleb128 0x19
 3389 023e 00       		.byte	0
 3390 023f 00       		.byte	0
 3391 0240 2D       		.uleb128 0x2d
 3392 0241 34       		.uleb128 0x34
 3393 0242 00       		.byte	0
 3394 0243 03       		.uleb128 0x3
ARM GAS  /tmp/cc43DkP6.s 			page 61


 3395 0244 0E       		.uleb128 0xe
 3396 0245 3A       		.uleb128 0x3a
 3397 0246 0B       		.uleb128 0xb
 3398 0247 3B       		.uleb128 0x3b
 3399 0248 0B       		.uleb128 0xb
 3400 0249 49       		.uleb128 0x49
 3401 024a 13       		.uleb128 0x13
 3402 024b 3F       		.uleb128 0x3f
 3403 024c 19       		.uleb128 0x19
 3404 024d 02       		.uleb128 0x2
 3405 024e 18       		.uleb128 0x18
 3406 024f 00       		.byte	0
 3407 0250 00       		.byte	0
 3408 0251 2E       		.uleb128 0x2e
 3409 0252 2E       		.uleb128 0x2e
 3410 0253 01       		.byte	0x1
 3411 0254 3F       		.uleb128 0x3f
 3412 0255 19       		.uleb128 0x19
 3413 0256 03       		.uleb128 0x3
 3414 0257 0E       		.uleb128 0xe
 3415 0258 3A       		.uleb128 0x3a
 3416 0259 0B       		.uleb128 0xb
 3417 025a 3B       		.uleb128 0x3b
 3418 025b 0B       		.uleb128 0xb
 3419 025c 27       		.uleb128 0x27
 3420 025d 19       		.uleb128 0x19
 3421 025e 49       		.uleb128 0x49
 3422 025f 13       		.uleb128 0x13
 3423 0260 3C       		.uleb128 0x3c
 3424 0261 19       		.uleb128 0x19
 3425 0262 01       		.uleb128 0x1
 3426 0263 13       		.uleb128 0x13
 3427 0264 00       		.byte	0
 3428 0265 00       		.byte	0
 3429 0266 2F       		.uleb128 0x2f
 3430 0267 2E       		.uleb128 0x2e
 3431 0268 01       		.byte	0x1
 3432 0269 3F       		.uleb128 0x3f
 3433 026a 19       		.uleb128 0x19
 3434 026b 03       		.uleb128 0x3
 3435 026c 0E       		.uleb128 0xe
 3436 026d 3A       		.uleb128 0x3a
 3437 026e 0B       		.uleb128 0xb
 3438 026f 3B       		.uleb128 0x3b
 3439 0270 0B       		.uleb128 0xb
 3440 0271 27       		.uleb128 0x27
 3441 0272 19       		.uleb128 0x19
 3442 0273 3C       		.uleb128 0x3c
 3443 0274 19       		.uleb128 0x19
 3444 0275 01       		.uleb128 0x1
 3445 0276 13       		.uleb128 0x13
 3446 0277 00       		.byte	0
 3447 0278 00       		.byte	0
 3448 0279 30       		.uleb128 0x30
 3449 027a 2E       		.uleb128 0x2e
 3450 027b 00       		.byte	0
 3451 027c 3F       		.uleb128 0x3f
ARM GAS  /tmp/cc43DkP6.s 			page 62


 3452 027d 19       		.uleb128 0x19
 3453 027e 03       		.uleb128 0x3
 3454 027f 0E       		.uleb128 0xe
 3455 0280 3A       		.uleb128 0x3a
 3456 0281 0B       		.uleb128 0xb
 3457 0282 3B       		.uleb128 0x3b
 3458 0283 0B       		.uleb128 0xb
 3459 0284 27       		.uleb128 0x27
 3460 0285 19       		.uleb128 0x19
 3461 0286 3C       		.uleb128 0x3c
 3462 0287 19       		.uleb128 0x19
 3463 0288 00       		.byte	0
 3464 0289 00       		.byte	0
 3465 028a 31       		.uleb128 0x31
 3466 028b 2E       		.uleb128 0x2e
 3467 028c 00       		.byte	0
 3468 028d 3F       		.uleb128 0x3f
 3469 028e 19       		.uleb128 0x19
 3470 028f 03       		.uleb128 0x3
 3471 0290 0E       		.uleb128 0xe
 3472 0291 3A       		.uleb128 0x3a
 3473 0292 0B       		.uleb128 0xb
 3474 0293 3B       		.uleb128 0x3b
 3475 0294 0B       		.uleb128 0xb
 3476 0295 27       		.uleb128 0x27
 3477 0296 19       		.uleb128 0x19
 3478 0297 49       		.uleb128 0x49
 3479 0298 13       		.uleb128 0x13
 3480 0299 3C       		.uleb128 0x3c
 3481 029a 19       		.uleb128 0x19
 3482 029b 00       		.byte	0
 3483 029c 00       		.byte	0
 3484 029d 32       		.uleb128 0x32
 3485 029e 2E       		.uleb128 0x2e
 3486 029f 01       		.byte	0x1
 3487 02a0 3F       		.uleb128 0x3f
 3488 02a1 19       		.uleb128 0x19
 3489 02a2 03       		.uleb128 0x3
 3490 02a3 0E       		.uleb128 0xe
 3491 02a4 3A       		.uleb128 0x3a
 3492 02a5 0B       		.uleb128 0xb
 3493 02a6 3B       		.uleb128 0x3b
 3494 02a7 05       		.uleb128 0x5
 3495 02a8 27       		.uleb128 0x27
 3496 02a9 19       		.uleb128 0x19
 3497 02aa 3C       		.uleb128 0x3c
 3498 02ab 19       		.uleb128 0x19
 3499 02ac 00       		.byte	0
 3500 02ad 00       		.byte	0
 3501 02ae 00       		.byte	0
 3502              		.section	.debug_loc,"",%progbits
 3503              	.Ldebug_loc0:
 3504              	.LLST0:
 3505 0000 56000000 		.4byte	.LVL6
 3506 0004 5C000000 		.4byte	.LVL7
 3507 0008 0100     		.2byte	0x1
 3508 000a 50       		.byte	0x50
ARM GAS  /tmp/cc43DkP6.s 			page 63


 3509 000b 5C000000 		.4byte	.LVL7
 3510 000f F0000000 		.4byte	.LFE120
 3511 0013 0100     		.2byte	0x1
 3512 0015 56       		.byte	0x56
 3513 0016 00000000 		.4byte	0
 3514 001a 00000000 		.4byte	0
 3515              	.LLST1:
 3516 001e 00000000 		.4byte	.LVL17
 3517 0022 04000000 		.4byte	.LVL18
 3518 0026 0100     		.2byte	0x1
 3519 0028 50       		.byte	0x50
 3520 0029 04000000 		.4byte	.LVL18
 3521 002d 0C000000 		.4byte	.LFE118
 3522 0031 0400     		.2byte	0x4
 3523 0033 F3       		.byte	0xf3
 3524 0034 01       		.uleb128 0x1
 3525 0035 50       		.byte	0x50
 3526 0036 9F       		.byte	0x9f
 3527 0037 00000000 		.4byte	0
 3528 003b 00000000 		.4byte	0
 3529              	.LLST2:
 3530 003f 0A000000 		.4byte	.LVL22
 3531 0043 0E000000 		.4byte	.LVL23
 3532 0047 0200     		.2byte	0x2
 3533 0049 30       		.byte	0x30
 3534 004a 9F       		.byte	0x9f
 3535 004b 98000000 		.4byte	.LVL34
 3536 004f AA000000 		.4byte	.LVL36
 3537 0053 0500     		.2byte	0x5
 3538 0055 34       		.byte	0x34
 3539 0056 74       		.byte	0x74
 3540 0057 00       		.sleb128 0
 3541 0058 1C       		.byte	0x1c
 3542 0059 9F       		.byte	0x9f
 3543 005a AA000000 		.4byte	.LVL36
 3544 005e B0000000 		.4byte	.LVL37
 3545 0062 0500     		.2byte	0x5
 3546 0064 35       		.byte	0x35
 3547 0065 74       		.byte	0x74
 3548 0066 00       		.sleb128 0
 3549 0067 1C       		.byte	0x1c
 3550 0068 9F       		.byte	0x9f
 3551 0069 B0000000 		.4byte	.LVL37
 3552 006d C6000000 		.4byte	.LVL39
 3553 0071 0500     		.2byte	0x5
 3554 0073 34       		.byte	0x34
 3555 0074 74       		.byte	0x74
 3556 0075 00       		.sleb128 0
 3557 0076 1C       		.byte	0x1c
 3558 0077 9F       		.byte	0x9f
 3559 0078 00000000 		.4byte	0
 3560 007c 00000000 		.4byte	0
 3561              	.LLST3:
 3562 0080 0A000000 		.4byte	.LVL22
 3563 0084 C6000000 		.4byte	.LVL39
 3564 0088 0100     		.2byte	0x1
 3565 008a 55       		.byte	0x55
ARM GAS  /tmp/cc43DkP6.s 			page 64


 3566 008b 00000000 		.4byte	0
 3567 008f 00000000 		.4byte	0
 3568              	.LLST4:
 3569 0093 00000000 		.4byte	.LVL42
 3570 0097 07000000 		.4byte	.LVL43-1
 3571 009b 0100     		.2byte	0x1
 3572 009d 50       		.byte	0x50
 3573 009e 07000000 		.4byte	.LVL43-1
 3574 00a2 24000000 		.4byte	.LFE123
 3575 00a6 0100     		.2byte	0x1
 3576 00a8 55       		.byte	0x55
 3577 00a9 00000000 		.4byte	0
 3578 00ad 00000000 		.4byte	0
 3579              	.LLST5:
 3580 00b1 0C000000 		.4byte	.LVL44
 3581 00b5 19000000 		.4byte	.LVL46-1
 3582 00b9 0100     		.2byte	0x1
 3583 00bb 50       		.byte	0x50
 3584 00bc 1A000000 		.4byte	.LVL46
 3585 00c0 22000000 		.4byte	.LVL47
 3586 00c4 0100     		.2byte	0x1
 3587 00c6 50       		.byte	0x50
 3588 00c7 22000000 		.4byte	.LVL47
 3589 00cb 24000000 		.4byte	.LFE123
 3590 00cf 0100     		.2byte	0x1
 3591 00d1 53       		.byte	0x53
 3592 00d2 00000000 		.4byte	0
 3593 00d6 00000000 		.4byte	0
 3594              	.LLST6:
 3595 00da 00000000 		.4byte	.LVL42
 3596 00de 0C000000 		.4byte	.LVL44
 3597 00e2 0200     		.2byte	0x2
 3598 00e4 30       		.byte	0x30
 3599 00e5 9F       		.byte	0x9f
 3600 00e6 0C000000 		.4byte	.LVL44
 3601 00ea 24000000 		.4byte	.LFE123
 3602 00ee 0100     		.2byte	0x1
 3603 00f0 54       		.byte	0x54
 3604 00f1 00000000 		.4byte	0
 3605 00f5 00000000 		.4byte	0
 3606              	.LLST7:
 3607 00f9 1E000000 		.4byte	.LVL51
 3608 00fd 20000000 		.4byte	.LVL52
 3609 0101 0100     		.2byte	0x1
 3610 0103 50       		.byte	0x50
 3611 0104 20000000 		.4byte	.LVL52
 3612 0108 26010000 		.4byte	.LVL75
 3613 010c 0100     		.2byte	0x1
 3614 010e 54       		.byte	0x54
 3615 010f 00000000 		.4byte	0
 3616 0113 00000000 		.4byte	0
 3617              		.section	.debug_aranges,"",%progbits
 3618 0000 54000000 		.4byte	0x54
 3619 0004 0200     		.2byte	0x2
 3620 0006 00000000 		.4byte	.Ldebug_info0
 3621 000a 04       		.byte	0x4
 3622 000b 00       		.byte	0
ARM GAS  /tmp/cc43DkP6.s 			page 65


 3623 000c 0000     		.2byte	0
 3624 000e 0000     		.2byte	0
 3625 0010 00000000 		.4byte	.LFB120
 3626 0014 F0000000 		.4byte	.LFE120-.LFB120
 3627 0018 00000000 		.4byte	.LFB118
 3628 001c 0C000000 		.4byte	.LFE118-.LFB118
 3629 0020 00000000 		.4byte	.LFB119
 3630 0024 14000000 		.4byte	.LFE119-.LFB119
 3631 0028 00000000 		.4byte	.LFB124
 3632 002c 14000000 		.4byte	.LFE124-.LFB124
 3633 0030 00000000 		.4byte	.LFB122
 3634 0034 F8000000 		.4byte	.LFE122-.LFB122
 3635 0038 00000000 		.4byte	.LFB121
 3636 003c 10000000 		.4byte	.LFE121-.LFB121
 3637 0040 00000000 		.4byte	.LFB123
 3638 0044 24000000 		.4byte	.LFE123-.LFB123
 3639 0048 00000000 		.4byte	.LFB125
 3640 004c 3C010000 		.4byte	.LFE125-.LFB125
 3641 0050 00000000 		.4byte	0
 3642 0054 00000000 		.4byte	0
 3643              		.section	.debug_ranges,"",%progbits
 3644              	.Ldebug_ranges0:
 3645 0000 00000000 		.4byte	.LFB120
 3646 0004 F0000000 		.4byte	.LFE120
 3647 0008 00000000 		.4byte	.LFB118
 3648 000c 0C000000 		.4byte	.LFE118
 3649 0010 00000000 		.4byte	.LFB119
 3650 0014 14000000 		.4byte	.LFE119
 3651 0018 00000000 		.4byte	.LFB124
 3652 001c 14000000 		.4byte	.LFE124
 3653 0020 00000000 		.4byte	.LFB122
 3654 0024 F8000000 		.4byte	.LFE122
 3655 0028 00000000 		.4byte	.LFB121
 3656 002c 10000000 		.4byte	.LFE121
 3657 0030 00000000 		.4byte	.LFB123
 3658 0034 24000000 		.4byte	.LFE123
 3659 0038 00000000 		.4byte	.LFB125
 3660 003c 3C010000 		.4byte	.LFE125
 3661 0040 00000000 		.4byte	0
 3662 0044 00000000 		.4byte	0
 3663              		.section	.debug_line,"",%progbits
 3664              	.Ldebug_line0:
 3665 0000 DE020000 		.section	.debug_str,"MS",%progbits,1
 3665      0200BD01 
 3665      00000201 
 3665      FB0E0D00 
 3665      01010101 
 3666              	.LASF85:
 3667 0000 7466756E 		.ascii	"tfunc_t\000"
 3667      635F7400 
 3668              	.LASF128:
 3669 0008 474E5520 		.ascii	"GNU C 4.8.3 20140820 (release) -mcpu=cortex-m4 -mno"
 3669      4320342E 
 3669      382E3320 
 3669      32303134 
 3669      30383230 
 3670 003b 2D746875 		.ascii	"-thumb-interwork -mthumb -ggdb -O2 -fomit-frame-poi"
ARM GAS  /tmp/cc43DkP6.s 			page 66


 3670      6D622D69 
 3670      6E746572 
 3670      776F726B 
 3670      202D6D74 
 3671 006e 6E746572 		.ascii	"nter -falign-functions=16 -ffunction-sections -fdat"
 3671      202D6661 
 3671      6C69676E 
 3671      2D66756E 
 3671      6374696F 
 3672 00a1 612D7365 		.ascii	"a-sections -fno-common\000"
 3672      6374696F 
 3672      6E73202D 
 3672      666E6F2D 
 3672      636F6D6D 
 3673              	.LASF2:
 3674 00b8 73697A65 		.ascii	"size_t\000"
 3674      5F7400
 3675              	.LASF80:
 3676 00bf 7264796D 		.ascii	"rdymsg\000"
 3676      736700
 3677              	.LASF17:
 3678 00c6 75696E74 		.ascii	"uint64_t\000"
 3678      36345F74 
 3678      00
 3679              	.LASF3:
 3680 00cf 5F5F7569 		.ascii	"__uint8_t\000"
 3680      6E74385F 
 3680      7400
 3681              	.LASF64:
 3682 00d9 6D656D67 		.ascii	"memgetfunc_t\000"
 3682      65746675 
 3682      6E635F74 
 3682      00
 3683              	.LASF13:
 3684 00e6 6C6F6E67 		.ascii	"long long unsigned int\000"
 3684      206C6F6E 
 3684      6720756E 
 3684      7369676E 
 3684      65642069 
 3685              	.LASF81:
 3686 00fd 65786974 		.ascii	"exitcode\000"
 3686      636F6465 
 3686      00
 3687              	.LASF68:
 3688 0106 685F6672 		.ascii	"h_free\000"
 3688      656500
 3689              	.LASF108:
 3690 010d 74657374 		.ascii	"test\000"
 3690      00
 3691              	.LASF132:
 3692 0112 63685265 		.ascii	"chRegFirstThread\000"
 3692      67466972 
 3692      73745468 
 3692      72656164 
 3692      00
 3693              	.LASF105:
 3694 0123 49544D5F 		.ascii	"ITM_RxBuffer\000"
ARM GAS  /tmp/cc43DkP6.s 			page 67


 3694      52784275 
 3694      66666572 
 3694      00
 3695              	.LASF124:
 3696 0130 6368506F 		.ascii	"chPoolInit\000"
 3696      6F6C496E 
 3696      697400
 3697              	.LASF120:
 3698 013b 63684865 		.ascii	"chHeapInit\000"
 3698      6170496E 
 3698      697400
 3699              	.LASF70:
 3700 0146 6E657874 		.ascii	"next\000"
 3700      00
 3701              	.LASF18:
 3702 014b 626F6F6C 		.ascii	"bool_t\000"
 3702      5F7400
 3703              	.LASF30:
 3704 0152 705F7072 		.ascii	"p_prio\000"
 3704      696F00
 3705              	.LASF99:
 3706 0159 64796E32 		.ascii	"dyn2_setup\000"
 3706      5F736574 
 3706      757000
 3707              	.LASF11:
 3708 0164 6C6F6E67 		.ascii	"long long int\000"
 3708      206C6F6E 
 3708      6720696E 
 3708      7400
 3709              	.LASF1:
 3710 0172 7369676E 		.ascii	"signed char\000"
 3710      65642063 
 3710      68617200 
 3711              	.LASF69:
 3712 017e 685F6D74 		.ascii	"h_mtx\000"
 3712      7800
 3713              	.LASF78:
 3714 0184 6D705F70 		.ascii	"mp_provider\000"
 3714      726F7669 
 3714      64657200 
 3715              	.LASF45:
 3716 0190 705F6D70 		.ascii	"p_mpool\000"
 3716      6F6F6C00 
 3717              	.LASF61:
 3718 0198 6D5F7175 		.ascii	"m_queue\000"
 3718      65756500 
 3719              	.LASF119:
 3720 01a0 74657374 		.ascii	"test_emit_token\000"
 3720      5F656D69 
 3720      745F746F 
 3720      6B656E00 
 3721              	.LASF118:
 3722 01b0 63684865 		.ascii	"chHeapFree\000"
 3722      61704672 
 3722      656500
 3723              	.LASF8:
 3724 01bb 6C6F6E67 		.ascii	"long int\000"
ARM GAS  /tmp/cc43DkP6.s 			page 68


 3724      20696E74 
 3724      00
 3725              	.LASF114:
 3726 01c4 63685468 		.ascii	"chThdCreateFromHeap\000"
 3726      64437265 
 3726      61746546 
 3726      726F6D48 
 3726      65617000 
 3727              	.LASF21:
 3728 01d8 74737461 		.ascii	"tstate_t\000"
 3728      74655F74 
 3728      00
 3729              	.LASF76:
 3730 01e1 6D705F6E 		.ascii	"mp_next\000"
 3730      65787400 
 3731              	.LASF38:
 3732 01e9 705F7469 		.ascii	"p_time\000"
 3732      6D6500
 3733              	.LASF95:
 3734 01f0 64796E31 		.ascii	"dyn1_execute\000"
 3734      5F657865 
 3734      63757465 
 3734      00
 3735              	.LASF32:
 3736 01fd 705F6E65 		.ascii	"p_newer\000"
 3736      77657200 
 3737              	.LASF122:
 3738 0205 63685468 		.ascii	"chThdCreateFromMemoryPool\000"
 3738      64437265 
 3738      61746546 
 3738      726F6D4D 
 3738      656D6F72 
 3739              	.LASF56:
 3740 021f 725F6E65 		.ascii	"r_newer\000"
 3740      77657200 
 3741              	.LASF49:
 3742 0227 72656761 		.ascii	"regarm_t\000"
 3742      726D5F74 
 3742      00
 3743              	.LASF72:
 3744 0230 616C6967 		.ascii	"align\000"
 3744      6E00
 3745              	.LASF0:
 3746 0236 756E7369 		.ascii	"unsigned int\000"
 3746      676E6564 
 3746      20696E74 
 3746      00
 3747              	.LASF40:
 3748 0243 705F6D73 		.ascii	"p_msgqueue\000"
 3748      67717565 
 3748      756500
 3749              	.LASF89:
 3750 024e 74656172 		.ascii	"teardown\000"
 3750      646F776E 
 3750      00
 3751              	.LASF87:
 3752 0257 6E616D65 		.ascii	"name\000"
ARM GAS  /tmp/cc43DkP6.s 			page 69


 3752      00
 3753              	.LASF73:
 3754 025c 73697A65 		.ascii	"size\000"
 3754      00
 3755              	.LASF6:
 3756 0261 73686F72 		.ascii	"short unsigned int\000"
 3756      7420756E 
 3756      7369676E 
 3756      65642069 
 3756      6E7400
 3757              	.LASF98:
 3758 0274 64796E32 		.ascii	"dyn2_execute\000"
 3758      5F657865 
 3758      63757465 
 3758      00
 3759              	.LASF24:
 3760 0281 6D73675F 		.ascii	"msg_t\000"
 3760      7400
 3761              	.LASF20:
 3762 0287 746D6F64 		.ascii	"tmode_t\000"
 3762      655F7400 
 3763              	.LASF47:
 3764 028f 54687265 		.ascii	"ThreadsList\000"
 3764      6164734C 
 3764      69737400 
 3765              	.LASF25:
 3766 029b 6576656E 		.ascii	"eventmask_t\000"
 3766      746D6173 
 3766      6B5F7400 
 3767              	.LASF7:
 3768 02a7 5F5F696E 		.ascii	"__int32_t\000"
 3768      7433325F 
 3768      7400
 3769              	.LASF126:
 3770 02b1 63685468 		.ascii	"chThdAddRef\000"
 3770      64416464 
 3770      52656600 
 3771              	.LASF50:
 3772 02bd 73746B61 		.ascii	"stkalign_t\000"
 3772      6C69676E 
 3772      5F7400
 3773              	.LASF130:
 3774 02c8 2F706F6F 		.ascii	"/pool/prototipi/git/tiva-chibios2_6/demos/RT-TM4C12"
 3774      6C2F7072 
 3774      6F746F74 
 3774      6970692F 
 3774      6769742F 
 3775 02fb 39342D4C 		.ascii	"94-LAUNCHPAD\000"
 3775      41554E43 
 3775      48504144 
 3775      00
 3776              	.LASF48:
 3777 0308 73697A65 		.ascii	"sizetype\000"
 3777      74797065 
 3777      00
 3778              	.LASF109:
 3779 0311 74657374 		.ascii	"testdyn1\000"
ARM GAS  /tmp/cc43DkP6.s 			page 70


 3779      64796E31 
 3779      00
 3780              	.LASF110:
 3781 031a 74657374 		.ascii	"testdyn2\000"
 3781      64796E32 
 3781      00
 3782              	.LASF111:
 3783 0323 74657374 		.ascii	"testdyn3\000"
 3783      64796E33 
 3783      00
 3784              	.LASF60:
 3785 032c 4D757465 		.ascii	"Mutex\000"
 3785      7800
 3786              	.LASF42:
 3787 0332 705F6570 		.ascii	"p_epending\000"
 3787      656E6469 
 3787      6E6700
 3788              	.LASF103:
 3789 033d 64796E33 		.ascii	"dyn3_execute\000"
 3789      5F657865 
 3789      63757465 
 3789      00
 3790              	.LASF33:
 3791 034a 705F6F6C 		.ascii	"p_older\000"
 3791      64657200 
 3792              	.LASF55:
 3793 0352 725F6374 		.ascii	"r_ctx\000"
 3793      7800
 3794              	.LASF46:
 3795 0358 54687265 		.ascii	"ThreadsQueue\000"
 3795      61647351 
 3795      75657565 
 3795      00
 3796              	.LASF77:
 3797 0365 6D705F6F 		.ascii	"mp_object_size\000"
 3797      626A6563 
 3797      745F7369 
 3797      7A6500
 3798              	.LASF88:
 3799 0374 73657475 		.ascii	"setup\000"
 3799      7000
 3800              	.LASF117:
 3801 037a 5F746573 		.ascii	"_test_assert_sequence\000"
 3801      745F6173 
 3801      73657274 
 3801      5F736571 
 3801      75656E63 
 3802              	.LASF94:
 3803 0390 7072696F 		.ascii	"prio\000"
 3803      00
 3804              	.LASF57:
 3805 0395 725F6F6C 		.ascii	"r_older\000"
 3805      64657200 
 3806              	.LASF65:
 3807 039d 4D656D6F 		.ascii	"MemoryHeap\000"
 3807      72794865 
 3807      617000
ARM GAS  /tmp/cc43DkP6.s 			page 71


 3808              	.LASF12:
 3809 03a8 5F5F7569 		.ascii	"__uint64_t\000"
 3809      6E743634 
 3809      5F7400
 3810              	.LASF75:
 3811 03b3 70685F6E 		.ascii	"ph_next\000"
 3811      65787400 
 3812              	.LASF29:
 3813 03bb 705F7072 		.ascii	"p_prev\000"
 3813      657600
 3814              	.LASF90:
 3815 03c2 65786563 		.ascii	"execute\000"
 3815      75746500 
 3816              	.LASF23:
 3817 03ca 74707269 		.ascii	"tprio_t\000"
 3817      6F5F7400 
 3818              	.LASF100:
 3819 03d2 74687265 		.ascii	"thread\000"
 3819      616400
 3820              	.LASF19:
 3821 03d9 5F426F6F 		.ascii	"_Bool\000"
 3821      6C00
 3822              	.LASF15:
 3823 03df 696E7433 		.ascii	"int32_t\000"
 3823      325F7400 
 3824              	.LASF4:
 3825 03e7 756E7369 		.ascii	"unsigned char\000"
 3825      676E6564 
 3825      20636861 
 3825      7200
 3826              	.LASF91:
 3827 03f5 68656170 		.ascii	"heap_header\000"
 3827      5F686561 
 3827      64657200 
 3828              	.LASF92:
 3829 0401 74657374 		.ascii	"test_buffers\000"
 3829      5F627566 
 3829      66657273 
 3829      00
 3830              	.LASF43:
 3831 040e 705F6D74 		.ascii	"p_mtxlist\000"
 3831      786C6973 
 3831      7400
 3832              	.LASF5:
 3833 0418 73686F72 		.ascii	"short int\000"
 3833      7420696E 
 3833      7400
 3834              	.LASF35:
 3835 0422 705F7374 		.ascii	"p_state\000"
 3835      61746500 
 3836              	.LASF107:
 3837 042a 74687265 		.ascii	"threads\000"
 3837      61647300 
 3838              	.LASF54:
 3839 0432 725F7072 		.ascii	"r_prio\000"
 3839      696F00
 3840              	.LASF83:
ARM GAS  /tmp/cc43DkP6.s 			page 72


 3841 0439 65776D61 		.ascii	"ewmask\000"
 3841      736B00
 3842              	.LASF28:
 3843 0440 705F6E65 		.ascii	"p_next\000"
 3843      787400
 3844              	.LASF36:
 3845 0447 705F666C 		.ascii	"p_flags\000"
 3845      61677300 
 3846              	.LASF127:
 3847 044f 63685468 		.ascii	"chThdRelease\000"
 3847      6452656C 
 3847      65617365 
 3847      00
 3848              	.LASF27:
 3849 045c 54687265 		.ascii	"Thread\000"
 3849      616400
 3850              	.LASF115:
 3851 0463 63684865 		.ascii	"chHeapAlloc\000"
 3851      6170416C 
 3851      6C6F6300 
 3852              	.LASF86:
 3853 046f 74657374 		.ascii	"testcase\000"
 3853      63617365 
 3853      00
 3854              	.LASF79:
 3855 0478 4D656D6F 		.ascii	"MemoryPool\000"
 3855      7279506F 
 3855      6F6C00
 3856              	.LASF16:
 3857 0483 75696E74 		.ascii	"uint32_t\000"
 3857      33325F74 
 3857      00
 3858              	.LASF53:
 3859 048c 725F7175 		.ascii	"r_queue\000"
 3859      65756500 
 3860              	.LASF22:
 3861 0494 74726566 		.ascii	"trefs_t\000"
 3861      735F7400 
 3862              	.LASF71:
 3863 049c 68656170 		.ascii	"heap\000"
 3863      00
 3864              	.LASF96:
 3865 04a1 64796E31 		.ascii	"dyn1_setup\000"
 3865      5F736574 
 3865      757000
 3866              	.LASF10:
 3867 04ac 6C6F6E67 		.ascii	"long unsigned int\000"
 3867      20756E73 
 3867      69676E65 
 3867      6420696E 
 3867      7400
 3868              	.LASF84:
 3869 04be 63686172 		.ascii	"char\000"
 3869      00
 3870              	.LASF125:
 3871 04c3 63685265 		.ascii	"chRegNextThread\000"
 3871      674E6578 
ARM GAS  /tmp/cc43DkP6.s 			page 73


 3871      74546872 
 3871      65616400 
 3872              	.LASF97:
 3873 04d3 64796E33 		.ascii	"dyn3_setup\000"
 3873      5F736574 
 3873      757000
 3874              	.LASF113:
 3875 04de 63684865 		.ascii	"chHeapStatus\000"
 3875      61705374 
 3875      61747573 
 3875      00
 3876              	.LASF131:
 3877 04eb 74657374 		.ascii	"test_wait_threads\000"
 3877      5F776169 
 3877      745F7468 
 3877      72656164 
 3877      7300
 3878              	.LASF63:
 3879 04fd 6D5F6E65 		.ascii	"m_next\000"
 3879      787400
 3880              	.LASF26:
 3881 0504 73797374 		.ascii	"systime_t\000"
 3881      696D655F 
 3881      7400
 3882              	.LASF44:
 3883 050e 705F7265 		.ascii	"p_realprio\000"
 3883      616C7072 
 3883      696F00
 3884              	.LASF93:
 3885 0519 62756666 		.ascii	"buffer\000"
 3885      657200
 3886              	.LASF9:
 3887 0520 5F5F7569 		.ascii	"__uint32_t\000"
 3887      6E743332 
 3887      5F7400
 3888              	.LASF112:
 3889 052b 70617474 		.ascii	"patterndyn\000"
 3889      65726E64 
 3889      796E00
 3890              	.LASF52:
 3891 0536 636F6E74 		.ascii	"context\000"
 3891      65787400 
 3892              	.LASF51:
 3893 053e 696E7463 		.ascii	"intctx\000"
 3893      747800
 3894              	.LASF129:
 3895 0545 2E2E2F2E 		.ascii	"../../test/testdyn.c\000"
 3895      2E2F7465 
 3895      73742F74 
 3895      65737464 
 3895      796E2E63 
 3896              	.LASF102:
 3897 055a 666F756E 		.ascii	"found\000"
 3897      6400
 3898              	.LASF133:
 3899 0560 63685468 		.ascii	"chThdSleep\000"
 3899      64536C65 
ARM GAS  /tmp/cc43DkP6.s 			page 74


 3899      657000
 3900              	.LASF74:
 3901 056b 706F6F6C 		.ascii	"pool_header\000"
 3901      5F686561 
 3901      64657200 
 3902              	.LASF37:
 3903 0577 705F7265 		.ascii	"p_refs\000"
 3903      667300
 3904              	.LASF59:
 3905 057e 52656164 		.ascii	"ReadyList\000"
 3905      794C6973 
 3905      7400
 3906              	.LASF101:
 3907 0588 72656766 		.ascii	"regfind\000"
 3907      696E6400 
 3908              	.LASF106:
 3909 0590 726C6973 		.ascii	"rlist\000"
 3909      7400
 3910              	.LASF14:
 3911 0596 75696E74 		.ascii	"uint8_t\000"
 3911      385F7400 
 3912              	.LASF123:
 3913 059e 6368506F 		.ascii	"chPoolAlloc\000"
 3913      6F6C416C 
 3913      6C6F6300 
 3914              	.LASF121:
 3915 05aa 6368506F 		.ascii	"chPoolFree\000"
 3915      6F6C4672 
 3915      656500
 3916              	.LASF67:
 3917 05b5 685F7072 		.ascii	"h_provider\000"
 3917      6F766964 
 3917      657200
 3918              	.LASF82:
 3919 05c0 77746F62 		.ascii	"wtobjp\000"
 3919      6A7000
 3920              	.LASF34:
 3921 05c7 705F6E61 		.ascii	"p_name\000"
 3921      6D6500
 3922              	.LASF116:
 3923 05ce 5F746573 		.ascii	"_test_assert\000"
 3923      745F6173 
 3923      73657274 
 3923      00
 3924              	.LASF58:
 3925 05db 725F6375 		.ascii	"r_current\000"
 3925      7272656E 
 3925      7400
 3926              	.LASF41:
 3927 05e5 705F6D73 		.ascii	"p_msg\000"
 3927      6700
 3928              	.LASF62:
 3929 05eb 6D5F6F77 		.ascii	"m_owner\000"
 3929      6E657200 
 3930              	.LASF31:
 3931 05f3 705F6374 		.ascii	"p_ctx\000"
 3931      7800
ARM GAS  /tmp/cc43DkP6.s 			page 75


 3932              	.LASF39:
 3933 05f9 705F7761 		.ascii	"p_waiting\000"
 3933      6974696E 
 3933      6700
 3934              	.LASF104:
 3935 0603 68656170 		.ascii	"heap1\000"
 3935      3100
 3936              	.LASF66:
 3937 0609 6D656D6F 		.ascii	"memory_heap\000"
 3937      72795F68 
 3937      65617000 
 3938              		.ident	"GCC: (4.8.3-9+11) 4.8.3 20140820 (release)"
ARM GAS  /tmp/cc43DkP6.s 			page 76


DEFINED SYMBOLS
                            *ABS*:0000000000000000 testdyn.c
     /tmp/cc43DkP6.s:19     .text.dyn1_execute:0000000000000000 $t
     /tmp/cc43DkP6.s:24     .text.dyn1_execute:0000000000000000 dyn1_execute
     /tmp/cc43DkP6.s:176    .text.dyn1_execute:00000000000000d0 $d
     /tmp/cc43DkP6.s:193    .text.thread:0000000000000000 thread
     /tmp/cc43DkP6.s:188    .text.thread:0000000000000000 $t
     /tmp/cc43DkP6.s:216    .text.dyn1_setup:0000000000000000 $t
     /tmp/cc43DkP6.s:221    .text.dyn1_setup:0000000000000000 dyn1_setup
     /tmp/cc43DkP6.s:237    .text.dyn1_setup:000000000000000c $d
     /tmp/cc43DkP6.s:243    .text.dyn3_setup:0000000000000000 $t
     /tmp/cc43DkP6.s:248    .text.dyn3_setup:0000000000000000 dyn3_setup
     /tmp/cc43DkP6.s:264    .text.dyn3_setup:000000000000000c $d
     /tmp/cc43DkP6.s:270    .text.dyn2_execute:0000000000000000 $t
     /tmp/cc43DkP6.s:275    .text.dyn2_execute:0000000000000000 dyn2_execute
     /tmp/cc43DkP6.s:426    .text.dyn2_execute:00000000000000cc $d
     /tmp/cc43DkP6.s:441    .text.dyn2_setup:0000000000000000 $t
     /tmp/cc43DkP6.s:446    .text.dyn2_setup:0000000000000000 dyn2_setup
     /tmp/cc43DkP6.s:462    .text.dyn2_setup:000000000000000c $d
     /tmp/cc43DkP6.s:467    .text.regfind:0000000000000000 $t
     /tmp/cc43DkP6.s:472    .text.regfind:0000000000000000 regfind
     /tmp/cc43DkP6.s:518    .text.dyn3_execute:0000000000000000 $t
     /tmp/cc43DkP6.s:523    .text.dyn3_execute:0000000000000000 dyn3_execute
     /tmp/cc43DkP6.s:707    .text.dyn3_execute:000000000000012c $d
     /tmp/cc43DkP6.s:786    .rodata.patterndyn:0000000000000000 patterndyn
     /tmp/cc43DkP6.s:740    .rodata.testdyn3:0000000000000000 testdyn3
     /tmp/cc43DkP6.s:731    .rodata.testdyn2:0000000000000000 testdyn2
     /tmp/cc43DkP6.s:722    .rodata.testdyn1:0000000000000000 testdyn1
     /tmp/cc43DkP6.s:719    .rodata.testdyn1:0000000000000000 $d
     /tmp/cc43DkP6.s:728    .rodata.testdyn2:0000000000000000 $d
     /tmp/cc43DkP6.s:737    .rodata.testdyn3:0000000000000000 $d
     /tmp/cc43DkP6.s:746    .bss.mp1:0000000000000000 $d
     /tmp/cc43DkP6.s:750    .bss.mp1:0000000000000000 mp1
     /tmp/cc43DkP6.s:753    .rodata.str1.4:0000000000000000 $d
     /tmp/cc43DkP6.s:783    .rodata.patterndyn:0000000000000000 $d
     /tmp/cc43DkP6.s:792    .bss.heap1:0000000000000000 $d
     /tmp/cc43DkP6.s:796    .bss.heap1:0000000000000000 heap1
                     .debug_frame:0000000000000010 $d
     /tmp/cc43DkP6.s:242    .text.dyn1_setup:0000000000000014 $t
     /tmp/cc43DkP6.s:269    .text.dyn3_setup:0000000000000014 $t
     /tmp/cc43DkP6.s:440    .text.dyn2_execute:00000000000000f8 $t
     /tmp/cc43DkP6.s:718    .text.dyn3_execute:000000000000013c $t

UNDEFINED SYMBOLS
chHeapStatus
chThdCreateFromHeap
chHeapAlloc
chHeapFree
_test_assert
test_wait_threads
_test_assert_sequence
rlist
threads
test_emit_token
chHeapInit
test
chPoolFree
ARM GAS  /tmp/cc43DkP6.s 			page 77


chThdCreateFromMemoryPool
chPoolAlloc
wa
chPoolInit
chRegFirstThread
chRegNextThread
chThdAddRef
chThdRelease
chThdSleep
