ARM GAS  /tmp/ccAgvOJM.s 			page 1


   1              		.syntax unified
   2              		.cpu cortex-m4
   3              		.fpu softvfp
   4              		.eabi_attribute 20, 1
   5              		.eabi_attribute 21, 1
   6              		.eabi_attribute 23, 3
   7              		.eabi_attribute 24, 1
   8              		.eabi_attribute 25, 1
   9              		.eabi_attribute 26, 1
  10              		.eabi_attribute 30, 2
  11              		.eabi_attribute 34, 1
  12              		.eabi_attribute 18, 4
  13              		.thumb
  14              		.file	"testqueues.c"
  15              		.text
  16              	.Ltext0:
  17              		.cfi_sections	.debug_frame
  18              		.section	.text.notify,"ax",%progbits
  19              		.align	2
  20              		.p2align 4,,15
  21              		.thumb
  22              		.thumb_func
  23              		.type	notify, %function
  24              	notify:
  25              	.LFB118:
  26              		.file 1 "../../test/testqueues.c"
  27              		.loc 1 57 0
  28              		.cfi_startproc
  29              		@ args = 0, pretend = 0, frame = 0
  30              		@ frame_needed = 0, uses_anonymous_args = 0
  31              		@ link register save eliminated.
  32              	.LVL0:
  33 0000 7047     		bx	lr
  34              		.cfi_endproc
  35              	.LFE118:
  36              		.size	notify, .-notify
  37 0002 00BFAFF3 		.section	.text.thread1,"ax",%progbits
  37      0080AFF3 
  37      0080AFF3 
  37      0080
  38              		.align	2
  39              		.p2align 4,,15
  40              		.thumb
  41              		.thumb_func
  42              		.type	thread1, %function
  43              	thread1:
  44              	.LFB120:
  45              		.loc 1 83 0
  46              		.cfi_startproc
  47              		@ args = 0, pretend = 0, frame = 0
  48              		@ frame_needed = 0, uses_anonymous_args = 0
  49              	.LVL1:
  50              		.loc 1 83 0
  51 0000 08B5     		push	{r3, lr}
  52              		.cfi_def_cfa_offset 8
  53              		.cfi_offset 3, -8
  54              		.cfi_offset 14, -4
ARM GAS  /tmp/ccAgvOJM.s 			page 2


  55              		.loc 1 86 0
  56 0002 4FF4FA61 		mov	r1, #2000
  57 0006 0248     		ldr	r0, .L3
  58              	.LVL2:
  59 0008 FFF7FEFF 		bl	chIQGetTimeout
  60              	.LVL3:
  61              		.loc 1 88 0
  62 000c 0020     		movs	r0, #0
  63 000e 08BD     		pop	{r3, pc}
  64              	.L4:
  65              		.align	2
  66              	.L3:
  67 0010 00000000 		.word	.LANCHOR0
  68              		.cfi_endproc
  69              	.LFE120:
  70              		.size	thread1, .-thread1
  71 0014 AFF30080 		.section	.text.queues1_setup,"ax",%progbits
  71      AFF30080 
  71      AFF30080 
  72              		.align	2
  73              		.p2align 4,,15
  74              		.thumb
  75              		.thumb_func
  76              		.type	queues1_setup, %function
  77              	queues1_setup:
  78              	.LFB119:
  79              		.loc 1 78 0
  80              		.cfi_startproc
  81              		@ args = 0, pretend = 0, frame = 0
  82              		@ frame_needed = 0, uses_anonymous_args = 0
  83 0000 00B5     		push	{lr}
  84              		.cfi_def_cfa_offset 4
  85              		.cfi_offset 14, -4
  86              		.loc 1 80 0
  87 0002 064B     		ldr	r3, .L6
  88 0004 0648     		ldr	r0, .L6+4
  89 0006 1968     		ldr	r1, [r3]
  90 0008 064B     		ldr	r3, .L6+8
  91              		.loc 1 78 0
  92 000a 83B0     		sub	sp, sp, #12
  93              		.cfi_def_cfa_offset 16
  94              		.loc 1 80 0
  95 000c 0022     		movs	r2, #0
  96 000e 0092     		str	r2, [sp]
  97 0010 0422     		movs	r2, #4
  98 0012 FFF7FEFF 		bl	chIQInit
  99              	.LVL4:
 100              		.loc 1 81 0
 101 0016 03B0     		add	sp, sp, #12
 102              		@ sp needed
 103 0018 5DF804FB 		ldr	pc, [sp], #4
 104              	.L7:
 105              		.align	2
 106              	.L6:
 107 001c 00000000 		.word	wa
 108 0020 00000000 		.word	.LANCHOR0
 109 0024 00000000 		.word	notify
ARM GAS  /tmp/ccAgvOJM.s 			page 3


 110              		.cfi_endproc
 111              	.LFE119:
 112              		.size	queues1_setup, .-queues1_setup
 113 0028 AFF30080 		.section	.text.thread2,"ax",%progbits
 113      AFF30080 
 114              		.align	2
 115              		.p2align 4,,15
 116              		.thumb
 117              		.thumb_func
 118              		.type	thread2, %function
 119              	thread2:
 120              	.LFB123:
 121              		.loc 1 170 0
 122              		.cfi_startproc
 123              		@ args = 0, pretend = 0, frame = 0
 124              		@ frame_needed = 0, uses_anonymous_args = 0
 125              	.LVL5:
 126 0000 08B5     		push	{r3, lr}
 127              		.cfi_def_cfa_offset 8
 128              		.cfi_offset 3, -8
 129              		.cfi_offset 14, -4
 130              		.loc 1 173 0
 131 0002 0021     		movs	r1, #0
 132 0004 4FF4FA62 		mov	r2, #2000
 133 0008 0248     		ldr	r0, .L9
 134              	.LVL6:
 135 000a FFF7FEFF 		bl	chOQPutTimeout
 136              	.LVL7:
 137              		.loc 1 175 0
 138 000e 0020     		movs	r0, #0
 139 0010 08BD     		pop	{r3, pc}
 140              	.L10:
 141 0012 00BF     		.align	2
 142              	.L9:
 143 0014 00000000 		.word	.LANCHOR1
 144              		.cfi_endproc
 145              	.LFE123:
 146              		.size	thread2, .-thread2
 147 0018 AFF30080 		.section	.text.queues2_setup,"ax",%progbits
 147      AFF30080 
 148              		.align	2
 149              		.p2align 4,,15
 150              		.thumb
 151              		.thumb_func
 152              		.type	queues2_setup, %function
 153              	queues2_setup:
 154              	.LFB122:
 155              		.loc 1 165 0
 156              		.cfi_startproc
 157              		@ args = 0, pretend = 0, frame = 0
 158              		@ frame_needed = 0, uses_anonymous_args = 0
 159 0000 00B5     		push	{lr}
 160              		.cfi_def_cfa_offset 4
 161              		.cfi_offset 14, -4
 162              		.loc 1 167 0
 163 0002 064B     		ldr	r3, .L12
 164 0004 0648     		ldr	r0, .L12+4
ARM GAS  /tmp/ccAgvOJM.s 			page 4


 165 0006 1968     		ldr	r1, [r3]
 166 0008 064B     		ldr	r3, .L12+8
 167              		.loc 1 165 0
 168 000a 83B0     		sub	sp, sp, #12
 169              		.cfi_def_cfa_offset 16
 170              		.loc 1 167 0
 171 000c 0022     		movs	r2, #0
 172 000e 0092     		str	r2, [sp]
 173 0010 0422     		movs	r2, #4
 174 0012 FFF7FEFF 		bl	chOQInit
 175              	.LVL8:
 176              		.loc 1 168 0
 177 0016 03B0     		add	sp, sp, #12
 178              		@ sp needed
 179 0018 5DF804FB 		ldr	pc, [sp], #4
 180              	.L13:
 181              		.align	2
 182              	.L12:
 183 001c 00000000 		.word	wa
 184 0020 00000000 		.word	.LANCHOR1
 185 0024 00000000 		.word	notify
 186              		.cfi_endproc
 187              	.LFE122:
 188              		.size	queues2_setup, .-queues2_setup
 189 0028 AFF30080 		.section	.text.queues1_execute,"ax",%progbits
 189      AFF30080 
 190              		.align	2
 191              		.p2align 4,,15
 192              		.thumb
 193              		.thumb_func
 194              		.type	queues1_execute, %function
 195              	queues1_execute:
 196              	.LFB121:
 197              		.loc 1 90 0
 198              		.cfi_startproc
 199              		@ args = 0, pretend = 0, frame = 0
 200              		@ frame_needed = 0, uses_anonymous_args = 0
 201 0000 F0B5     		push	{r4, r5, r6, r7, lr}
 202              		.cfi_def_cfa_offset 20
 203              		.cfi_offset 4, -20
 204              		.cfi_offset 5, -16
 205              		.cfi_offset 6, -12
 206              		.cfi_offset 7, -8
 207              		.cfi_offset 14, -4
 208              	.LBB99:
 209              		.loc 1 95 0
 210 0002 4023     		movs	r3, #64
 211              	.LBE99:
 212              		.loc 1 90 0
 213 0004 83B0     		sub	sp, sp, #12
 214              		.cfi_def_cfa_offset 32
 215              	.LBB100:
 216              		.loc 1 95 0
 217              	@ 95 "../../test/testqueues.c" 1
 218 0006 83F31188 		msr     BASEPRI, r3
 219              	@ 0 "" 2
 220              		.thumb
ARM GAS  /tmp/ccAgvOJM.s 			page 5


 221              	.LBE100:
 222 000a 9A4B     		ldr	r3, .L41
 223 000c 9968     		ldr	r1, [r3, #8]
 224 000e D1F10101 		rsbs	r1, r1, #1
 225 0012 4FF00100 		mov	r0, #1
 226 0016 38BF     		it	cc
 227 0018 0021     		movcc	r1, #0
 228 001a FFF7FEFF 		bl	_test_assert
 229              	.LVL9:
 230 001e 0646     		mov	r6, r0
 231 0020 F8B9     		cbnz	r0, .L36
 232              	.LBB101:
 233              	.LBB102:
 234              	.LBB103:
 235 0022 0346     		mov	r3, r0
 236              	@ 95 "../../test/testqueues.c" 1
 237 0024 83F31188 		msr     BASEPRI, r3
 238              	@ 0 "" 2
 239              		.thumb
 240              	.LBE103:
 241              	.LBB104:
 242              		.loc 1 98 0
 243 0028 4023     		movs	r3, #64
 244              	@ 98 "../../test/testqueues.c" 1
 245 002a 83F31188 		msr     BASEPRI, r3
 246              	@ 0 "" 2
 247              	.LVL10:
 248              		.thumb
 249 002e 4124     		movs	r4, #65
 250              	.LVL11:
 251              	.L18:
 252              	.LBE104:
 253              		.loc 1 100 0
 254 0030 904D     		ldr	r5, .L41
 255 0032 2146     		mov	r1, r4
 256 0034 0134     		adds	r4, r4, #1
 257 0036 2846     		mov	r0, r5
 258 0038 E4B2     		uxtb	r4, r4
 259 003a FFF7FEFF 		bl	chIQPutI
 260              	.LVL12:
 261              		.loc 1 99 0
 262 003e 452C     		cmp	r4, #69
 263 0040 F6D1     		bne	.L18
 264              	.LBB105:
 265              		.loc 1 101 0
 266 0042 0023     		movs	r3, #0
 267              	@ 101 "../../test/testqueues.c" 1
 268 0044 83F31188 		msr     BASEPRI, r3
 269              	@ 0 "" 2
 270              		.thumb
 271              	.LBE105:
 272              	.LBB106:
 273              		.loc 1 102 0
 274 0048 4023     		movs	r3, #64
 275              	@ 102 "../../test/testqueues.c" 1
 276 004a 83F31188 		msr     BASEPRI, r3
 277              	@ 0 "" 2
ARM GAS  /tmp/ccAgvOJM.s 			page 6


 278              		.thumb
 279              	.LBE106:
 280 004e 6A69     		ldr	r2, [r5, #20]
 281 0050 AB69     		ldr	r3, [r5, #24]
 282 0052 9A42     		cmp	r2, r3
 283 0054 3FD0     		beq	.L40
 284              	.L19:
 285 0056 3146     		mov	r1, r6
 286 0058 0220     		movs	r0, #2
 287 005a FFF7FEFF 		bl	_test_assert
 288              	.LVL13:
 289 005e 0446     		mov	r4, r0
 290 0060 20B1     		cbz	r0, .L20
 291              	.L36:
 292              	.LBB107:
 293 0062 0023     		movs	r3, #0
 294              	@ 102 "../../test/testqueues.c" 1
 295 0064 83F31188 		msr     BASEPRI, r3
 296              	@ 0 "" 2
 297              		.thumb
 298              	.L14:
 299              	.LBE107:
 300              	.LBE102:
 301              	.LBE101:
 302              		.loc 1 147 0
 303 0068 03B0     		add	sp, sp, #12
 304              		@ sp needed
 305 006a F0BD     		pop	{r4, r5, r6, r7, pc}
 306              	.L20:
 307              	.LBB135:
 308              	.LBB132:
 309              	.LBB108:
 310              		.loc 1 102 0
 311 006c 0346     		mov	r3, r0
 312              	@ 102 "../../test/testqueues.c" 1
 313 006e 83F31188 		msr     BASEPRI, r3
 314              	@ 0 "" 2
 315              		.thumb
 316              	.LBE108:
 317              	.LBB109:
 318              		.loc 1 103 0
 319 0072 4023     		movs	r3, #64
 320              	@ 103 "../../test/testqueues.c" 1
 321 0074 83F31188 		msr     BASEPRI, r3
 322              	@ 0 "" 2
 323              		.thumb
 324              	.LBE109:
 325 0078 7E48     		ldr	r0, .L41
 326 007a 2146     		mov	r1, r4
 327 007c FFF7FEFF 		bl	chIQPutI
 328              	.LVL14:
 329 0080 0430     		adds	r0, r0, #4
 330 0082 14BF     		ite	ne
 331 0084 0021     		movne	r1, #0
 332 0086 0121     		moveq	r1, #1
 333 0088 0320     		movs	r0, #3
 334 008a FFF7FEFF 		bl	_test_assert
ARM GAS  /tmp/ccAgvOJM.s 			page 7


 335              	.LVL15:
 336 008e 00BB     		cbnz	r0, .L37
 337              	.LBB110:
 338 0090 0346     		mov	r3, r0
 339              	@ 103 "../../test/testqueues.c" 1
 340 0092 83F31188 		msr     BASEPRI, r3
 341              	@ 0 "" 2
 342              	.LVL16:
 343              		.thumb
 344 0096 0424     		movs	r4, #4
 345              	.LVL17:
 346              	.L23:
 347              	.LBE110:
 348              		.loc 1 107 0
 349 0098 764D     		ldr	r5, .L41
 350 009a 4FF0FF31 		mov	r1, #-1
 351 009e 2846     		mov	r0, r5
 352 00a0 FFF7FEFF 		bl	chIQGetTimeout
 353              	.LVL18:
 354 00a4 C0B2     		uxtb	r0, r0
 355 00a6 FFF7FEFF 		bl	test_emit_token
 356              	.LVL19:
 357              		.loc 1 106 0
 358 00aa 013C     		subs	r4, r4, #1
 359              	.LVL20:
 360 00ac F4D1     		bne	.L23
 361              	.LBB111:
 362              		.loc 1 108 0
 363 00ae 4023     		movs	r3, #64
 364              	@ 108 "../../test/testqueues.c" 1
 365 00b0 83F31188 		msr     BASEPRI, r3
 366              	@ 0 "" 2
 367              		.thumb
 368              	.LBE111:
 369 00b4 A968     		ldr	r1, [r5, #8]
 370 00b6 D1F10101 		rsbs	r1, r1, #1
 371 00ba 4FF00400 		mov	r0, #4
 372 00be 38BF     		it	cc
 373 00c0 0021     		movcc	r1, #0
 374 00c2 FFF7FEFF 		bl	_test_assert
 375              	.LVL21:
 376              	.LBB112:
 377 00c6 2346     		mov	r3, r4
 378              	.LBE112:
 379 00c8 50B1     		cbz	r0, .L24
 380              	.LVL22:
 381              	.L38:
 382              	.LBB113:
 383              		.loc 1 140 0
 384              	@ 140 "../../test/testqueues.c" 1
 385 00ca 83F31188 		msr     BASEPRI, r3
 386              	@ 0 "" 2
 387              		.thumb
 388              	.LBE113:
 389              	.LBE132:
 390              	.LBE135:
 391              		.loc 1 147 0
ARM GAS  /tmp/ccAgvOJM.s 			page 8


 392 00ce 03B0     		add	sp, sp, #12
 393              		@ sp needed
 394 00d0 F0BD     		pop	{r4, r5, r6, r7, pc}
 395              	.L37:
 396              	.LBB136:
 397              	.LBB133:
 398              	.LBB114:
 399              		.loc 1 140 0
 400 00d2 2346     		mov	r3, r4
 401 00d4 F9E7     		b	.L38
 402              	.L40:
 403              	.LBE114:
 404              		.loc 1 102 0
 405 00d6 AE68     		ldr	r6, [r5, #8]
 406 00d8 0036     		adds	r6, r6, #0
 407 00da 18BF     		it	ne
 408 00dc 0126     		movne	r6, #1
 409 00de BAE7     		b	.L19
 410              	.LVL23:
 411              	.L24:
 412              	.LBB115:
 413              		.loc 1 108 0
 414              	@ 108 "../../test/testqueues.c" 1
 415 00e0 83F31188 		msr     BASEPRI, r3
 416              	@ 0 "" 2
 417              		.thumb
 418              	.LBE115:
 419              		.loc 1 109 0
 420 00e4 0520     		movs	r0, #5
 421 00e6 6449     		ldr	r1, .L41+4
 422 00e8 FFF7FEFF 		bl	_test_assert_sequence
 423              	.LVL24:
 424 00ec 0028     		cmp	r0, #0
 425 00ee BBD1     		bne	.L14
 426              	.LBB116:
 427              		.loc 1 112 0
 428 00f0 4023     		movs	r3, #64
 429              	@ 112 "../../test/testqueues.c" 1
 430 00f2 83F31188 		msr     BASEPRI, r3
 431              	@ 0 "" 2
 432              	.LVL25:
 433              		.thumb
 434 00f6 4124     		movs	r4, #65
 435              	.LVL26:
 436              	.L27:
 437              	.LBE116:
 438              		.loc 1 114 0
 439 00f8 5E4D     		ldr	r5, .L41
 440 00fa 2146     		mov	r1, r4
 441 00fc 0134     		adds	r4, r4, #1
 442 00fe 2846     		mov	r0, r5
 443 0100 E4B2     		uxtb	r4, r4
 444 0102 FFF7FEFF 		bl	chIQPutI
 445              	.LVL27:
 446              		.loc 1 113 0
 447 0106 452C     		cmp	r4, #69
 448 0108 F6D1     		bne	.L27
ARM GAS  /tmp/ccAgvOJM.s 			page 9


 449              	.LBB117:
 450              		.loc 1 115 0
 451 010a 0023     		movs	r3, #0
 452              	@ 115 "../../test/testqueues.c" 1
 453 010c 83F31188 		msr     BASEPRI, r3
 454              	@ 0 "" 2
 455              		.thumb
 456              	.LBE117:
 457              		.loc 1 118 0
 458 0110 5A4E     		ldr	r6, .L41+8
 459 0112 0822     		movs	r2, #8
 460 0114 7168     		ldr	r1, [r6, #4]
 461 0116 2846     		mov	r0, r5
 462 0118 FFF7FEFF 		bl	chIQReadTimeout
 463              	.LVL28:
 464              		.loc 1 119 0
 465 011c 041F     		subs	r4, r0, #4
 466 011e 6142     		rsbs	r1, r4, #0
 467 0120 6141     		adcs	r1, r1, r4
 468 0122 0620     		movs	r0, #6
 469              	.LVL29:
 470 0124 FFF7FEFF 		bl	_test_assert
 471              	.LVL30:
 472 0128 0446     		mov	r4, r0
 473              	.LVL31:
 474 012a 0028     		cmp	r0, #0
 475 012c 9CD1     		bne	.L14
 476              	.LBB118:
 477              		.loc 1 120 0
 478 012e 4023     		movs	r3, #64
 479              	@ 120 "../../test/testqueues.c" 1
 480 0130 83F31188 		msr     BASEPRI, r3
 481              	@ 0 "" 2
 482              		.thumb
 483              	.LBE118:
 484 0134 A968     		ldr	r1, [r5, #8]
 485 0136 D1F10101 		rsbs	r1, r1, #1
 486 013a 38BF     		it	cc
 487 013c 0021     		movcc	r1, #0
 488 013e 0720     		movs	r0, #7
 489 0140 FFF7FEFF 		bl	_test_assert
 490              	.LVL32:
 491 0144 0028     		cmp	r0, #0
 492 0146 C4D1     		bne	.L37
 493              	.LBB119:
 494 0148 0346     		mov	r3, r0
 495              	@ 120 "../../test/testqueues.c" 1
 496 014a 83F31188 		msr     BASEPRI, r3
 497              	@ 0 "" 2
 498              		.thumb
 499              	.LBE119:
 500              	.LBB120:
 501              		.loc 1 123 0
 502 014e 4023     		movs	r3, #64
 503              	@ 123 "../../test/testqueues.c" 1
 504 0150 83F31188 		msr     BASEPRI, r3
 505              	@ 0 "" 2
ARM GAS  /tmp/ccAgvOJM.s 			page 10


 506              	.LVL33:
 507              		.thumb
 508 0154 4124     		movs	r4, #65
 509              	.LVL34:
 510              	.L31:
 511              	.LBE120:
 512              		.loc 1 125 0
 513 0156 474D     		ldr	r5, .L41
 514 0158 2146     		mov	r1, r4
 515 015a 0134     		adds	r4, r4, #1
 516 015c 2846     		mov	r0, r5
 517 015e E4B2     		uxtb	r4, r4
 518 0160 FFF7FEFF 		bl	chIQPutI
 519              	.LVL35:
 520              		.loc 1 124 0
 521 0164 452C     		cmp	r4, #69
 522 0166 F6D1     		bne	.L31
 523              	.LBB121:
 524              		.loc 1 126 0
 525 0168 0023     		movs	r3, #0
 526              	@ 126 "../../test/testqueues.c" 1
 527 016a 83F31188 		msr     BASEPRI, r3
 528              	@ 0 "" 2
 529              		.thumb
 530              	.LBE121:
 531              		.loc 1 129 0
 532 016e 7468     		ldr	r4, [r6, #4]
 533 0170 424F     		ldr	r7, .L41+8
 534 0172 2146     		mov	r1, r4
 535 0174 2846     		mov	r0, r5
 536 0176 0222     		movs	r2, #2
 537 0178 FFF7FEFF 		bl	chIQReadTimeout
 538              	.LVL36:
 539              		.loc 1 130 0
 540 017c 0238     		subs	r0, r0, #2
 541              	.LVL37:
 542 017e 4142     		rsbs	r1, r0, #0
 543 0180 4141     		adcs	r1, r1, r0
 544 0182 0820     		movs	r0, #8
 545              	.LVL38:
 546 0184 FFF7FEFF 		bl	_test_assert
 547              	.LVL39:
 548 0188 0028     		cmp	r0, #0
 549 018a 7FF46DAF 		bne	.L14
 550              		.loc 1 131 0
 551 018e 0346     		mov	r3, r0
 552 0190 2146     		mov	r1, r4
 553 0192 0222     		movs	r2, #2
 554 0194 2846     		mov	r0, r5
 555 0196 FFF7FEFF 		bl	chIQReadTimeout
 556              	.LVL40:
 557              		.loc 1 132 0
 558 019a 821E     		subs	r2, r0, #2
 559 019c 5142     		rsbs	r1, r2, #0
 560 019e 5141     		adcs	r1, r1, r2
 561 01a0 0920     		movs	r0, #9
 562              	.LVL41:
ARM GAS  /tmp/ccAgvOJM.s 			page 11


 563 01a2 FFF7FEFF 		bl	_test_assert
 564              	.LVL42:
 565 01a6 0646     		mov	r6, r0
 566 01a8 0028     		cmp	r0, #0
 567 01aa 7FF45DAF 		bne	.L14
 568              	.LBB122:
 569              		.loc 1 133 0
 570 01ae 4023     		movs	r3, #64
 571              	@ 133 "../../test/testqueues.c" 1
 572 01b0 83F31188 		msr     BASEPRI, r3
 573              	@ 0 "" 2
 574              		.thumb
 575              	.LBE122:
 576 01b4 A968     		ldr	r1, [r5, #8]
 577 01b6 D1F10101 		rsbs	r1, r1, #1
 578 01ba 4FF00A00 		mov	r0, #10
 579 01be 38BF     		it	cc
 580 01c0 0021     		movcc	r1, #0
 581 01c2 FFF7FEFF 		bl	_test_assert
 582              	.LVL43:
 583 01c6 0446     		mov	r4, r0
 584 01c8 18B1     		cbz	r0, .L32
 585              	.L35:
 586              	.LBB123:
 587              		.loc 1 142 0
 588 01ca 3346     		mov	r3, r6
 589              	@ 142 "../../test/testqueues.c" 1
 590 01cc 83F31188 		msr     BASEPRI, r3
 591              	@ 0 "" 2
 592              		.thumb
 593 01d0 4AE7     		b	.L14
 594              	.L32:
 595              	.LBE123:
 596              	.LBB124:
 597              		.loc 1 133 0
 598 01d2 0346     		mov	r3, r0
 599              	@ 133 "../../test/testqueues.c" 1
 600 01d4 83F31188 		msr     BASEPRI, r3
 601              	@ 0 "" 2
 602              		.thumb
 603              	.LBE124:
 604              	.LBB125:
 605              		.loc 1 136 0
 606 01d8 4023     		movs	r3, #64
 607              	@ 136 "../../test/testqueues.c" 1
 608 01da 83F31188 		msr     BASEPRI, r3
 609              	@ 0 "" 2
 610              		.thumb
 611              	.LBE125:
 612              		.loc 1 137 0
 613 01de 2146     		mov	r1, r4
 614 01e0 2846     		mov	r0, r5
 615 01e2 FFF7FEFF 		bl	chIQPutI
 616              	.LVL44:
 617              		.loc 1 138 0
 618 01e6 2846     		mov	r0, r5
 619 01e8 FFF7FEFF 		bl	chIQResetI
ARM GAS  /tmp/ccAgvOJM.s 			page 12


 620              	.LVL45:
 621              	.LBB126:
 622              		.loc 1 139 0
 623 01ec 2346     		mov	r3, r4
 624              	@ 139 "../../test/testqueues.c" 1
 625 01ee 83F31188 		msr     BASEPRI, r3
 626              	@ 0 "" 2
 627              		.thumb
 628              	.LBE126:
 629              	.LBB127:
 630              		.loc 1 140 0
 631 01f2 4023     		movs	r3, #64
 632              	@ 140 "../../test/testqueues.c" 1
 633 01f4 83F31188 		msr     BASEPRI, r3
 634              	@ 0 "" 2
 635              		.thumb
 636              	.LBE127:
 637 01f8 A968     		ldr	r1, [r5, #8]
 638 01fa D1F10101 		rsbs	r1, r1, #1
 639 01fe 4FF00B00 		mov	r0, #11
 640 0202 38BF     		it	cc
 641 0204 0021     		movcc	r1, #0
 642 0206 FFF7FEFF 		bl	_test_assert
 643              	.LVL46:
 644 020a 0646     		mov	r6, r0
 645 020c 0028     		cmp	r0, #0
 646 020e 7FF460AF 		bne	.L37
 647              	.LBB128:
 648 0212 0346     		mov	r3, r0
 649              	@ 140 "../../test/testqueues.c" 1
 650 0214 83F31188 		msr     BASEPRI, r3
 651              	@ 0 "" 2
 652              		.thumb
 653              	.LBE128:
 654              		.loc 1 141 0
 655 0218 194B     		ldr	r3, .L41+12
 656 021a 3868     		ldr	r0, [r7]
 657 021c 9A69     		ldr	r2, [r3, #24]
 658 021e 194B     		ldr	r3, .L41+16
 659 0220 9268     		ldr	r2, [r2, #8]
 660 0222 0096     		str	r6, [sp]
 661 0224 0132     		adds	r2, r2, #1
 662 0226 4FF4A871 		mov	r1, #336
 663 022a FFF7FEFF 		bl	chThdCreateStatic
 664              	.LVL47:
 665 022e 164A     		ldr	r2, .L41+20
 666              	.LBB129:
 667              		.loc 1 142 0
 668 0230 4023     		movs	r3, #64
 669              	.LBE129:
 670              		.loc 1 141 0
 671 0232 1060     		str	r0, [r2]
 672              	.LBB130:
 673              		.loc 1 142 0
 674              	@ 142 "../../test/testqueues.c" 1
 675 0234 83F31188 		msr     BASEPRI, r3
 676              	@ 0 "" 2
ARM GAS  /tmp/ccAgvOJM.s 			page 13


 677              		.thumb
 678              	.LBE130:
 679 0238 A968     		ldr	r1, [r5, #8]
 680 023a D1F10101 		rsbs	r1, r1, #1
 681 023e 4FF00C00 		mov	r0, #12
 682 0242 38BF     		it	cc
 683 0244 0021     		movcc	r1, #0
 684 0246 FFF7FEFF 		bl	_test_assert
 685              	.LVL48:
 686 024a 0346     		mov	r3, r0
 687 024c 0028     		cmp	r0, #0
 688 024e BCD1     		bne	.L35
 689              	.LBB131:
 690              	@ 142 "../../test/testqueues.c" 1
 691 0250 83F31188 		msr     BASEPRI, r3
 692              	@ 0 "" 2
 693              		.thumb
 694              	.LBE131:
 695              		.loc 1 143 0
 696 0254 FFF7FEFF 		bl	test_wait_threads
 697              	.LVL49:
 698              		.loc 1 146 0
 699 0258 2846     		mov	r0, r5
 700 025a 0A21     		movs	r1, #10
 701 025c FFF7FEFF 		bl	chIQGetTimeout
 702              	.LVL50:
 703 0260 B0F1FF33 		subs	r3, r0, #-1
 704 0264 5942     		rsbs	r1, r3, #0
 705 0266 5941     		adcs	r1, r1, r3
 706 0268 0D20     		movs	r0, #13
 707              	.LBE133:
 708              	.LBE136:
 709              		.loc 1 147 0
 710 026a 03B0     		add	sp, sp, #12
 711              		@ sp needed
 712 026c BDE8F040 		pop	{r4, r5, r6, r7, lr}
 713              	.LBB137:
 714              	.LBB134:
 715              		.loc 1 146 0
 716 0270 FFF7FEBF 		b	_test_assert
 717              	.LVL51:
 718              	.L42:
 719              		.align	2
 720              	.L41:
 721 0274 00000000 		.word	.LANCHOR0
 722 0278 00000000 		.word	.LC0
 723 027c 00000000 		.word	wa
 724 0280 00000000 		.word	rlist
 725 0284 00000000 		.word	thread1
 726 0288 00000000 		.word	threads
 727              	.LBE134:
 728              	.LBE137:
 729              		.cfi_endproc
 730              	.LFE121:
 731              		.size	queues1_execute, .-queues1_execute
 732 028c AFF30080 		.section	.text.queues2_execute,"ax",%progbits
 733              		.align	2
ARM GAS  /tmp/ccAgvOJM.s 			page 14


 734              		.p2align 4,,15
 735              		.thumb
 736              		.thumb_func
 737              		.type	queues2_execute, %function
 738              	queues2_execute:
 739              	.LFB124:
 740              		.loc 1 177 0
 741              		.cfi_startproc
 742              		@ args = 0, pretend = 0, frame = 0
 743              		@ frame_needed = 0, uses_anonymous_args = 0
 744 0000 2DE9F041 		push	{r4, r5, r6, r7, r8, lr}
 745              		.cfi_def_cfa_offset 24
 746              		.cfi_offset 4, -24
 747              		.cfi_offset 5, -20
 748              		.cfi_offset 6, -16
 749              		.cfi_offset 7, -12
 750              		.cfi_offset 8, -8
 751              		.cfi_offset 14, -4
 752              	.LBB171:
 753              		.loc 1 182 0
 754 0004 4023     		movs	r3, #64
 755              	.LBE171:
 756              		.loc 1 177 0
 757 0006 82B0     		sub	sp, sp, #8
 758              		.cfi_def_cfa_offset 32
 759              	.LBB172:
 760              		.loc 1 182 0
 761              	@ 182 "../../test/testqueues.c" 1
 762 0008 83F31188 		msr     BASEPRI, r3
 763              	@ 0 "" 2
 764              		.thumb
 765              	.LBE172:
 766 000c 924B     		ldr	r3, .L66
 767 000e 5969     		ldr	r1, [r3, #20]
 768 0010 9A69     		ldr	r2, [r3, #24]
 769 0012 9142     		cmp	r1, r2
 770 0014 64D0     		beq	.L64
 771 0016 0021     		movs	r1, #0
 772              	.L44:
 773              		.loc 1 182 0 is_stmt 0 discriminator 4
 774 0018 0120     		movs	r0, #1
 775 001a FFF7FEFF 		bl	_test_assert
 776              	.LVL52:
 777 001e 0028     		cmp	r0, #0
 778 0020 3BD1     		bne	.L63
 779              	.LBB173:
 780              	.LBB174:
 781              	.LBB175:
 782              		.loc 1 182 0
 783 0022 0346     		mov	r3, r0
 784              	@ 182 "../../test/testqueues.c" 1
 785 0024 83F31188 		msr     BASEPRI, r3
 786              	@ 0 "" 2
 787              	.LVL53:
 788              		.thumb
 789 0028 4124     		movs	r4, #65
 790              	.LVL54:
ARM GAS  /tmp/ccAgvOJM.s 			page 15


 791              	.L48:
 792              	.LBE175:
 793              		.loc 1 186 0 is_stmt 1
 794 002a 8B4D     		ldr	r5, .L66
 795 002c 2146     		mov	r1, r4
 796 002e 0134     		adds	r4, r4, #1
 797 0030 2846     		mov	r0, r5
 798 0032 4FF0FF32 		mov	r2, #-1
 799 0036 E4B2     		uxtb	r4, r4
 800 0038 FFF7FEFF 		bl	chOQPutTimeout
 801              	.LVL55:
 802              		.loc 1 185 0
 803 003c 452C     		cmp	r4, #69
 804 003e F4D1     		bne	.L48
 805              	.LBB176:
 806              		.loc 1 187 0
 807 0040 4023     		movs	r3, #64
 808              	@ 187 "../../test/testqueues.c" 1
 809 0042 83F31188 		msr     BASEPRI, r3
 810              	@ 0 "" 2
 811              		.thumb
 812              	.LBE176:
 813 0046 A968     		ldr	r1, [r5, #8]
 814 0048 D1F10101 		rsbs	r1, r1, #1
 815 004c 4FF00200 		mov	r0, #2
 816 0050 38BF     		it	cc
 817 0052 0021     		movcc	r1, #0
 818 0054 FFF7FEFF 		bl	_test_assert
 819              	.LVL56:
 820 0058 0646     		mov	r6, r0
 821 005a F0B9     		cbnz	r0, .L63
 822              	.LBB177:
 823 005c 0346     		mov	r3, r0
 824              	@ 187 "../../test/testqueues.c" 1
 825 005e 83F31188 		msr     BASEPRI, r3
 826              	@ 0 "" 2
 827              	.LVL57:
 828              		.thumb
 829 0062 0424     		movs	r4, #4
 830              	.LVL58:
 831              	.L51:
 832              	.LBE177:
 833              	.LBB178:
 834              	.LBB179:
 835              		.loc 1 193 0
 836 0064 4023     		movs	r3, #64
 837              	@ 193 "../../test/testqueues.c" 1
 838 0066 83F31188 		msr     BASEPRI, r3
 839              	@ 0 "" 2
 840              		.thumb
 841              	.LBE179:
 842              		.loc 1 194 0
 843 006a 7B4D     		ldr	r5, .L66
 844 006c 2846     		mov	r0, r5
 845 006e FFF7FEFF 		bl	chOQGetI
 846              	.LVL59:
 847              	.LBB180:
ARM GAS  /tmp/ccAgvOJM.s 			page 16


 848              		.loc 1 195 0
 849 0072 0023     		movs	r3, #0
 850              	@ 195 "../../test/testqueues.c" 1
 851 0074 83F31188 		msr     BASEPRI, r3
 852              	@ 0 "" 2
 853              		.thumb
 854              	.LBE180:
 855              		.loc 1 196 0
 856 0078 C0B2     		uxtb	r0, r0
 857              	.LVL60:
 858 007a FFF7FEFF 		bl	test_emit_token
 859              	.LVL61:
 860              	.LBE178:
 861              		.loc 1 190 0
 862 007e 013C     		subs	r4, r4, #1
 863              	.LVL62:
 864 0080 F0D1     		bne	.L51
 865              	.LBB181:
 866              		.loc 1 198 0
 867 0082 4023     		movs	r3, #64
 868              	@ 198 "../../test/testqueues.c" 1
 869 0084 83F31188 		msr     BASEPRI, r3
 870              	@ 0 "" 2
 871              		.thumb
 872              	.LBE181:
 873 0088 6A69     		ldr	r2, [r5, #20]
 874 008a AB69     		ldr	r3, [r5, #24]
 875 008c 9A42     		cmp	r2, r3
 876 008e 2CD0     		beq	.L65
 877              	.L52:
 878 0090 3146     		mov	r1, r6
 879 0092 0320     		movs	r0, #3
 880 0094 FFF7FEFF 		bl	_test_assert
 881              	.LVL63:
 882 0098 28B1     		cbz	r0, .L53
 883              	.LVL64:
 884              	.L63:
 885              	.LBB182:
 886 009a 0023     		movs	r3, #0
 887              	@ 198 "../../test/testqueues.c" 1
 888 009c 83F31188 		msr     BASEPRI, r3
 889              	@ 0 "" 2
 890              		.thumb
 891              	.L43:
 892              	.LBE182:
 893              	.LBE174:
 894              	.LBE173:
 895              		.loc 1 225 0
 896 00a0 02B0     		add	sp, sp, #8
 897              		@ sp needed
 898 00a2 BDE8F081 		pop	{r4, r5, r6, r7, r8, pc}
 899              	.LVL65:
 900              	.L53:
 901              	.LBB206:
 902              	.LBB203:
 903              	.LBB183:
 904              		.loc 1 198 0
ARM GAS  /tmp/ccAgvOJM.s 			page 17


 905 00a6 0346     		mov	r3, r0
 906              	@ 198 "../../test/testqueues.c" 1
 907 00a8 83F31188 		msr     BASEPRI, r3
 908              	@ 0 "" 2
 909              		.thumb
 910              	.LBE183:
 911              		.loc 1 199 0
 912 00ac 0420     		movs	r0, #4
 913 00ae 6B49     		ldr	r1, .L66+4
 914 00b0 FFF7FEFF 		bl	_test_assert_sequence
 915              	.LVL66:
 916 00b4 0446     		mov	r4, r0
 917              	.LVL67:
 918 00b6 0028     		cmp	r0, #0
 919 00b8 F2D1     		bne	.L43
 920              	.LBB184:
 921              		.loc 1 200 0
 922 00ba 4023     		movs	r3, #64
 923              	@ 200 "../../test/testqueues.c" 1
 924 00bc 83F31188 		msr     BASEPRI, r3
 925              	@ 0 "" 2
 926              		.thumb
 927              	.LBE184:
 928 00c0 654D     		ldr	r5, .L66
 929 00c2 2846     		mov	r0, r5
 930 00c4 FFF7FEFF 		bl	chOQGetI
 931              	.LVL68:
 932 00c8 0330     		adds	r0, r0, #3
 933 00ca 14BF     		ite	ne
 934 00cc 0021     		movne	r1, #0
 935 00ce 0121     		moveq	r1, #1
 936 00d0 0520     		movs	r0, #5
 937 00d2 FFF7FEFF 		bl	_test_assert
 938              	.LVL69:
 939 00d6 68B1     		cbz	r0, .L55
 940              	.LBB185:
 941 00d8 2346     		mov	r3, r4
 942              	@ 200 "../../test/testqueues.c" 1
 943 00da 83F31188 		msr     BASEPRI, r3
 944              	@ 0 "" 2
 945              		.thumb
 946 00de DFE7     		b	.L43
 947              	.L64:
 948              	.LBE185:
 949              	.LBE203:
 950              	.LBE206:
 951              		.loc 1 182 0 discriminator 1
 952 00e0 9968     		ldr	r1, [r3, #8]
 953 00e2 0031     		adds	r1, r1, #0
 954 00e4 18BF     		it	ne
 955 00e6 0121     		movne	r1, #1
 956 00e8 96E7     		b	.L44
 957              	.LVL70:
 958              	.L65:
 959              	.LBB207:
 960              	.LBB204:
 961              		.loc 1 198 0
ARM GAS  /tmp/ccAgvOJM.s 			page 18


 962 00ea AE68     		ldr	r6, [r5, #8]
 963 00ec 0036     		adds	r6, r6, #0
 964 00ee 18BF     		it	ne
 965 00f0 0126     		movne	r6, #1
 966 00f2 CDE7     		b	.L52
 967              	.LVL71:
 968              	.L55:
 969              	.LBB186:
 970              		.loc 1 200 0
 971 00f4 0346     		mov	r3, r0
 972              	@ 200 "../../test/testqueues.c" 1
 973 00f6 83F31188 		msr     BASEPRI, r3
 974              	@ 0 "" 2
 975              		.thumb
 976              	.LBE186:
 977              		.loc 1 203 0
 978 00fa 594E     		ldr	r6, .L66+8
 979 00fc 7468     		ldr	r4, [r6, #4]
 980 00fe 0822     		movs	r2, #8
 981 0100 2146     		mov	r1, r4
 982 0102 2846     		mov	r0, r5
 983 0104 FFF7FEFF 		bl	chOQWriteTimeout
 984              	.LVL72:
 985              		.loc 1 204 0
 986 0108 B0F1040C 		subs	ip, r0, #4
 987 010c DCF10001 		rsbs	r1, ip, #0
 988 0110 51EB0C01 		adcs	r1, r1, ip
 989 0114 0620     		movs	r0, #6
 990              	.LVL73:
 991 0116 FFF7FEFF 		bl	_test_assert
 992              	.LVL74:
 993 011a 0746     		mov	r7, r0
 994 011c 0028     		cmp	r0, #0
 995 011e BFD1     		bne	.L43
 996              	.LBB187:
 997              		.loc 1 205 0
 998 0120 4023     		movs	r3, #64
 999              	@ 205 "../../test/testqueues.c" 1
 1000 0122 83F31188 		msr     BASEPRI, r3
 1001              	@ 0 "" 2
 1002              		.thumb
 1003              	.LBE187:
 1004 0126 A968     		ldr	r1, [r5, #8]
 1005 0128 D1F10101 		rsbs	r1, r1, #1
 1006 012c 4FF00700 		mov	r0, #7
 1007 0130 38BF     		it	cc
 1008 0132 0021     		movcc	r1, #0
 1009 0134 FFF7FEFF 		bl	_test_assert
 1010              	.LVL75:
 1011 0138 8046     		mov	r8, r0
 1012 013a 18B1     		cbz	r0, .L57
 1013              	.LBB188:
 1014 013c 3B46     		mov	r3, r7
 1015              	@ 205 "../../test/testqueues.c" 1
 1016 013e 83F31188 		msr     BASEPRI, r3
 1017              	@ 0 "" 2
 1018              		.thumb
ARM GAS  /tmp/ccAgvOJM.s 			page 19


 1019 0142 ADE7     		b	.L43
 1020              	.L57:
 1021              	.LBE188:
 1022              	.LBB189:
 1023 0144 0346     		mov	r3, r0
 1024              	@ 205 "../../test/testqueues.c" 1
 1025 0146 83F31188 		msr     BASEPRI, r3
 1026              	@ 0 "" 2
 1027              		.thumb
 1028              	.LBE189:
 1029              		.loc 1 206 0
 1030 014a 464B     		ldr	r3, .L66+12
 1031 014c 3068     		ldr	r0, [r6]
 1032 014e 9A69     		ldr	r2, [r3, #24]
 1033 0150 454B     		ldr	r3, .L66+16
 1034 0152 9268     		ldr	r2, [r2, #8]
 1035 0154 CDF80080 		str	r8, [sp]
 1036 0158 0132     		adds	r2, r2, #1
 1037 015a 4FF4A871 		mov	r1, #336
 1038 015e FFF7FEFF 		bl	chThdCreateStatic
 1039              	.LVL76:
 1040 0162 424A     		ldr	r2, .L66+20
 1041              	.LBB190:
 1042              		.loc 1 207 0
 1043 0164 4023     		movs	r3, #64
 1044              	.LBE190:
 1045              		.loc 1 206 0
 1046 0166 1060     		str	r0, [r2]
 1047              	.LBB191:
 1048              		.loc 1 207 0
 1049              	@ 207 "../../test/testqueues.c" 1
 1050 0168 83F31188 		msr     BASEPRI, r3
 1051              	@ 0 "" 2
 1052              		.thumb
 1053              	.LBE191:
 1054 016c 2969     		ldr	r1, [r5, #16]
 1055 016e EA68     		ldr	r2, [r5, #12]
 1056 0170 AB68     		ldr	r3, [r5, #8]
 1057 0172 8A1A     		subs	r2, r1, r2
 1058 0174 D11A     		subs	r1, r2, r3
 1059 0176 B1F1040E 		subs	lr, r1, #4
 1060 017a DEF10001 		rsbs	r1, lr, #0
 1061 017e 51EB0E01 		adcs	r1, r1, lr
 1062 0182 0820     		movs	r0, #8
 1063 0184 FFF7FEFF 		bl	_test_assert
 1064              	.LVL77:
 1065 0188 0646     		mov	r6, r0
 1066 018a 18B1     		cbz	r0, .L58
 1067              	.LBB192:
 1068 018c 4346     		mov	r3, r8
 1069              	@ 207 "../../test/testqueues.c" 1
 1070 018e 83F31188 		msr     BASEPRI, r3
 1071              	@ 0 "" 2
 1072              		.thumb
 1073 0192 85E7     		b	.L43
 1074              	.L58:
 1075              	.LBE192:
ARM GAS  /tmp/ccAgvOJM.s 			page 20


 1076              	.LBB193:
 1077 0194 0346     		mov	r3, r0
 1078              	@ 207 "../../test/testqueues.c" 1
 1079 0196 83F31188 		msr     BASEPRI, r3
 1080              	@ 0 "" 2
 1081              		.thumb
 1082              	.LBE193:
 1083              		.loc 1 208 0
 1084 019a FFF7FEFF 		bl	test_wait_threads
 1085              	.LVL78:
 1086              	.LBB194:
 1087              		.loc 1 211 0
 1088 019e 4023     		movs	r3, #64
 1089              	@ 211 "../../test/testqueues.c" 1
 1090 01a0 83F31188 		msr     BASEPRI, r3
 1091              	@ 0 "" 2
 1092              		.thumb
 1093              	.LBE194:
 1094              		.loc 1 212 0
 1095 01a4 2846     		mov	r0, r5
 1096 01a6 FFF7FEFF 		bl	chOQResetI
 1097              	.LVL79:
 1098              	.LBB195:
 1099              		.loc 1 213 0
 1100 01aa 3346     		mov	r3, r6
 1101              	@ 213 "../../test/testqueues.c" 1
 1102 01ac 83F31188 		msr     BASEPRI, r3
 1103              	@ 0 "" 2
 1104              		.thumb
 1105              	.LBE195:
 1106              	.LBB196:
 1107              		.loc 1 214 0
 1108 01b0 4023     		movs	r3, #64
 1109              	@ 214 "../../test/testqueues.c" 1
 1110 01b2 83F31188 		msr     BASEPRI, r3
 1111              	@ 0 "" 2
 1112              		.thumb
 1113              	.LBE196:
 1114 01b6 2969     		ldr	r1, [r5, #16]
 1115 01b8 EA68     		ldr	r2, [r5, #12]
 1116 01ba AB68     		ldr	r3, [r5, #8]
 1117 01bc 891A     		subs	r1, r1, r2
 1118 01be CF1A     		subs	r7, r1, r3
 1119 01c0 7942     		rsbs	r1, r7, #0
 1120 01c2 7941     		adcs	r1, r1, r7
 1121 01c4 0920     		movs	r0, #9
 1122 01c6 FFF7FEFF 		bl	_test_assert
 1123              	.LVL80:
 1124 01ca 0346     		mov	r3, r0
 1125 01cc 18B1     		cbz	r0, .L59
 1126              	.LBB197:
 1127 01ce 3346     		mov	r3, r6
 1128              	@ 214 "../../test/testqueues.c" 1
 1129 01d0 83F31188 		msr     BASEPRI, r3
 1130              	@ 0 "" 2
 1131              		.thumb
 1132 01d4 64E7     		b	.L43
ARM GAS  /tmp/ccAgvOJM.s 			page 21


 1133              	.L59:
 1134              	.LBE197:
 1135              	.LBB198:
 1136              	@ 214 "../../test/testqueues.c" 1
 1137 01d6 83F31188 		msr     BASEPRI, r3
 1138              	@ 0 "" 2
 1139              		.thumb
 1140              	.LBE198:
 1141              		.loc 1 217 0
 1142 01da 0222     		movs	r2, #2
 1143 01dc 2146     		mov	r1, r4
 1144 01de 2846     		mov	r0, r5
 1145 01e0 FFF7FEFF 		bl	chOQWriteTimeout
 1146              	.LVL81:
 1147              		.loc 1 218 0
 1148 01e4 0238     		subs	r0, r0, #2
 1149              	.LVL82:
 1150 01e6 4142     		rsbs	r1, r0, #0
 1151 01e8 4141     		adcs	r1, r1, r0
 1152 01ea 0A20     		movs	r0, #10
 1153              	.LVL83:
 1154 01ec FFF7FEFF 		bl	_test_assert
 1155              	.LVL84:
 1156 01f0 0346     		mov	r3, r0
 1157 01f2 0028     		cmp	r0, #0
 1158 01f4 7FF454AF 		bne	.L43
 1159              		.loc 1 219 0
 1160 01f8 2146     		mov	r1, r4
 1161 01fa 0222     		movs	r2, #2
 1162 01fc 2846     		mov	r0, r5
 1163 01fe FFF7FEFF 		bl	chOQWriteTimeout
 1164              	.LVL85:
 1165              		.loc 1 220 0
 1166 0202 821E     		subs	r2, r0, #2
 1167 0204 5142     		rsbs	r1, r2, #0
 1168 0206 5141     		adcs	r1, r1, r2
 1169 0208 0B20     		movs	r0, #11
 1170              	.LVL86:
 1171 020a FFF7FEFF 		bl	_test_assert
 1172              	.LVL87:
 1173 020e 0028     		cmp	r0, #0
 1174 0210 7FF446AF 		bne	.L43
 1175              	.LBB199:
 1176              		.loc 1 221 0
 1177 0214 4023     		movs	r3, #64
 1178              	@ 221 "../../test/testqueues.c" 1
 1179 0216 83F31188 		msr     BASEPRI, r3
 1180              	@ 0 "" 2
 1181              		.thumb
 1182              	.LBE199:
 1183 021a A968     		ldr	r1, [r5, #8]
 1184 021c D1F10101 		rsbs	r1, r1, #1
 1185 0220 4FF00C00 		mov	r0, #12
 1186 0224 38BF     		it	cc
 1187 0226 0021     		movcc	r1, #0
 1188 0228 FFF7FEFF 		bl	_test_assert
 1189              	.LVL88:
ARM GAS  /tmp/ccAgvOJM.s 			page 22


 1190              	.LBB200:
 1191 022c 0023     		movs	r3, #0
 1192              	.LBE200:
 1193 022e 10B1     		cbz	r0, .L60
 1194              	.LBB201:
 1195              	@ 221 "../../test/testqueues.c" 1
 1196 0230 83F31188 		msr     BASEPRI, r3
 1197              	@ 0 "" 2
 1198              		.thumb
 1199 0234 34E7     		b	.L43
 1200              	.L60:
 1201              	.LBE201:
 1202              	.LBB202:
 1203              	@ 221 "../../test/testqueues.c" 1
 1204 0236 83F31188 		msr     BASEPRI, r3
 1205              	@ 0 "" 2
 1206              		.thumb
 1207              	.LBE202:
 1208              		.loc 1 224 0
 1209 023a 0A22     		movs	r2, #10
 1210 023c 1946     		mov	r1, r3
 1211 023e 0648     		ldr	r0, .L66
 1212 0240 FFF7FEFF 		bl	chOQPutTimeout
 1213              	.LVL89:
 1214 0244 B0F1FF33 		subs	r3, r0, #-1
 1215 0248 5942     		rsbs	r1, r3, #0
 1216 024a 5941     		adcs	r1, r1, r3
 1217 024c 0D20     		movs	r0, #13
 1218              	.LBE204:
 1219              	.LBE207:
 1220              		.loc 1 225 0
 1221 024e 02B0     		add	sp, sp, #8
 1222              		@ sp needed
 1223 0250 BDE8F041 		pop	{r4, r5, r6, r7, r8, lr}
 1224              	.LBB208:
 1225              	.LBB205:
 1226              		.loc 1 224 0
 1227 0254 FFF7FEBF 		b	_test_assert
 1228              	.LVL90:
 1229              	.L67:
 1230              		.align	2
 1231              	.L66:
 1232 0258 00000000 		.word	.LANCHOR1
 1233 025c 00000000 		.word	.LC0
 1234 0260 00000000 		.word	wa
 1235 0264 00000000 		.word	rlist
 1236 0268 00000000 		.word	thread2
 1237 026c 00000000 		.word	threads
 1238              	.LBE205:
 1239              	.LBE208:
 1240              		.cfi_endproc
 1241              	.LFE124:
 1242              		.size	queues2_execute, .-queues2_execute
 1243              		.global	patternqueues
 1244              		.global	testqueues2
 1245              		.global	testqueues1
 1246              		.section	.rodata.testqueues1,"a",%progbits
ARM GAS  /tmp/ccAgvOJM.s 			page 23


 1247              		.align	2
 1248              		.type	testqueues1, %object
 1249              		.size	testqueues1, 16
 1250              	testqueues1:
 1251 0000 20000000 		.word	.LC2
 1252 0004 00000000 		.word	queues1_setup
 1253 0008 00000000 		.word	0
 1254 000c 00000000 		.word	queues1_execute
 1255              		.section	.rodata.testqueues2,"a",%progbits
 1256              		.align	2
 1257              		.type	testqueues2, %object
 1258              		.size	testqueues2, 16
 1259              	testqueues2:
 1260 0000 08000000 		.word	.LC1
 1261 0004 00000000 		.word	queues2_setup
 1262 0008 00000000 		.word	0
 1263 000c 00000000 		.word	queues2_execute
 1264              		.section	.rodata.str1.4,"aMS",%progbits,1
 1265              		.align	2
 1266              	.LC0:
 1267 0000 41424344 		.ascii	"ABCD\000"
 1267      00
 1268 0005 000000   		.space	3
 1269              	.LC1:
 1270 0008 51756575 		.ascii	"Queues, output queues\000"
 1270      65732C20 
 1270      6F757470 
 1270      75742071 
 1270      75657565 
 1271 001e 0000     		.space	2
 1272              	.LC2:
 1273 0020 51756575 		.ascii	"Queues, input queues\000"
 1273      65732C20 
 1273      696E7075 
 1273      74207175 
 1273      65756573 
 1274 0035 000000   		.section	.rodata.patternqueues,"a",%progbits
 1275              		.align	2
 1276              		.type	patternqueues, %object
 1277              		.size	patternqueues, 12
 1278              	patternqueues:
 1279 0000 00000000 		.word	testqueues1
 1280 0004 00000000 		.word	testqueues2
 1281 0008 00000000 		.word	0
 1282              		.section	.data.oq,"aw",%progbits
 1283              		.align	2
 1284              		.set	.LANCHOR1,. + 0
 1285              		.type	oq, %object
 1286              		.size	oq, 36
 1287              	oq:
 1288 0000 00000000 		.word	oq
 1289 0004 00000000 		.word	oq
 1290 0008 04000000 		.word	4
 1291 000c 50010000 		.word	test+336
 1292 0010 54010000 		.word	test+340
 1293 0014 50010000 		.word	test+336
 1294 0018 50010000 		.word	test+336
ARM GAS  /tmp/ccAgvOJM.s 			page 24


 1295 001c 00000000 		.word	notify
 1296 0020 00000000 		.word	0
 1297              		.section	.data.iq,"aw",%progbits
 1298              		.align	2
 1299              		.set	.LANCHOR0,. + 0
 1300              		.type	iq, %object
 1301              		.size	iq, 36
 1302              	iq:
 1303 0000 00000000 		.word	iq
 1304 0004 00000000 		.word	iq
 1305 0008 00000000 		.word	0
 1306 000c 00000000 		.word	test
 1307 0010 04000000 		.word	test+4
 1308 0014 00000000 		.word	test
 1309 0018 00000000 		.word	test
 1310 001c 00000000 		.word	notify
 1311 0020 00000000 		.word	0
 1312              		.text
 1313              	.Letext0:
 1314              		.file 2 "/usr/lib/gcc/arm-none-eabi/4.8/include/stddef.h"
 1315              		.file 3 "/usr/include/newlib/machine/_default_types.h"
 1316              		.file 4 "/usr/include/newlib/stdint.h"
 1317              		.file 5 "../../os/ports/GCC/ARMCMx/chtypes.h"
 1318              		.file 6 "../../os/kernel/include/chlists.h"
 1319              		.file 7 "../../os/kernel/include/chthreads.h"
 1320              		.file 8 "../../os/ports/GCC/ARMCMx/chcore_v7m.h"
 1321              		.file 9 "../../os/kernel/include/chschd.h"
 1322              		.file 10 "../../os/kernel/include/chmtx.h"
 1323              		.file 11 "../../os/kernel/include/chqueues.h"
 1324              		.file 12 "../../test/test.h"
 1325              		.file 13 "../../os/ports/common/ARMCMx/CMSIS/include/core_cm4.h"