ARM GAS  /tmp/cc7GtYXw.s 			page 1


   1              		.syntax unified
   2              		.cpu cortex-m4
   3              		.fpu softvfp
   4              		.eabi_attribute 20, 1
   5              		.eabi_attribute 21, 1
   6              		.eabi_attribute 23, 3
   7              		.eabi_attribute 24, 1
   8              		.eabi_attribute 25, 1
   9              		.eabi_attribute 26, 1
  10              		.eabi_attribute 30, 2
  11              		.eabi_attribute 34, 1
  12              		.eabi_attribute 18, 4
  13              		.thumb
  14              		.file	"testthd.c"
  15              		.text
  16              	.Ltext0:
  17              		.cfi_sections	.debug_frame
  18              		.section	.text.thd1_execute,"ax",%progbits
  19              		.align	2
  20              		.p2align 4,,15
  21              		.thumb
  22              		.thumb_func
  23              		.type	thd1_execute, %function
  24              	thd1_execute:
  25              	.LFB119:
  26              		.file 1 "../../test/testthd.c"
  27              		.loc 1 66 0
  28              		.cfi_startproc
  29              		@ args = 0, pretend = 0, frame = 0
  30              		@ frame_needed = 0, uses_anonymous_args = 0
  31 0000 F0B5     		push	{r4, r5, r6, r7, lr}
  32              		.cfi_def_cfa_offset 20
  33              		.cfi_offset 4, -20
  34              		.cfi_offset 5, -16
  35              		.cfi_offset 6, -12
  36              		.cfi_offset 7, -8
  37              		.cfi_offset 14, -4
  38              		.loc 1 68 0
  39 0002 274F     		ldr	r7, .L2
  40 0004 274E     		ldr	r6, .L2+4
  41 0006 BB69     		ldr	r3, [r7, #24]
  42 0008 274D     		ldr	r5, .L2+8
  43 000a 9A68     		ldr	r2, [r3, #8]
  44 000c 274B     		ldr	r3, .L2+12
  45 000e 3068     		ldr	r0, [r6]
  46 0010 274C     		ldr	r4, .L2+16
  47              		.loc 1 66 0
  48 0012 83B0     		sub	sp, sp, #12
  49              		.cfi_def_cfa_offset 32
  50              		.loc 1 68 0
  51 0014 053A     		subs	r2, r2, #5
  52 0016 0093     		str	r3, [sp]
  53 0018 4FF4A871 		mov	r1, #336
  54 001c 2B46     		mov	r3, r5
  55 001e FFF7FEFF 		bl	chThdCreateStatic
  56              	.LVL0:
  57              		.loc 1 69 0
ARM GAS  /tmp/cc7GtYXw.s 			page 2


  58 0022 BB69     		ldr	r3, [r7, #24]
  59 0024 2349     		ldr	r1, .L2+20
  60 0026 9A68     		ldr	r2, [r3, #8]
  61 0028 7368     		ldr	r3, [r6, #4]
  62              		.loc 1 68 0
  63 002a 2060     		str	r0, [r4]
  64              		.loc 1 69 0
  65 002c 0091     		str	r1, [sp]
  66 002e 043A     		subs	r2, r2, #4
  67 0030 1846     		mov	r0, r3
  68 0032 4FF4A871 		mov	r1, #336
  69 0036 2B46     		mov	r3, r5
  70 0038 FFF7FEFF 		bl	chThdCreateStatic
  71              	.LVL1:
  72              		.loc 1 70 0
  73 003c BA69     		ldr	r2, [r7, #24]
  74 003e B368     		ldr	r3, [r6, #8]
  75 0040 9268     		ldr	r2, [r2, #8]
  76 0042 1D49     		ldr	r1, .L2+24
  77              		.loc 1 69 0
  78 0044 6060     		str	r0, [r4, #4]
  79              		.loc 1 70 0
  80 0046 0091     		str	r1, [sp]
  81 0048 033A     		subs	r2, r2, #3
  82 004a 1846     		mov	r0, r3
  83 004c 4FF4A871 		mov	r1, #336
  84 0050 2B46     		mov	r3, r5
  85 0052 FFF7FEFF 		bl	chThdCreateStatic
  86              	.LVL2:
  87              		.loc 1 71 0
  88 0056 BA69     		ldr	r2, [r7, #24]
  89 0058 F368     		ldr	r3, [r6, #12]
  90 005a 9268     		ldr	r2, [r2, #8]
  91 005c 1749     		ldr	r1, .L2+28
  92              		.loc 1 70 0
  93 005e A060     		str	r0, [r4, #8]
  94              		.loc 1 71 0
  95 0060 0091     		str	r1, [sp]
  96 0062 023A     		subs	r2, r2, #2
  97 0064 1846     		mov	r0, r3
  98 0066 4FF4A871 		mov	r1, #336
  99 006a 2B46     		mov	r3, r5
 100 006c FFF7FEFF 		bl	chThdCreateStatic
 101              	.LVL3:
 102              		.loc 1 72 0
 103 0070 BA69     		ldr	r2, [r7, #24]
 104 0072 3369     		ldr	r3, [r6, #16]
 105 0074 9268     		ldr	r2, [r2, #8]
 106 0076 1249     		ldr	r1, .L2+32
 107              		.loc 1 71 0
 108 0078 E060     		str	r0, [r4, #12]
 109              		.loc 1 72 0
 110 007a 013A     		subs	r2, r2, #1
 111 007c 0091     		str	r1, [sp]
 112 007e 1846     		mov	r0, r3
 113 0080 4FF4A871 		mov	r1, #336
 114 0084 2B46     		mov	r3, r5
ARM GAS  /tmp/cc7GtYXw.s 			page 3


 115 0086 FFF7FEFF 		bl	chThdCreateStatic
 116              	.LVL4:
 117 008a 2061     		str	r0, [r4, #16]
 118              		.loc 1 73 0
 119 008c FFF7FEFF 		bl	test_wait_threads
 120              	.LVL5:
 121              		.loc 1 74 0
 122 0090 0C49     		ldr	r1, .L2+36
 123 0092 0120     		movs	r0, #1
 124              		.loc 1 75 0
 125 0094 03B0     		add	sp, sp, #12
 126              		@ sp needed
 127 0096 BDE8F040 		pop	{r4, r5, r6, r7, lr}
 128              		.loc 1 74 0
 129 009a FFF7FEBF 		b	_test_assert_sequence
 130              	.LVL6:
 131              	.L3:
 132 009e 00BF     		.align	2
 133              	.L2:
 134 00a0 00000000 		.word	rlist
 135 00a4 00000000 		.word	wa
 136 00a8 00000000 		.word	thread
 137 00ac 00000000 		.word	.LC0
 138 00b0 00000000 		.word	threads
 139 00b4 04000000 		.word	.LC1
 140 00b8 08000000 		.word	.LC2
 141 00bc 0C000000 		.word	.LC3
 142 00c0 10000000 		.word	.LC4
 143 00c4 14000000 		.word	.LC5
 144              		.cfi_endproc
 145              	.LFE119:
 146              		.size	thd1_execute, .-thd1_execute
 147 00c8 AFF30080 		.section	.text.thread,"ax",%progbits
 147      AFF30080 
 148              		.align	2
 149              		.p2align 4,,15
 150              		.thumb
 151              		.thumb_func
 152              		.type	thread, %function
 153              	thread:
 154              	.LFB118:
 155              		.loc 1 60 0
 156              		.cfi_startproc
 157              		@ args = 0, pretend = 0, frame = 0
 158              		@ frame_needed = 0, uses_anonymous_args = 0
 159              	.LVL7:
 160 0000 08B5     		push	{r3, lr}
 161              		.cfi_def_cfa_offset 8
 162              		.cfi_offset 3, -8
 163              		.cfi_offset 14, -4
 164              		.loc 1 62 0
 165 0002 0078     		ldrb	r0, [r0]	@ zero_extendqisi2
 166              	.LVL8:
 167 0004 FFF7FEFF 		bl	test_emit_token
 168              	.LVL9:
 169              		.loc 1 64 0
 170 0008 0020     		movs	r0, #0
ARM GAS  /tmp/cc7GtYXw.s 			page 4


 171 000a 08BD     		pop	{r3, pc}
 172              		.cfi_endproc
 173              	.LFE118:
 174              		.size	thread, .-thread
 175 000c AFF30080 		.section	.text.thd2_execute,"ax",%progbits
 176              		.align	2
 177              		.p2align 4,,15
 178              		.thumb
 179              		.thumb_func
 180              		.type	thd2_execute, %function
 181              	thd2_execute:
 182              	.LFB120:
 183              		.loc 1 94 0
 184              		.cfi_startproc
 185              		@ args = 0, pretend = 0, frame = 0
 186              		@ frame_needed = 0, uses_anonymous_args = 0
 187 0000 F0B5     		push	{r4, r5, r6, r7, lr}
 188              		.cfi_def_cfa_offset 20
 189              		.cfi_offset 4, -20
 190              		.cfi_offset 5, -16
 191              		.cfi_offset 6, -12
 192              		.cfi_offset 7, -8
 193              		.cfi_offset 14, -4
 194              		.loc 1 96 0
 195 0002 2B4F     		ldr	r7, .L6
 196 0004 2B4E     		ldr	r6, .L6+4
 197 0006 BB69     		ldr	r3, [r7, #24]
 198 0008 2B4D     		ldr	r5, .L6+8
 199 000a 9A68     		ldr	r2, [r3, #8]
 200 000c 2B4B     		ldr	r3, .L6+12
 201 000e 7068     		ldr	r0, [r6, #4]
 202 0010 2B4C     		ldr	r4, .L6+16
 203              		.loc 1 94 0
 204 0012 83B0     		sub	sp, sp, #12
 205              		.cfi_def_cfa_offset 32
 206              		.loc 1 96 0
 207 0014 043A     		subs	r2, r2, #4
 208 0016 0093     		str	r3, [sp]
 209 0018 4FF4A871 		mov	r1, #336
 210 001c 2B46     		mov	r3, r5
 211 001e FFF7FEFF 		bl	chThdCreateStatic
 212              	.LVL10:
 213              		.loc 1 97 0
 214 0022 BB69     		ldr	r3, [r7, #24]
 215 0024 2749     		ldr	r1, .L6+20
 216 0026 9A68     		ldr	r2, [r3, #8]
 217 0028 3368     		ldr	r3, [r6]
 218              		.loc 1 96 0
 219 002a 6060     		str	r0, [r4, #4]
 220              		.loc 1 97 0
 221 002c 0091     		str	r1, [sp]
 222 002e 053A     		subs	r2, r2, #5
 223 0030 1846     		mov	r0, r3
 224 0032 4FF4A871 		mov	r1, #336
 225 0036 2B46     		mov	r3, r5
 226 0038 FFF7FEFF 		bl	chThdCreateStatic
 227              	.LVL11:
ARM GAS  /tmp/cc7GtYXw.s 			page 5


 228              		.loc 1 98 0
 229 003c BA69     		ldr	r2, [r7, #24]
 230 003e 3369     		ldr	r3, [r6, #16]
 231 0040 9268     		ldr	r2, [r2, #8]
 232 0042 2149     		ldr	r1, .L6+24
 233              		.loc 1 97 0
 234 0044 2060     		str	r0, [r4]
 235              		.loc 1 98 0
 236 0046 0091     		str	r1, [sp]
 237 0048 013A     		subs	r2, r2, #1
 238 004a 1846     		mov	r0, r3
 239 004c 4FF4A871 		mov	r1, #336
 240 0050 2B46     		mov	r3, r5
 241 0052 FFF7FEFF 		bl	chThdCreateStatic
 242              	.LVL12:
 243              		.loc 1 99 0
 244 0056 BA69     		ldr	r2, [r7, #24]
 245 0058 F368     		ldr	r3, [r6, #12]
 246 005a 9268     		ldr	r2, [r2, #8]
 247 005c 1B49     		ldr	r1, .L6+28
 248              		.loc 1 98 0
 249 005e 2061     		str	r0, [r4, #16]
 250              		.loc 1 99 0
 251 0060 0091     		str	r1, [sp]
 252 0062 023A     		subs	r2, r2, #2
 253 0064 1846     		mov	r0, r3
 254 0066 4FF4A871 		mov	r1, #336
 255 006a 2B46     		mov	r3, r5
 256 006c FFF7FEFF 		bl	chThdCreateStatic
 257              	.LVL13:
 258              	.LBB2:
 259              		.loc 1 101 0
 260 0070 4023     		movs	r3, #64
 261              	.LBE2:
 262              		.loc 1 99 0
 263 0072 E060     		str	r0, [r4, #12]
 264              	.LBB3:
 265              		.loc 1 101 0
 266              	@ 101 "../../test/testthd.c" 1
 267 0074 83F31188 		msr     BASEPRI, r3
 268              	@ 0 "" 2
 269              		.thumb
 270              	.LBE3:
 271              		.loc 1 102 0
 272 0078 BB69     		ldr	r3, [r7, #24]
 273 007a B068     		ldr	r0, [r6, #8]
 274 007c 9A68     		ldr	r2, [r3, #8]
 275 007e 144B     		ldr	r3, .L6+32
 276 0080 0093     		str	r3, [sp]
 277 0082 033A     		subs	r2, r2, #3
 278 0084 2B46     		mov	r3, r5
 279 0086 4FF4A871 		mov	r1, #336
 280 008a FFF7FEFF 		bl	chThdCreateI
 281              	.LVL14:
 282              	.LBB4:
 283              		.loc 1 103 0
 284 008e 0023     		movs	r3, #0
ARM GAS  /tmp/cc7GtYXw.s 			page 6


 285              	.LBE4:
 286              		.loc 1 102 0
 287 0090 A060     		str	r0, [r4, #8]
 288              	.LBB5:
 289              		.loc 1 103 0
 290              	@ 103 "../../test/testthd.c" 1
 291 0092 83F31188 		msr     BASEPRI, r3
 292              	@ 0 "" 2
 293              		.thumb
 294              	.LBE5:
 295              		.loc 1 104 0
 296 0096 A068     		ldr	r0, [r4, #8]
 297 0098 FFF7FEFF 		bl	chThdResume
 298              	.LVL15:
 299              		.loc 1 105 0
 300 009c FFF7FEFF 		bl	test_wait_threads
 301              	.LVL16:
 302              		.loc 1 106 0
 303 00a0 0C49     		ldr	r1, .L6+36
 304 00a2 0120     		movs	r0, #1
 305              		.loc 1 107 0
 306 00a4 03B0     		add	sp, sp, #12
 307              		@ sp needed
 308 00a6 BDE8F040 		pop	{r4, r5, r6, r7, lr}
 309              		.loc 1 106 0
 310 00aa FFF7FEBF 		b	_test_assert_sequence
 311              	.LVL17:
 312              	.L7:
 313 00ae 00BF     		.align	2
 314              	.L6:
 315 00b0 00000000 		.word	rlist
 316 00b4 00000000 		.word	wa
 317 00b8 00000000 		.word	thread
 318 00bc 04000000 		.word	.LC1
 319 00c0 00000000 		.word	threads
 320 00c4 00000000 		.word	.LC0
 321 00c8 10000000 		.word	.LC4
 322 00cc 0C000000 		.word	.LC3
 323 00d0 08000000 		.word	.LC2
 324 00d4 14000000 		.word	.LC5
 325              		.cfi_endproc
 326              	.LFE120:
 327              		.size	thd2_execute, .-thd2_execute
 328 00d8 AFF30080 		.section	.text.thd3_execute,"ax",%progbits
 328      AFF30080 
 329              		.align	2
 330              		.p2align 4,,15
 331              		.thumb
 332              		.thumb_func
 333              		.type	thd3_execute, %function
 334              	thd3_execute:
 335              	.LFB121:
 336              		.loc 1 126 0
 337              		.cfi_startproc
 338              		@ args = 0, pretend = 0, frame = 0
 339              		@ frame_needed = 0, uses_anonymous_args = 0
 340 0000 F8B5     		push	{r3, r4, r5, r6, r7, lr}
ARM GAS  /tmp/cc7GtYXw.s 			page 7


 341              		.cfi_def_cfa_offset 24
 342              		.cfi_offset 3, -24
 343              		.cfi_offset 4, -20
 344              		.cfi_offset 5, -16
 345              		.cfi_offset 6, -12
 346              		.cfi_offset 7, -8
 347              		.cfi_offset 14, -4
 348              		.loc 1 129 0
 349 0002 4C4E     		ldr	r6, .L14
 350 0004 B369     		ldr	r3, [r6, #24]
 351 0006 9C68     		ldr	r4, [r3, #8]
 352              	.LVL18:
 353              		.loc 1 130 0
 354 0008 651C     		adds	r5, r4, #1
 355 000a 2846     		mov	r0, r5
 356 000c FFF7FEFF 		bl	chThdSetPriority
 357              	.LVL19:
 358              		.loc 1 131 0
 359 0010 B0EB040C 		subs	ip, r0, r4
 360 0014 DCF10001 		rsbs	r1, ip, #0
 361              		.loc 1 130 0
 362 0018 0746     		mov	r7, r0
 363              	.LVL20:
 364              		.loc 1 131 0
 365 001a 51EB0C01 		adcs	r1, r1, ip
 366 001e 0120     		movs	r0, #1
 367              	.LVL21:
 368 0020 FFF7FEFF 		bl	_test_assert
 369              	.LVL22:
 370 0024 00B1     		cbz	r0, .L13
 371              	.LVL23:
 372              	.L8:
 373 0026 F8BD     		pop	{r3, r4, r5, r6, r7, pc}
 374              	.LVL24:
 375              	.L13:
 376              		.loc 1 133 0
 377 0028 B369     		ldr	r3, [r6, #24]
 378 002a 9968     		ldr	r1, [r3, #8]
 379 002c B5EB010E 		subs	lr, r5, r1
 380 0030 DEF10001 		rsbs	r1, lr, #0
 381 0034 51EB0E01 		adcs	r1, r1, lr
 382 0038 0220     		movs	r0, #2
 383 003a FFF7FEFF 		bl	_test_assert
 384              	.LVL25:
 385 003e 0028     		cmp	r0, #0
 386 0040 F1D1     		bne	.L8
 387              		.loc 1 135 0
 388 0042 3846     		mov	r0, r7
 389 0044 FFF7FEFF 		bl	chThdSetPriority
 390              	.LVL26:
 391              		.loc 1 136 0
 392 0048 281A     		subs	r0, r5, r0
 393              	.LVL27:
 394 004a 4142     		rsbs	r1, r0, #0
 395 004c 4141     		adcs	r1, r1, r0
 396 004e 0320     		movs	r0, #3
 397 0050 FFF7FEFF 		bl	_test_assert
ARM GAS  /tmp/cc7GtYXw.s 			page 8


 398              	.LVL28:
 399 0054 0028     		cmp	r0, #0
 400 0056 E6D1     		bne	.L8
 401              		.loc 1 138 0
 402 0058 B369     		ldr	r3, [r6, #24]
 403 005a 9968     		ldr	r1, [r3, #8]
 404 005c 0A1B     		subs	r2, r1, r4
 405 005e 5142     		rsbs	r1, r2, #0
 406 0060 5141     		adcs	r1, r1, r2
 407 0062 0420     		movs	r0, #4
 408 0064 FFF7FEFF 		bl	_test_assert
 409              	.LVL29:
 410 0068 0028     		cmp	r0, #0
 411 006a DCD1     		bne	.L8
 412              	.LBB6:
 413              		.loc 1 143 0
 414 006c 4023     		movs	r3, #64
 415              	@ 143 "../../test/testthd.c" 1
 416 006e 83F31188 		msr     BASEPRI, r3
 417              	@ 0 "" 2
 418              		.thumb
 419              	.LBE6:
 420              		.loc 1 144 0
 421 0072 B269     		ldr	r2, [r6, #24]
 422 0074 9368     		ldr	r3, [r2, #8]
 423 0076 991C     		adds	r1, r3, #2
 424 0078 9160     		str	r1, [r2, #8]
 425              	.LBB7:
 426              		.loc 1 145 0
 427 007a 0346     		mov	r3, r0
 428              	@ 145 "../../test/testthd.c" 1
 429 007c 83F31188 		msr     BASEPRI, r3
 430              	@ 0 "" 2
 431              		.thumb
 432              	.LBE7:
 433              		.loc 1 146 0
 434 0080 B369     		ldr	r3, [r6, #24]
 435 0082 9968     		ldr	r1, [r3, #8]
 436 0084 A71C     		adds	r7, r4, #2
 437 0086 CB1B     		subs	r3, r1, r7
 438 0088 5942     		rsbs	r1, r3, #0
 439 008a 5941     		adcs	r1, r1, r3
 440 008c 0520     		movs	r0, #5
 441 008e FFF7FEFF 		bl	_test_assert
 442              	.LVL30:
 443 0092 0028     		cmp	r0, #0
 444 0094 C7D1     		bne	.L8
 445              		.loc 1 150 0
 446 0096 2846     		mov	r0, r5
 447 0098 FFF7FEFF 		bl	chThdSetPriority
 448              	.LVL31:
 449              		.loc 1 151 0
 450 009c B0EB040C 		subs	ip, r0, r4
 451 00a0 DCF10001 		rsbs	r1, ip, #0
 452 00a4 51EB0C01 		adcs	r1, r1, ip
 453 00a8 0620     		movs	r0, #6
 454              	.LVL32:
ARM GAS  /tmp/cc7GtYXw.s 			page 9


 455 00aa FFF7FEFF 		bl	_test_assert
 456              	.LVL33:
 457 00ae 0028     		cmp	r0, #0
 458 00b0 B9D1     		bne	.L8
 459              		.loc 1 153 0
 460 00b2 B369     		ldr	r3, [r6, #24]
 461 00b4 9968     		ldr	r1, [r3, #8]
 462 00b6 B7EB010E 		subs	lr, r7, r1
 463 00ba DEF10001 		rsbs	r1, lr, #0
 464 00be 51EB0E01 		adcs	r1, r1, lr
 465 00c2 0720     		movs	r0, #7
 466 00c4 FFF7FEFF 		bl	_test_assert
 467              	.LVL34:
 468 00c8 0028     		cmp	r0, #0
 469 00ca ACD1     		bne	.L8
 470              		.loc 1 155 0
 471 00cc B369     		ldr	r3, [r6, #24]
 472 00ce 196C     		ldr	r1, [r3, #64]
 473 00d0 6F1A     		subs	r7, r5, r1
 474 00d2 7942     		rsbs	r1, r7, #0
 475 00d4 7941     		adcs	r1, r1, r7
 476 00d6 0820     		movs	r0, #8
 477 00d8 FFF7FEFF 		bl	_test_assert
 478              	.LVL35:
 479 00dc 0028     		cmp	r0, #0
 480 00de A2D1     		bne	.L8
 481              		.loc 1 159 0
 482 00e0 E71C     		adds	r7, r4, #3
 483 00e2 3846     		mov	r0, r7
 484 00e4 FFF7FEFF 		bl	chThdSetPriority
 485              	.LVL36:
 486              		.loc 1 160 0
 487 00e8 281A     		subs	r0, r5, r0
 488              	.LVL37:
 489 00ea 4142     		rsbs	r1, r0, #0
 490 00ec 4141     		adcs	r1, r1, r0
 491 00ee 0920     		movs	r0, #9
 492 00f0 FFF7FEFF 		bl	_test_assert
 493              	.LVL38:
 494 00f4 0028     		cmp	r0, #0
 495 00f6 96D1     		bne	.L8
 496              		.loc 1 162 0
 497 00f8 B369     		ldr	r3, [r6, #24]
 498 00fa 9968     		ldr	r1, [r3, #8]
 499 00fc 7A1A     		subs	r2, r7, r1
 500 00fe 5142     		rsbs	r1, r2, #0
 501 0100 5141     		adcs	r1, r1, r2
 502 0102 0A20     		movs	r0, #10
 503 0104 FFF7FEFF 		bl	_test_assert
 504              	.LVL39:
 505 0108 0028     		cmp	r0, #0
 506 010a 8CD1     		bne	.L8
 507              		.loc 1 164 0
 508 010c B369     		ldr	r3, [r6, #24]
 509 010e 196C     		ldr	r1, [r3, #64]
 510 0110 7B1A     		subs	r3, r7, r1
 511 0112 5942     		rsbs	r1, r3, #0
ARM GAS  /tmp/cc7GtYXw.s 			page 10


 512 0114 5941     		adcs	r1, r1, r3
 513 0116 0B20     		movs	r0, #11
 514 0118 FFF7FEFF 		bl	_test_assert
 515              	.LVL40:
 516 011c 0028     		cmp	r0, #0
 517 011e 82D1     		bne	.L8
 518              	.LBB8:
 519              		.loc 1 167 0
 520 0120 4023     		movs	r3, #64
 521              	@ 167 "../../test/testthd.c" 1
 522 0122 83F31188 		msr     BASEPRI, r3
 523              	@ 0 "" 2
 524              		.thumb
 525              	.LBE8:
 526              		.loc 1 168 0
 527 0126 B269     		ldr	r2, [r6, #24]
 528              	.LBB9:
 529              		.loc 1 170 0
 530 0128 0346     		mov	r3, r0
 531              	.LBE9:
 532              		.loc 1 168 0
 533 012a 9460     		str	r4, [r2, #8]
 534              		.loc 1 169 0
 535 012c 1464     		str	r4, [r2, #64]
 536              	.LBB10:
 537              		.loc 1 170 0
 538              	@ 170 "../../test/testthd.c" 1
 539 012e 83F31188 		msr     BASEPRI, r3
 540              	@ 0 "" 2
 541              		.thumb
 542 0132 78E7     		b	.L8
 543              	.L15:
 544              		.align	2
 545              	.L14:
 546 0134 00000000 		.word	rlist
 547              	.LBE10:
 548              		.cfi_endproc
 549              	.LFE121:
 550              		.size	thd3_execute, .-thd3_execute
 551 0138 AFF30080 		.section	.text.thd4_execute,"ax",%progbits
 551      AFF30080 
 552              		.align	2
 553              		.p2align 4,,15
 554              		.thumb
 555              		.thumb_func
 556              		.type	thd4_execute, %function
 557              	thd4_execute:
 558              	.LFB122:
 559              		.loc 1 189 0
 560              		.cfi_startproc
 561              		@ args = 0, pretend = 0, frame = 0
 562              		@ frame_needed = 0, uses_anonymous_args = 0
 563 0000 38B5     		push	{r3, r4, r5, lr}
 564              		.cfi_def_cfa_offset 16
 565              		.cfi_offset 3, -16
 566              		.cfi_offset 4, -12
 567              		.cfi_offset 5, -8
ARM GAS  /tmp/cc7GtYXw.s 			page 11


 568              		.cfi_offset 14, -4
 569              		.loc 1 195 0
 570 0002 1E4D     		ldr	r5, .L21
 571              		.loc 1 192 0
 572 0004 FFF7FEFF 		bl	test_wait_tick
 573              	.LVL41:
 574              		.loc 1 195 0
 575 0008 EC68     		ldr	r4, [r5, #12]
 576              	.LVL42:
 577              		.loc 1 196 0
 578 000a 4FF47A70 		mov	r0, #1000
 579 000e FFF7FEFF 		bl	chThdSleep
 580              	.LVL43:
 581              		.loc 1 197 0
 582 0012 04F57A71 		add	r1, r4, #1000
 583 0016 04F2E932 		addw	r2, r4, #1001
 584 001a 0120     		movs	r0, #1
 585 001c FFF7FEFF 		bl	_test_assert_time_window
 586              	.LVL44:
 587 0020 00B1     		cbz	r0, .L20
 588              	.LVL45:
 589              	.L16:
 590 0022 38BD     		pop	{r3, r4, r5, pc}
 591              	.LVL46:
 592              	.L20:
 593              		.loc 1 200 0
 594 0024 EC68     		ldr	r4, [r5, #12]
 595              	.LVL47:
 596              		.loc 1 201 0
 597 0026 4FF47A70 		mov	r0, #1000
 598 002a FFF7FEFF 		bl	chThdSleep
 599              	.LVL48:
 600              		.loc 1 202 0
 601 002e 04F57A71 		add	r1, r4, #1000
 602 0032 04F2E932 		addw	r2, r4, #1001
 603 0036 0220     		movs	r0, #2
 604 0038 FFF7FEFF 		bl	_test_assert_time_window
 605              	.LVL49:
 606 003c 0028     		cmp	r0, #0
 607 003e F0D1     		bne	.L16
 608              	.LBB13:
 609              	.LBB14:
 610              		.loc 1 205 0
 611 0040 EC68     		ldr	r4, [r5, #12]
 612              	.LVL50:
 613              		.loc 1 206 0
 614 0042 42F21070 		movw	r0, #10000
 615 0046 FFF7FEFF 		bl	chThdSleep
 616              	.LVL51:
 617              		.loc 1 207 0
 618 004a 04F51C51 		add	r1, r4, #9984
 619 004e 0A46     		mov	r2, r1
 620 0050 1132     		adds	r2, r2, #17
 621 0052 1031     		adds	r1, r1, #16
 622 0054 0320     		movs	r0, #3
 623 0056 FFF7FEFF 		bl	_test_assert_time_window
 624              	.LVL52:
ARM GAS  /tmp/cc7GtYXw.s 			page 12


 625 005a 0028     		cmp	r0, #0
 626 005c E1D1     		bne	.L16
 627              		.loc 1 210 0
 628 005e EC68     		ldr	r4, [r5, #12]
 629              	.LVL53:
 630 0060 04F57A75 		add	r5, r4, #1000
 631              	.LVL54:
 632              		.loc 1 211 0
 633 0064 2846     		mov	r0, r5
 634 0066 FFF7FEFF 		bl	chThdSleepUntil
 635              	.LVL55:
 636              		.loc 1 212 0
 637 006a 2946     		mov	r1, r5
 638 006c 04F2E932 		addw	r2, r4, #1001
 639 0070 0420     		movs	r0, #4
 640              	.LBE14:
 641              	.LBE13:
 642              		.loc 1 213 0
 643 0072 BDE83840 		pop	{r3, r4, r5, lr}
 644              	.LVL56:
 645              	.LBB16:
 646              	.LBB15:
 647              		.loc 1 212 0
 648 0076 FFF7FEBF 		b	_test_assert_time_window
 649              	.LVL57:
 650              	.L22:
 651 007a 00BF     		.align	2
 652              	.L21:
 653 007c 00000000 		.word	vtlist
 654              	.LBE15:
 655              	.LBE16:
 656              		.cfi_endproc
 657              	.LFE122:
 658              		.size	thd4_execute, .-thd4_execute
 659              		.global	patternthd
 660              		.global	testthd4
 661              		.global	testthd3
 662              		.global	testthd2
 663              		.global	testthd1
 664              		.section	.rodata.testthd1,"a",%progbits
 665              		.align	2
 666              		.type	testthd1, %object
 667              		.size	testthd1, 16
 668              	testthd1:
 669 0000 64000000 		.word	.LC9
 670 0004 00000000 		.word	0
 671 0008 00000000 		.word	0
 672 000c 00000000 		.word	thd1_execute
 673              		.section	.rodata.testthd2,"a",%progbits
 674              		.align	2
 675              		.type	testthd2, %object
 676              		.size	testthd2, 16
 677              	testthd2:
 678 0000 48000000 		.word	.LC8
 679 0004 00000000 		.word	0
 680 0008 00000000 		.word	0
 681 000c 00000000 		.word	thd2_execute
ARM GAS  /tmp/cc7GtYXw.s 			page 13


 682              		.section	.rodata.testthd3,"a",%progbits
 683              		.align	2
 684              		.type	testthd3, %object
 685              		.size	testthd3, 16
 686              	testthd3:
 687 0000 2C000000 		.word	.LC7
 688 0004 00000000 		.word	0
 689 0008 00000000 		.word	0
 690 000c 00000000 		.word	thd3_execute
 691              		.section	.rodata.testthd4,"a",%progbits
 692              		.align	2
 693              		.type	testthd4, %object
 694              		.size	testthd4, 16
 695              	testthd4:
 696 0000 1C000000 		.word	.LC6
 697 0004 00000000 		.word	0
 698 0008 00000000 		.word	0
 699 000c 00000000 		.word	thd4_execute
 700              		.section	.rodata.patternthd,"a",%progbits
 701              		.align	2
 702              		.type	patternthd, %object
 703              		.size	patternthd, 20
 704              	patternthd:
 705 0000 00000000 		.word	testthd1
 706 0004 00000000 		.word	testthd2
 707 0008 00000000 		.word	testthd3
 708 000c 00000000 		.word	testthd4
 709 0010 00000000 		.word	0
 710              		.section	.rodata.str1.4,"aMS",%progbits,1
 711              		.align	2
 712              	.LC0:
 713 0000 4500     		.ascii	"E\000"
 714 0002 0000     		.space	2
 715              	.LC1:
 716 0004 4400     		.ascii	"D\000"
 717 0006 0000     		.space	2
 718              	.LC2:
 719 0008 4300     		.ascii	"C\000"
 720 000a 0000     		.space	2
 721              	.LC3:
 722 000c 4200     		.ascii	"B\000"
 723 000e 0000     		.space	2
 724              	.LC4:
 725 0010 4100     		.ascii	"A\000"
 726 0012 0000     		.space	2
 727              	.LC5:
 728 0014 41424344 		.ascii	"ABCDE\000"
 728      4500
 729 001a 0000     		.space	2
 730              	.LC6:
 731 001c 54687265 		.ascii	"Threads, delays\000"
 731      6164732C 
 731      2064656C 
 731      61797300 
 732              	.LC7:
 733 002c 54687265 		.ascii	"Threads, priority change\000"
 733      6164732C 
ARM GAS  /tmp/cc7GtYXw.s 			page 14


 733      20707269 
 733      6F726974 
 733      79206368 
 734 0045 000000   		.space	3
 735              	.LC8:
 736 0048 54687265 		.ascii	"Threads, enqueuing test #2\000"
 736      6164732C 
 736      20656E71 
 736      75657569 
 736      6E672074 
 737 0063 00       		.space	1
 738              	.LC9:
 739 0064 54687265 		.ascii	"Threads, enqueuing test #1\000"
 739      6164732C 
 739      20656E71 
 739      75657569 
 739      6E672074 
 740 007f 00       		.text
 741              	.Letext0:
 742              		.file 2 "/usr/lib/gcc/arm-none-eabi/4.8/include/stddef.h"
 743              		.file 3 "/usr/include/newlib/machine/_default_types.h"
 744              		.file 4 "/usr/include/newlib/stdint.h"
 745              		.file 5 "../../os/ports/GCC/ARMCMx/chtypes.h"
 746              		.file 6 "../../os/kernel/include/chlists.h"
 747              		.file 7 "../../os/kernel/include/chthreads.h"
 748              		.file 8 "../../os/ports/GCC/ARMCMx/chcore_v7m.h"
 749              		.file 9 "../../os/kernel/include/chvt.h"
 750              		.file 10 "../../os/kernel/include/chschd.h"
 751              		.file 11 "../../os/kernel/include/chmtx.h"
 752              		.file 12 "../../test/test.h"
 753              		.file 13 "../../os/ports/common/ARMCMx/CMSIS/include/core_cm4.h"