ARM GAS  /tmp/cc7GtYXw.s 			page 1


   1              		.syntax unified
   2              		.cpu cortex-m4
   3              		.fpu softvfp
   4              		.eabi_attribute 20, 1
   5              		.eabi_attribute 21, 1
   6              		.eabi_attribute 23, 3
   7              		.eabi_attribute 24, 1
   8              		.eabi_attribute 25, 1
   9              		.eabi_attribute 26, 1
  10              		.eabi_attribute 30, 2
  11              		.eabi_attribute 34, 1
  12              		.eabi_attribute 18, 4
  13              		.thumb
  14              		.file	"testthd.c"
  15              		.text
  16              	.Ltext0:
  17              		.cfi_sections	.debug_frame
  18              		.section	.text.thd1_execute,"ax",%progbits
  19              		.align	2
  20              		.p2align 4,,15
  21              		.thumb
  22              		.thumb_func
  23              		.type	thd1_execute, %function
  24              	thd1_execute:
  25              	.LFB119:
  26              		.file 1 "../../test/testthd.c"
  27              		.loc 1 66 0
  28              		.cfi_startproc
  29              		@ args = 0, pretend = 0, frame = 0
  30              		@ frame_needed = 0, uses_anonymous_args = 0
  31 0000 F0B5     		push	{r4, r5, r6, r7, lr}
  32              		.cfi_def_cfa_offset 20
  33              		.cfi_offset 4, -20
  34              		.cfi_offset 5, -16
  35              		.cfi_offset 6, -12
  36              		.cfi_offset 7, -8
  37              		.cfi_offset 14, -4
  38              		.loc 1 68 0
  39 0002 274F     		ldr	r7, .L2
  40 0004 274E     		ldr	r6, .L2+4
  41 0006 BB69     		ldr	r3, [r7, #24]
  42 0008 274D     		ldr	r5, .L2+8
  43 000a 9A68     		ldr	r2, [r3, #8]
  44 000c 274B     		ldr	r3, .L2+12
  45 000e 3068     		ldr	r0, [r6]
  46 0010 274C     		ldr	r4, .L2+16
  47              		.loc 1 66 0
  48 0012 83B0     		sub	sp, sp, #12
  49              		.cfi_def_cfa_offset 32
  50              		.loc 1 68 0
  51 0014 053A     		subs	r2, r2, #5
  52 0016 0093     		str	r3, [sp]
  53 0018 4FF4A871 		mov	r1, #336
  54 001c 2B46     		mov	r3, r5
  55 001e FFF7FEFF 		bl	chThdCreateStatic
  56              	.LVL0:
  57              		.loc 1 69 0
ARM GAS  /tmp/cc7GtYXw.s 			page 2


  58 0022 BB69     		ldr	r3, [r7, #24]
  59 0024 2349     		ldr	r1, .L2+20
  60 0026 9A68     		ldr	r2, [r3, #8]
  61 0028 7368     		ldr	r3, [r6, #4]
  62              		.loc 1 68 0
  63 002a 2060     		str	r0, [r4]
  64              		.loc 1 69 0
  65 002c 0091     		str	r1, [sp]
  66 002e 043A     		subs	r2, r2, #4
  67 0030 1846     		mov	r0, r3
  68 0032 4FF4A871 		mov	r1, #336
  69 0036 2B46     		mov	r3, r5
  70 0038 FFF7FEFF 		bl	chThdCreateStatic
  71              	.LVL1:
  72              		.loc 1 70 0
  73 003c BA69     		ldr	r2, [r7, #24]
  74 003e B368     		ldr	r3, [r6, #8]
  75 0040 9268     		ldr	r2, [r2, #8]
  76 0042 1D49     		ldr	r1, .L2+24
  77              		.loc 1 69 0
  78 0044 6060     		str	r0, [r4, #4]
  79              		.loc 1 70 0
  80 0046 0091     		str	r1, [sp]
  81 0048 033A     		subs	r2, r2, #3
  82 004a 1846     		mov	r0, r3
  83 004c 4FF4A871 		mov	r1, #336
  84 0050 2B46     		mov	r3, r5
  85 0052 FFF7FEFF 		bl	chThdCreateStatic
  86              	.LVL2:
  87              		.loc 1 71 0
  88 0056 BA69     		ldr	r2, [r7, #24]
  89 0058 F368     		ldr	r3, [r6, #12]
  90 005a 9268     		ldr	r2, [r2, #8]
  91 005c 1749     		ldr	r1, .L2+28
  92              		.loc 1 70 0
  93 005e A060     		str	r0, [r4, #8]
  94              		.loc 1 71 0
  95 0060 0091     		str	r1, [sp]
  96 0062 023A     		subs	r2, r2, #2
  97 0064 1846     		mov	r0, r3
  98 0066 4FF4A871 		mov	r1, #336
  99 006a 2B46     		mov	r3, r5
 100 006c FFF7FEFF 		bl	chThdCreateStatic
 101              	.LVL3:
 102              		.loc 1 72 0
 103 0070 BA69     		ldr	r2, [r7, #24]
 104 0072 3369     		ldr	r3, [r6, #16]
 105 0074 9268     		ldr	r2, [r2, #8]
 106 0076 1249     		ldr	r1, .L2+32
 107              		.loc 1 71 0
 108 0078 E060     		str	r0, [r4, #12]
 109              		.loc 1 72 0
 110 007a 013A     		subs	r2, r2, #1
 111 007c 0091     		str	r1, [sp]
 112 007e 1846     		mov	r0, r3
 113 0080 4FF4A871 		mov	r1, #336
 114 0084 2B46     		mov	r3, r5
ARM GAS  /tmp/cc7GtYXw.s 			page 3


 115 0086 FFF7FEFF 		bl	chThdCreateStatic
 116              	.LVL4:
 117 008a 2061     		str	r0, [r4, #16]
 118              		.loc 1 73 0
 119 008c FFF7FEFF 		bl	test_wait_threads
 120              	.LVL5:
 121              		.loc 1 74 0
 122 0090 0C49     		ldr	r1, .L2+36
 123 0092 0120     		movs	r0, #1
 124              		.loc 1 75 0
 125 0094 03B0     		add	sp, sp, #12
 126              		@ sp needed
 127 0096 BDE8F040 		pop	{r4, r5, r6, r7, lr}
 128              		.loc 1 74 0
 129 009a FFF7FEBF 		b	_test_assert_sequence
 130              	.LVL6:
 131              	.L3:
 132 009e 00BF     		.align	2
 133              	.L2:
 134 00a0 00000000 		.word	rlist
 135 00a4 00000000 		.word	wa
 136 00a8 00000000 		.word	thread
 137 00ac 00000000 		.word	.LC0
 138 00b0 00000000 		.word	threads
 139 00b4 04000000 		.word	.LC1
 140 00b8 08000000 		.word	.LC2
 141 00bc 0C000000 		.word	.LC3
 142 00c0 10000000 		.word	.LC4
 143 00c4 14000000 		.word	.LC5
 144              		.cfi_endproc
 145              	.LFE119:
 146              		.size	thd1_execute, .-thd1_execute
 147 00c8 AFF30080 		.section	.text.thread,"ax",%progbits
 147      AFF30080 
 148              		.align	2
 149              		.p2align 4,,15
 150              		.thumb
 151              		.thumb_func
 152              		.type	thread, %function
 153              	thread:
 154              	.LFB118:
 155              		.loc 1 60 0
 156              		.cfi_startproc
 157              		@ args = 0, pretend = 0, frame = 0
 158              		@ frame_needed = 0, uses_anonymous_args = 0
 159              	.LVL7:
 160 0000 08B5     		push	{r3, lr}
 161              		.cfi_def_cfa_offset 8
 162              		.cfi_offset 3, -8
 163              		.cfi_offset 14, -4
 164              		.loc 1 62 0
 165 0002 0078     		ldrb	r0, [r0]	@ zero_extendqisi2
 166              	.LVL8:
 167 0004 FFF7FEFF 		bl	test_emit_token
 168              	.LVL9:
 169              		.loc 1 64 0
 170 0008 0020     		movs	r0, #0
ARM GAS  /tmp/cc7GtYXw.s 			page 4


 171 000a 08BD     		pop	{r3, pc}
 172              		.cfi_endproc
 173              	.LFE118:
 174              		.size	thread, .-thread
 175 000c AFF30080 		.section	.text.thd2_execute,"ax",%progbits
 176              		.align	2
 177              		.p2align 4,,15
 178              		.thumb
 179              		.thumb_func
 180              		.type	thd2_execute, %function
 181              	thd2_execute:
 182              	.LFB120:
 183              		.loc 1 94 0
 184              		.cfi_startproc
 185              		@ args = 0, pretend = 0, frame = 0
 186              		@ frame_needed = 0, uses_anonymous_args = 0
 187 0000 F0B5     		push	{r4, r5, r6, r7, lr}
 188              		.cfi_def_cfa_offset 20
 189              		.cfi_offset 4, -20
 190              		.cfi_offset 5, -16
 191              		.cfi_offset 6, -12
 192              		.cfi_offset 7, -8
 193              		.cfi_offset 14, -4
 194              		.loc 1 96 0
 195 0002 2B4F     		ldr	r7, .L6
 196 0004 2B4E     		ldr	r6, .L6+4
 197 0006 BB69     		ldr	r3, [r7, #24]
 198 0008 2B4D     		ldr	r5, .L6+8
 199 000a 9A68     		ldr	r2, [r3, #8]
 200 000c 2B4B     		ldr	r3, .L6+12
 201 000e 7068     		ldr	r0, [r6, #4]
 202 0010 2B4C     		ldr	r4, .L6+16
 203              		.loc 1 94 0
 204 0012 83B0     		sub	sp, sp, #12
 205              		.cfi_def_cfa_offset 32
 206              		.loc 1 96 0
 207 0014 043A     		subs	r2, r2, #4
 208 0016 0093     		str	r3, [sp]
 209 0018 4FF4A871 		mov	r1, #336
 210 001c 2B46     		mov	r3, r5
 211 001e FFF7FEFF 		bl	chThdCreateStatic
 212              	.LVL10:
 213              		.loc 1 97 0
 214 0022 BB69     		ldr	r3, [r7, #24]
 215 0024 2749     		ldr	r1, .L6+20
 216 0026 9A68     		ldr	r2, [r3, #8]
 217 0028 3368     		ldr	r3, [r6]
 218              		.loc 1 96 0
 219 002a 6060     		str	r0, [r4, #4]
 220              		.loc 1 97 0
 221 002c 0091     		str	r1, [sp]
 222 002e 053A     		subs	r2, r2, #5
 223 0030 1846     		mov	r0, r3
 224 0032 4FF4A871 		mov	r1, #336
 225 0036 2B46     		mov	r3, r5
 226 0038 FFF7FEFF 		bl	chThdCreateStatic
 227              	.LVL11:
ARM GAS  /tmp/cc7GtYXw.s 			page 5


 228              		.loc 1 98 0
 229 003c BA69     		ldr	r2, [r7, #24]
 230 003e 3369     		ldr	r3, [r6, #16]
 231 0040 9268     		ldr	r2, [r2, #8]
 232 0042 2149     		ldr	r1, .L6+24
 233              		.loc 1 97 0
 234 0044 2060     		str	r0, [r4]
 235              		.loc 1 98 0
 236 0046 0091     		str	r1, [sp]
 237 0048 013A     		subs	r2, r2, #1
 238 004a 1846     		mov	r0, r3
 239 004c 4FF4A871 		mov	r1, #336
 240 0050 2B46     		mov	r3, r5
 241 0052 FFF7FEFF 		bl	chThdCreateStatic
 242              	.LVL12:
 243              		.loc 1 99 0
 244 0056 BA69     		ldr	r2, [r7, #24]
 245 0058 F368     		ldr	r3, [r6, #12]
 246 005a 9268     		ldr	r2, [r2, #8]
 247 005c 1B49     		ldr	r1, .L6+28
 248              		.loc 1 98 0
 249 005e 2061     		str	r0, [r4, #16]
 250              		.loc 1 99 0
 251 0060 0091     		str	r1, [sp]
 252 0062 023A     		subs	r2, r2, #2
 253 0064 1846     		mov	r0, r3
 254 0066 4FF4A871 		mov	r1, #336
 255 006a 2B46     		mov	r3, r5
 256 006c FFF7FEFF 		bl	chThdCreateStatic
 257              	.LVL13:
 258              	.LBB2:
 259              		.loc 1 101 0
 260 0070 4023     		movs	r3, #64
 261              	.LBE2:
 262              		.loc 1 99 0
 263 0072 E060     		str	r0, [r4, #12]
 264              	.LBB3:
 265              		.loc 1 101 0
 266              	@ 101 "../../test/testthd.c" 1
 267 0074 83F31188 		msr     BASEPRI, r3
 268              	@ 0 "" 2
 269              		.thumb
 270              	.LBE3:
 271              		.loc 1 102 0
 272 0078 BB69     		ldr	r3, [r7, #24]
 273 007a B068     		ldr	r0, [r6, #8]
 274 007c 9A68     		ldr	r2, [r3, #8]
 275 007e 144B     		ldr	r3, .L6+32
 276 0080 0093     		str	r3, [sp]
 277 0082 033A     		subs	r2, r2, #3
 278 0084 2B46     		mov	r3, r5
 279 0086 4FF4A871 		mov	r1, #336
 280 008a FFF7FEFF 		bl	chThdCreateI
 281              	.LVL14:
 282              	.LBB4:
 283              		.loc 1 103 0
 284 008e 0023     		movs	r3, #0
ARM GAS  /tmp/cc7GtYXw.s 			page 6


 285              	.LBE4:
 286              		.loc 1 102 0
 287 0090 A060     		str	r0, [r4, #8]
 288              	.LBB5:
 289              		.loc 1 103 0
 290              	@ 103 "../../test/testthd.c" 1
 291 0092 83F31188 		msr     BASEPRI, r3
 292              	@ 0 "" 2
 293              		.thumb
 294              	.LBE5:
 295              		.loc 1 104 0
 296 0096 A068     		ldr	r0, [r4, #8]
 297 0098 FFF7FEFF 		bl	chThdResume
 298              	.LVL15:
 299              		.loc 1 105 0
 300 009c FFF7FEFF 		bl	test_wait_threads
 301              	.LVL16:
 302              		.loc 1 106 0
 303 00a0 0C49     		ldr	r1, .L6+36
 304 00a2 0120     		movs	r0, #1
 305              		.loc 1 107 0
 306 00a4 03B0     		add	sp, sp, #12
 307              		@ sp needed
 308 00a6 BDE8F040 		pop	{r4, r5, r6, r7, lr}
 309              		.loc 1 106 0
 310 00aa FFF7FEBF 		b	_test_assert_sequence
 311              	.LVL17:
 312              	.L7:
 313 00ae 00BF     		.align	2
 314              	.L6:
 315 00b0 00000000 		.word	rlist
 316 00b4 00000000 		.word	wa
 317 00b8 00000000 		.word	thread
 318 00bc 04000000 		.word	.LC1
 319 00c0 00000000 		.word	threads
 320 00c4 00000000 		.word	.LC0
 321 00c8 10000000 		.word	.LC4
 322 00cc 0C000000 		.word	.LC3
 323 00d0 08000000 		.word	.LC2
 324 00d4 14000000 		.word	.LC5
 325              		.cfi_endproc
 326              	.LFE120:
 327              		.size	thd2_execute, .-thd2_execute
 328 00d8 AFF30080 		.section	.text.thd3_execute,"ax",%progbits
 328      AFF30080 
 329              		.align	2
 330              		.p2align 4,,15
 331              		.thumb
 332              		.thumb_func
 333              		.type	thd3_execute, %function
 334              	thd3_execute:
 335              	.LFB121:
 336              		.loc 1 126 0
 337              		.cfi_startproc
 338              		@ args = 0, pretend = 0, frame = 0
 339              		@ frame_needed = 0, uses_anonymous_args = 0
 340 0000 F8B5     		push	{r3, r4, r5, r6, r7, lr}
ARM GAS  /tmp/cc7GtYXw.s 			page 7


 341              		.cfi_def_cfa_offset 24
 342              		.cfi_offset 3, -24
 343              		.cfi_offset 4, -20
 344              		.cfi_offset 5, -16
 345              		.cfi_offset 6, -12
 346              		.cfi_offset 7, -8
 347              		.cfi_offset 14, -4
 348              		.loc 1 129 0
 349 0002 4C4E     		ldr	r6, .L14
 350 0004 B369     		ldr	r3, [r6, #24]
 351 0006 9C68     		ldr	r4, [r3, #8]
 352              	.LVL18:
 353              		.loc 1 130 0
 354 0008 651C     		adds	r5, r4, #1
 355 000a 2846     		mov	r0, r5
 356 000c FFF7FEFF 		bl	chThdSetPriority
 357              	.LVL19:
 358              		.loc 1 131 0
 359 0010 B0EB040C 		subs	ip, r0, r4
 360 0014 DCF10001 		rsbs	r1, ip, #0
 361              		.loc 1 130 0
 362 0018 0746     		mov	r7, r0
 363              	.LVL20:
 364              		.loc 1 131 0
 365 001a 51EB0C01 		adcs	r1, r1, ip
 366 001e 0120     		movs	r0, #1
 367              	.LVL21:
 368 0020 FFF7FEFF 		bl	_test_assert
 369              	.LVL22:
 370 0024 00B1     		cbz	r0, .L13
 371              	.LVL23:
 372              	.L8:
 373 0026 F8BD     		pop	{r3, r4, r5, r6, r7, pc}
 374              	.LVL24:
 375              	.L13:
 376              		.loc 1 133 0
 377 0028 B369     		ldr	r3, [r6, #24]
 378 002a 9968     		ldr	r1, [r3, #8]
 379 002c B5EB010E 		subs	lr, r5, r1
 380 0030 DEF10001 		rsbs	r1, lr, #0
 381 0034 51EB0E01 		adcs	r1, r1, lr
 382 0038 0220     		movs	r0, #2
 383 003a FFF7FEFF 		bl	_test_assert
 384              	.LVL25:
 385 003e 0028     		cmp	r0, #0
 386 0040 F1D1     		bne	.L8
 387              		.loc 1 135 0
 388 0042 3846     		mov	r0, r7
 389 0044 FFF7FEFF 		bl	chThdSetPriority
 390              	.LVL26:
 391              		.loc 1 136 0
 392 0048 281A     		subs	r0, r5, r0
 393              	.LVL27:
 394 004a 4142     		rsbs	r1, r0, #0
 395 004c 4141     		adcs	r1, r1, r0
 396 004e 0320     		movs	r0, #3
 397 0050 FFF7FEFF 		bl	_test_assert
ARM GAS  /tmp/cc7GtYXw.s 			page 8


 398              	.LVL28:
 399 0054 0028     		cmp	r0, #0
 400 0056 E6D1     		bne	.L8
 401              		.loc 1 138 0
 402 0058 B369     		ldr	r3, [r6, #24]
 403 005a 9968     		ldr	r1, [r3, #8]
 404 005c 0A1B     		subs	r2, r1, r4
 405 005e 5142     		rsbs	r1, r2, #0
 406 0060 5141     		adcs	r1, r1, r2
 407 0062 0420     		movs	r0, #4
 408 0064 FFF7FEFF 		bl	_test_assert
 409              	.LVL29:
 410 0068 0028     		cmp	r0, #0
 411 006a DCD1     		bne	.L8
 412              	.LBB6:
 413              		.loc 1 143 0
 414 006c 4023     		movs	r3, #64
 415              	@ 143 "../../test/testthd.c" 1
 416 006e 83F31188 		msr     BASEPRI, r3
 417              	@ 0 "" 2
 418              		.thumb
 419              	.LBE6:
 420              		.loc 1 144 0
 421 0072 B269     		ldr	r2, [r6, #24]
 422 0074 9368     		ldr	r3, [r2, #8]
 423 0076 991C     		adds	r1, r3, #2
 424 0078 9160     		str	r1, [r2, #8]
 425              	.LBB7:
 426              		.loc 1 145 0
 427 007a 0346     		mov	r3, r0
 428              	@ 145 "../../test/testthd.c" 1
 429 007c 83F31188 		msr     BASEPRI, r3
 430              	@ 0 "" 2
 431              		.thumb
 432              	.LBE7:
 433              		.loc 1 146 0
 434 0080 B369     		ldr	r3, [r6, #24]
 435 0082 9968     		ldr	r1, [r3, #8]
 436 0084 A71C     		adds	r7, r4, #2
 437 0086 CB1B     		subs	r3, r1, r7
 438 0088 5942     		rsbs	r1, r3, #0
 439 008a 5941     		adcs	r1, r1, r3
 440 008c 0520     		movs	r0, #5
 441 008e FFF7FEFF 		bl	_test_assert
 442              	.LVL30:
 443 0092 0028     		cmp	r0, #0
 444 0094 C7D1     		bne	.L8
 445              		.loc 1 150 0
 446 0096 2846     		mov	r0, r5
 447 0098 FFF7FEFF 		bl	chThdSetPriority
 448              	.LVL31:
 449              		.loc 1 151 0
 450 009c B0EB040C 		subs	ip, r0, r4
 451 00a0 DCF10001 		rsbs	r1, ip, #0
 452 00a4 51EB0C01 		adcs	r1, r1, ip
 453 00a8 0620     		movs	r0, #6
 454              	.LVL32:
ARM GAS  /tmp/cc7GtYXw.s 			page 9


 455 00aa FFF7FEFF 		bl	_test_assert
 456              	.LVL33:
 457 00ae 0028     		cmp	r0, #0
 458 00b0 B9D1     		bne	.L8
 459              		.loc 1 153 0
 460 00b2 B369     		ldr	r3, [r6, #24]
 461 00b4 9968     		ldr	r1, [r3, #8]
 462 00b6 B7EB010E 		subs	lr, r7, r1
 463 00ba DEF10001 		rsbs	r1, lr, #0
 464 00be 51EB0E01 		adcs	r1, r1, lr
 465 00c2 0720     		movs	r0, #7
 466 00c4 FFF7FEFF 		bl	_test_assert
 467              	.LVL34:
 468 00c8 0028     		cmp	r0, #0
 469 00ca ACD1     		bne	.L8
 470              		.loc 1 155 0
 471 00cc B369     		ldr	r3, [r6, #24]
 472 00ce 196C     		ldr	r1, [r3, #64]
 473 00d0 6F1A     		subs	r7, r5, r1
 474 00d2 7942     		rsbs	r1, r7, #0
 475 00d4 7941     		adcs	r1, r1, r7
 476 00d6 0820     		movs	r0, #8
 477 00d8 FFF7FEFF 		bl	_test_assert
 478              	.LVL35:
 479 00dc 0028     		cmp	r0, #0
 480 00de A2D1     		bne	.L8
 481              		.loc 1 159 0
 482 00e0 E71C     		adds	r7, r4, #3
 483 00e2 3846     		mov	r0, r7
 484 00e4 FFF7FEFF 		bl	chThdSetPriority
 485              	.LVL36:
 486              		.loc 1 160 0
 487 00e8 281A     		subs	r0, r5, r0
 488              	.LVL37:
 489 00ea 4142     		rsbs	r1, r0, #0
 490 00ec 4141     		adcs	r1, r1, r0
 491 00ee 0920     		movs	r0, #9
 492 00f0 FFF7FEFF 		bl	_test_assert
 493              	.LVL38:
 494 00f4 0028     		cmp	r0, #0
 495 00f6 96D1     		bne	.L8
 496              		.loc 1 162 0
 497 00f8 B369     		ldr	r3, [r6, #24]
 498 00fa 9968     		ldr	r1, [r3, #8]
 499 00fc 7A1A     		subs	r2, r7, r1
 500 00fe 5142     		rsbs	r1, r2, #0
 501 0100 5141     		adcs	r1, r1, r2
 502 0102 0A20     		movs	r0, #10
 503 0104 FFF7FEFF 		bl	_test_assert
 504              	.LVL39:
 505 0108 0028     		cmp	r0, #0
 506 010a 8CD1     		bne	.L8
 507              		.loc 1 164 0
 508 010c B369     		ldr	r3, [r6, #24]
 509 010e 196C     		ldr	r1, [r3, #64]
 510 0110 7B1A     		subs	r3, r7, r1
 511 0112 5942     		rsbs	r1, r3, #0
ARM GAS  /tmp/cc7GtYXw.s 			page 10


 512 0114 5941     		adcs	r1, r1, r3
 513 0116 0B20     		movs	r0, #11
 514 0118 FFF7FEFF 		bl	_test_assert
 515              	.LVL40:
 516 011c 0028     		cmp	r0, #0
 517 011e 82D1     		bne	.L8
 518              	.LBB8:
 519              		.loc 1 167 0
 520 0120 4023     		movs	r3, #64
 521              	@ 167 "../../test/testthd.c" 1
 522 0122 83F31188 		msr     BASEPRI, r3
 523              	@ 0 "" 2
 524              		.thumb
 525              	.LBE8:
 526              		.loc 1 168 0
 527 0126 B269     		ldr	r2, [r6, #24]
 528              	.LBB9:
 529              		.loc 1 170 0
 530 0128 0346     		mov	r3, r0
 531              	.LBE9:
 532              		.loc 1 168 0
 533 012a 9460     		str	r4, [r2, #8]
 534              		.loc 1 169 0
 535 012c 1464     		str	r4, [r2, #64]
 536              	.LBB10:
 537              		.loc 1 170 0
 538              	@ 170 "../../test/testthd.c" 1
 539 012e 83F31188 		msr     BASEPRI, r3
 540              	@ 0 "" 2
 541              		.thumb
 542 0132 78E7     		b	.L8
 543              	.L15:
 544              		.align	2
 545              	.L14:
 546 0134 00000000 		.word	rlist
 547              	.LBE10:
 548              		.cfi_endproc
 549              	.LFE121:
 550              		.size	thd3_execute, .-thd3_execute
 551 0138 AFF30080 		.section	.text.thd4_execute,"ax",%progbits
 551      AFF30080 
 552              		.align	2
 553              		.p2align 4,,15
 554              		.thumb
 555              		.thumb_func
 556              		.type	thd4_execute, %function
 557              	thd4_execute:
 558              	.LFB122:
 559              		.loc 1 189 0
 560              		.cfi_startproc
 561              		@ args = 0, pretend = 0, frame = 0
 562              		@ frame_needed = 0, uses_anonymous_args = 0
 563 0000 38B5     		push	{r3, r4, r5, lr}
 564              		.cfi_def_cfa_offset 16
 565              		.cfi_offset 3, -16
 566              		.cfi_offset 4, -12
 567              		.cfi_offset 5, -8
ARM GAS  /tmp/cc7GtYXw.s 			page 11


 568              		.cfi_offset 14, -4
 569              		.loc 1 195 0
 570 0002 1E4D     		ldr	r5, .L21
 571              		.loc 1 192 0
 572 0004 FFF7FEFF 		bl	test_wait_tick
 573              	.LVL41:
 574              		.loc 1 195 0
 575 0008 EC68     		ldr	r4, [r5, #12]
 576              	.LVL42:
 577              		.loc 1 196 0
 578 000a 4FF47A70 		mov	r0, #1000
 579 000e FFF7FEFF 		bl	chThdSleep
 580              	.LVL43:
 581              		.loc 1 197 0
 582 0012 04F57A71 		add	r1, r4, #1000
 583 0016 04F2E932 		addw	r2, r4, #1001
 584 001a 0120     		movs	r0, #1
 585 001c FFF7FEFF 		bl	_test_assert_time_window
 586              	.LVL44:
 587 0020 00B1     		cbz	r0, .L20
 588              	.LVL45:
 589              	.L16:
 590 0022 38BD     		pop	{r3, r4, r5, pc}
 591              	.LVL46:
 592              	.L20:
 593              		.loc 1 200 0
 594 0024 EC68     		ldr	r4, [r5, #12]
 595              	.LVL47:
 596              		.loc 1 201 0
 597 0026 4FF47A70 		mov	r0, #1000
 598 002a FFF7FEFF 		bl	chThdSleep
 599              	.LVL48:
 600              		.loc 1 202 0
 601 002e 04F57A71 		add	r1, r4, #1000
 602 0032 04F2E932 		addw	r2, r4, #1001
 603 0036 0220     		movs	r0, #2
 604 0038 FFF7FEFF 		bl	_test_assert_time_window
 605              	.LVL49:
 606 003c 0028     		cmp	r0, #0
 607 003e F0D1     		bne	.L16
 608              	.LBB13:
 609              	.LBB14:
 610              		.loc 1 205 0
 611 0040 EC68     		ldr	r4, [r5, #12]
 612              	.LVL50:
 613              		.loc 1 206 0
 614 0042 42F21070 		movw	r0, #10000
 615 0046 FFF7FEFF 		bl	chThdSleep
 616              	.LVL51:
 617              		.loc 1 207 0
 618 004a 04F51C51 		add	r1, r4, #9984
 619 004e 0A46     		mov	r2, r1
 620 0050 1132     		adds	r2, r2, #17
 621 0052 1031     		adds	r1, r1, #16
 622 0054 0320     		movs	r0, #3
 623 0056 FFF7FEFF 		bl	_test_assert_time_window
 624              	.LVL52:
ARM GAS  /tmp/cc7GtYXw.s 			page 12


 625 005a 0028     		cmp	r0, #0
 626 005c E1D1     		bne	.L16
 627              		.loc 1 210 0
 628 005e EC68     		ldr	r4, [r5, #12]
 629              	.LVL53:
 630 0060 04F57A75 		add	r5, r4, #1000
 631              	.LVL54:
 632              		.loc 1 211 0
 633 0064 2846     		mov	r0, r5
 634 0066 FFF7FEFF 		bl	chThdSleepUntil
 635              	.LVL55:
 636              		.loc 1 212 0
 637 006a 2946     		mov	r1, r5
 638 006c 04F2E932 		addw	r2, r4, #1001
 639 0070 0420     		movs	r0, #4
 640              	.LBE14:
 641              	.LBE13:
 642              		.loc 1 213 0
 643 0072 BDE83840 		pop	{r3, r4, r5, lr}
 644              	.LVL56:
 645              	.LBB16:
 646              	.LBB15:
 647              		.loc 1 212 0
 648 0076 FFF7FEBF 		b	_test_assert_time_window
 649              	.LVL57:
 650              	.L22:
 651 007a 00BF     		.align	2
 652              	.L21:
 653 007c 00000000 		.word	vtlist
 654              	.LBE15:
 655              	.LBE16:
 656              		.cfi_endproc
 657              	.LFE122:
 658              		.size	thd4_execute, .-thd4_execute
 659              		.global	patternthd
 660              		.global	testthd4
 661              		.global	testthd3
 662              		.global	testthd2
 663              		.global	testthd1
 664              		.section	.rodata.testthd1,"a",%progbits
 665              		.align	2
 666              		.type	testthd1, %object
 667              		.size	testthd1, 16
 668              	testthd1:
 669 0000 64000000 		.word	.LC9
 670 0004 00000000 		.word	0
 671 0008 00000000 		.word	0
 672 000c 00000000 		.word	thd1_execute
 673              		.section	.rodata.testthd2,"a",%progbits
 674              		.align	2
 675              		.type	testthd2, %object
 676              		.size	testthd2, 16
 677              	testthd2:
 678 0000 48000000 		.word	.LC8
 679 0004 00000000 		.word	0
 680 0008 00000000 		.word	0
 681 000c 00000000 		.word	thd2_execute
ARM GAS  /tmp/cc7GtYXw.s 			page 13


 682              		.section	.rodata.testthd3,"a",%progbits
 683              		.align	2
 684              		.type	testthd3, %object
 685              		.size	testthd3, 16
 686              	testthd3:
 687 0000 2C000000 		.word	.LC7
 688 0004 00000000 		.word	0
 689 0008 00000000 		.word	0
 690 000c 00000000 		.word	thd3_execute
 691              		.section	.rodata.testthd4,"a",%progbits
 692              		.align	2
 693              		.type	testthd4, %object
 694              		.size	testthd4, 16
 695              	testthd4:
 696 0000 1C000000 		.word	.LC6
 697 0004 00000000 		.word	0
 698 0008 00000000 		.word	0
 699 000c 00000000 		.word	thd4_execute
 700              		.section	.rodata.patternthd,"a",%progbits
 701              		.align	2
 702              		.type	patternthd, %object
 703              		.size	patternthd, 20
 704              	patternthd:
 705 0000 00000000 		.word	testthd1
 706 0004 00000000 		.word	testthd2
 707 0008 00000000 		.word	testthd3
 708 000c 00000000 		.word	testthd4
 709 0010 00000000 		.word	0
 710              		.section	.rodata.str1.4,"aMS",%progbits,1
 711              		.align	2
 712              	.LC0:
 713 0000 4500     		.ascii	"E\000"
 714 0002 0000     		.space	2
 715              	.LC1:
 716 0004 4400     		.ascii	"D\000"
 717 0006 0000     		.space	2
 718              	.LC2:
 719 0008 4300     		.ascii	"C\000"
 720 000a 0000     		.space	2
 721              	.LC3:
 722 000c 4200     		.ascii	"B\000"
 723 000e 0000     		.space	2
 724              	.LC4:
 725 0010 4100     		.ascii	"A\000"
 726 0012 0000     		.space	2
 727              	.LC5:
 728 0014 41424344 		.ascii	"ABCDE\000"
 728      4500
 729 001a 0000     		.space	2
 730              	.LC6:
 731 001c 54687265 		.ascii	"Threads, delays\000"
 731      6164732C 
 731      2064656C 
 731      61797300 
 732              	.LC7:
 733 002c 54687265 		.ascii	"Threads, priority change\000"
 733      6164732C 
ARM GAS  /tmp/cc7GtYXw.s 			page 14


 733      20707269 
 733      6F726974 
 733      79206368 
 734 0045 000000   		.space	3
 735              	.LC8:
 736 0048 54687265 		.ascii	"Threads, enqueuing test #2\000"
 736      6164732C 
 736      20656E71 
 736      75657569 
 736      6E672074 
 737 0063 00       		.space	1
 738              	.LC9:
 739 0064 54687265 		.ascii	"Threads, enqueuing test #1\000"
 739      6164732C 
 739      20656E71 
 739      75657569 
 739      6E672074 
 740 007f 00       		.text
 741              	.Letext0:
 742              		.file 2 "/usr/lib/gcc/arm-none-eabi/4.8/include/stddef.h"
 743              		.file 3 "/usr/include/newlib/machine/_default_types.h"
 744              		.file 4 "/usr/include/newlib/stdint.h"
 745              		.file 5 "../../os/ports/GCC/ARMCMx/chtypes.h"
 746              		.file 6 "../../os/kernel/include/chlists.h"
 747              		.file 7 "../../os/kernel/include/chthreads.h"
 748              		.file 8 "../../os/ports/GCC/ARMCMx/chcore_v7m.h"
 749              		.file 9 "../../os/kernel/include/chvt.h"
 750              		.file 10 "../../os/kernel/include/chschd.h"
 751              		.file 11 "../../os/kernel/include/chmtx.h"
 752              		.file 12 "../../test/test.h"
 753              		.file 13 "../../os/ports/common/ARMCMx/CMSIS/include/core_cm4.h"
 754              		.section	.debug_info,"",%progbits
 755              	.Ldebug_info0:
 756 0000 7C0C0000 		.4byte	0xc7c
 757 0004 0400     		.2byte	0x4
 758 0006 00000000 		.4byte	.Ldebug_abbrev0
 759 000a 04       		.byte	0x4
 760 000b 01       		.uleb128 0x1
 761 000c 08000000 		.4byte	.LASF104
 762 0010 01       		.byte	0x1
 763 0011 4F030000 		.4byte	.LASF105
 764 0015 67020000 		.4byte	.LASF106
 765 0019 60000000 		.4byte	.Ldebug_ranges0+0x60
 766 001d 00000000 		.4byte	0
 767 0021 00000000 		.4byte	.Ldebug_line0
 768 0025 02       		.uleb128 0x2
 769 0026 04       		.byte	0x4
 770 0027 05       		.byte	0x5
 771 0028 696E7400 		.ascii	"int\000"
 772 002c 03       		.uleb128 0x3
 773 002d B8000000 		.4byte	.LASF2
 774 0031 02       		.byte	0x2
 775 0032 D4       		.byte	0xd4
 776 0033 37000000 		.4byte	0x37
 777 0037 04       		.uleb128 0x4
 778 0038 04       		.byte	0x4
 779 0039 07       		.byte	0x7
ARM GAS  /tmp/cc7GtYXw.s 			page 15


 780 003a CA010000 		.4byte	.LASF0
 781 003e 04       		.uleb128 0x4
 782 003f 01       		.byte	0x1
 783 0040 06       		.byte	0x6
 784 0041 19010000 		.4byte	.LASF1
 785 0045 03       		.uleb128 0x3
 786 0046 C6000000 		.4byte	.LASF3
 787 004a 03       		.byte	0x3
 788 004b 1D       		.byte	0x1d
 789 004c 50000000 		.4byte	0x50
 790 0050 04       		.uleb128 0x4
 791 0051 01       		.byte	0x1
 792 0052 08       		.byte	0x8
 793 0053 A5030000 		.4byte	.LASF4
 794 0057 04       		.uleb128 0x4
 795 0058 02       		.byte	0x2
 796 0059 05       		.byte	0x5
 797 005a CC030000 		.4byte	.LASF5
 798 005e 04       		.uleb128 0x4
 799 005f 02       		.byte	0x2
 800 0060 07       		.byte	0x7
 801 0061 05020000 		.4byte	.LASF6
 802 0065 03       		.uleb128 0x3
 803 0066 3E020000 		.4byte	.LASF7
 804 006a 03       		.byte	0x3
 805 006b 3F       		.byte	0x3f
 806 006c 70000000 		.4byte	0x70
 807 0070 04       		.uleb128 0x4
 808 0071 04       		.byte	0x4
 809 0072 05       		.byte	0x5
 810 0073 59010000 		.4byte	.LASF8
 811 0077 03       		.uleb128 0x3
 812 0078 A1040000 		.4byte	.LASF9
 813 007c 03       		.byte	0x3
 814 007d 41       		.byte	0x41
 815 007e 82000000 		.4byte	0x82
 816 0082 04       		.uleb128 0x4
 817 0083 04       		.byte	0x4
 818 0084 07       		.byte	0x7
 819 0085 43040000 		.4byte	.LASF10
 820 0089 04       		.uleb128 0x4
 821 008a 08       		.byte	0x8
 822 008b 05       		.byte	0x5
 823 008c 0B010000 		.4byte	.LASF11
 824 0090 04       		.uleb128 0x4
 825 0091 08       		.byte	0x8
 826 0092 07       		.byte	0x7
 827 0093 D7000000 		.4byte	.LASF12
 828 0097 03       		.uleb128 0x3
 829 0098 E4040000 		.4byte	.LASF13
 830 009c 04       		.byte	0x4
 831 009d 2A       		.byte	0x2a
 832 009e 45000000 		.4byte	0x45
 833 00a2 03       		.uleb128 0x3
 834 00a3 9D030000 		.4byte	.LASF14
 835 00a7 04       		.byte	0x4
 836 00a8 41       		.byte	0x41
ARM GAS  /tmp/cc7GtYXw.s 			page 16


 837 00a9 65000000 		.4byte	0x65
 838 00ad 03       		.uleb128 0x3
 839 00ae 26040000 		.4byte	.LASF15
 840 00b2 04       		.byte	0x4
 841 00b3 42       		.byte	0x42
 842 00b4 77000000 		.4byte	0x77
 843 00b8 03       		.uleb128 0x3
 844 00b9 2D010000 		.4byte	.LASF16
 845 00bd 05       		.byte	0x5
 846 00be 2B       		.byte	0x2b
 847 00bf C3000000 		.4byte	0xc3
 848 00c3 04       		.uleb128 0x4
 849 00c4 01       		.byte	0x1
 850 00c5 02       		.byte	0x2
 851 00c6 97030000 		.4byte	.LASF17
 852 00ca 03       		.uleb128 0x3
 853 00cb 1E020000 		.4byte	.LASF18
 854 00cf 05       		.byte	0x5
 855 00d0 2C       		.byte	0x2c
 856 00d1 97000000 		.4byte	0x97
 857 00d5 03       		.uleb128 0x3
 858 00d6 62010000 		.4byte	.LASF19
 859 00da 05       		.byte	0x5
 860 00db 2D       		.byte	0x2d
 861 00dc 97000000 		.4byte	0x97
 862 00e0 03       		.uleb128 0x3
 863 00e1 64030000 		.4byte	.LASF20
 864 00e5 05       		.byte	0x5
 865 00e6 2E       		.byte	0x2e
 866 00e7 97000000 		.4byte	0x97
 867 00eb 03       		.uleb128 0x3
 868 00ec 88030000 		.4byte	.LASF21
 869 00f0 05       		.byte	0x5
 870 00f1 30       		.byte	0x30
 871 00f2 AD000000 		.4byte	0xad
 872 00f6 03       		.uleb128 0x3
 873 00f7 18020000 		.4byte	.LASF22
 874 00fb 05       		.byte	0x5
 875 00fc 31       		.byte	0x31
 876 00fd A2000000 		.4byte	0xa2
 877 0101 03       		.uleb128 0x3
 878 0102 32020000 		.4byte	.LASF23
 879 0106 05       		.byte	0x5
 880 0107 33       		.byte	0x33
 881 0108 AD000000 		.4byte	0xad
 882 010c 03       		.uleb128 0x3
 883 010d 83040000 		.4byte	.LASF24
 884 0111 05       		.byte	0x5
 885 0112 35       		.byte	0x35
 886 0113 AD000000 		.4byte	0xad
 887 0117 03       		.uleb128 0x3
 888 0118 03040000 		.4byte	.LASF25
 889 011c 06       		.byte	0x6
 890 011d 2A       		.byte	0x2a
 891 011e 22010000 		.4byte	0x122
 892 0122 05       		.uleb128 0x5
 893 0123 03040000 		.4byte	.LASF25
ARM GAS  /tmp/cc7GtYXw.s 			page 17


 894 0127 48       		.byte	0x48
 895 0128 07       		.byte	0x7
 896 0129 5E       		.byte	0x5e
 897 012a 13020000 		.4byte	0x213
 898 012e 06       		.uleb128 0x6
 899 012f F4030000 		.4byte	.LASF26
 900 0133 07       		.byte	0x7
 901 0134 5F       		.byte	0x5f
 902 0135 34020000 		.4byte	0x234
 903 0139 00       		.byte	0
 904 013a 06       		.uleb128 0x6
 905 013b 79030000 		.4byte	.LASF27
 906 013f 07       		.byte	0x7
 907 0140 61       		.byte	0x61
 908 0141 34020000 		.4byte	0x234
 909 0145 04       		.byte	0x4
 910 0146 06       		.uleb128 0x6
 911 0147 04010000 		.4byte	.LASF28
 912 014b 07       		.byte	0x7
 913 014c 63       		.byte	0x63
 914 014d EB000000 		.4byte	0xeb
 915 0151 08       		.byte	0x8
 916 0152 06       		.uleb128 0x6
 917 0153 27050000 		.4byte	.LASF29
 918 0157 07       		.byte	0x7
 919 0158 64       		.byte	0x64
 920 0159 F5020000 		.4byte	0x2f5
 921 015d 0C       		.byte	0xc
 922 015e 06       		.uleb128 0x6
 923 015f 8B010000 		.4byte	.LASF30
 924 0163 07       		.byte	0x7
 925 0164 66       		.byte	0x66
 926 0165 34020000 		.4byte	0x234
 927 0169 10       		.byte	0x10
 928 016a 06       		.uleb128 0x6
 929 016b F6020000 		.4byte	.LASF31
 930 016f 07       		.byte	0x7
 931 0170 67       		.byte	0x67
 932 0171 34020000 		.4byte	0x234
 933 0175 14       		.byte	0x14
 934 0176 06       		.uleb128 0x6
 935 0177 F3040000 		.4byte	.LASF32
 936 017b 07       		.byte	0x7
 937 017c 6E       		.byte	0x6e
 938 017d A8040000 		.4byte	0x4a8
 939 0181 18       		.byte	0x18
 940 0182 06       		.uleb128 0x6
 941 0183 D6030000 		.4byte	.LASF33
 942 0187 07       		.byte	0x7
 943 0188 79       		.byte	0x79
 944 0189 D5000000 		.4byte	0xd5
 945 018d 1C       		.byte	0x1c
 946 018e 06       		.uleb128 0x6
 947 018f FB030000 		.4byte	.LASF34
 948 0193 07       		.byte	0x7
 949 0194 7D       		.byte	0x7d
 950 0195 CA000000 		.4byte	0xca
ARM GAS  /tmp/cc7GtYXw.s 			page 18


 951 0199 1D       		.byte	0x1d
 952 019a 06       		.uleb128 0x6
 953 019b CD040000 		.4byte	.LASF35
 954 019f 07       		.byte	0x7
 955 01a0 82       		.byte	0x82
 956 01a1 E0000000 		.4byte	0xe0
 957 01a5 1E       		.byte	0x1e
 958 01a6 06       		.uleb128 0x6
 959 01a7 84010000 		.4byte	.LASF36
 960 01ab 07       		.byte	0x7
 961 01ac 8F       		.byte	0x8f
 962 01ad C5030000 		.4byte	0x3c5
 963 01b1 20       		.byte	0x20
 964 01b2 07       		.uleb128 0x7
 965 01b3 705F7500 		.ascii	"p_u\000"
 966 01b7 07       		.byte	0x7
 967 01b8 B4       		.byte	0xb4
 968 01b9 73040000 		.4byte	0x473
 969 01bd 24       		.byte	0x24
 970 01be 06       		.uleb128 0x6
 971 01bf A7020000 		.4byte	.LASF37
 972 01c3 07       		.byte	0x7
 973 01c4 B9       		.byte	0xb9
 974 01c5 5A020000 		.4byte	0x25a
 975 01c9 28       		.byte	0x28
 976 01ca 06       		.uleb128 0x6
 977 01cb DF010000 		.4byte	.LASF38
 978 01cf 07       		.byte	0x7
 979 01d0 BF       		.byte	0xbf
 980 01d1 3A020000 		.4byte	0x23a
 981 01d5 2C       		.byte	0x2c
 982 01d6 06       		.uleb128 0x6
 983 01d7 12050000 		.4byte	.LASF39
 984 01db 07       		.byte	0x7
 985 01dc C3       		.byte	0xc3
 986 01dd F6000000 		.4byte	0xf6
 987 01e1 34       		.byte	0x34
 988 01e2 06       		.uleb128 0x6
 989 01e3 13040000 		.4byte	.LASF40
 990 01e7 07       		.byte	0x7
 991 01e8 C9       		.byte	0xc9
 992 01e9 01010000 		.4byte	0x101
 993 01ed 38       		.byte	0x38
 994 01ee 06       		.uleb128 0x6
 995 01ef C2030000 		.4byte	.LASF41
 996 01f3 07       		.byte	0x7
 997 01f4 D0       		.byte	0xd0
 998 01f5 BA040000 		.4byte	0x4ba
 999 01f9 3C       		.byte	0x3c
 1000 01fa 06       		.uleb128 0x6
 1001 01fb 8D040000 		.4byte	.LASF42
 1002 01ff 07       		.byte	0x7
 1003 0200 D4       		.byte	0xd4
 1004 0201 EB000000 		.4byte	0xeb
 1005 0205 40       		.byte	0x40
 1006 0206 06       		.uleb128 0x6
 1007 0207 25010000 		.4byte	.LASF43
ARM GAS  /tmp/cc7GtYXw.s 			page 19


 1008 020b 07       		.byte	0x7
 1009 020c DA       		.byte	0xda
 1010 020d 77020000 		.4byte	0x277
 1011 0211 44       		.byte	0x44
 1012 0212 00       		.byte	0
 1013 0213 08       		.uleb128 0x8
 1014 0214 08       		.byte	0x8
 1015 0215 06       		.byte	0x6
 1016 0216 61       		.byte	0x61
 1017 0217 34020000 		.4byte	0x234
 1018 021b 06       		.uleb128 0x6
 1019 021c F4030000 		.4byte	.LASF26
 1020 0220 06       		.byte	0x6
 1021 0221 62       		.byte	0x62
 1022 0222 34020000 		.4byte	0x234
 1023 0226 00       		.byte	0
 1024 0227 06       		.uleb128 0x6
 1025 0228 79030000 		.4byte	.LASF27
 1026 022c 06       		.byte	0x6
 1027 022d 64       		.byte	0x64
 1028 022e 34020000 		.4byte	0x234
 1029 0232 04       		.byte	0x4
 1030 0233 00       		.byte	0
 1031 0234 09       		.uleb128 0x9
 1032 0235 04       		.byte	0x4
 1033 0236 17010000 		.4byte	0x117
 1034 023a 03       		.uleb128 0x3
 1035 023b 04030000 		.4byte	.LASF44
 1036 023f 06       		.byte	0x6
 1037 0240 66       		.byte	0x66
 1038 0241 13020000 		.4byte	0x213
 1039 0245 08       		.uleb128 0x8
 1040 0246 04       		.byte	0x4
 1041 0247 06       		.byte	0x6
 1042 0248 6B       		.byte	0x6b
 1043 0249 5A020000 		.4byte	0x25a
 1044 024d 06       		.uleb128 0x6
 1045 024e F4030000 		.4byte	.LASF26
 1046 0252 06       		.byte	0x6
 1047 0253 6D       		.byte	0x6d
 1048 0254 34020000 		.4byte	0x234
 1049 0258 00       		.byte	0
 1050 0259 00       		.byte	0
 1051 025a 03       		.uleb128 0x3
 1052 025b 26020000 		.4byte	.LASF45
 1053 025f 06       		.byte	0x6
 1054 0260 70       		.byte	0x70
 1055 0261 45020000 		.4byte	0x245
 1056 0265 04       		.uleb128 0x4
 1057 0266 04       		.byte	0x4
 1058 0267 07       		.byte	0x7
 1059 0268 B1020000 		.4byte	.LASF46
 1060 026c 03       		.uleb128 0x3
 1061 026d 9B010000 		.4byte	.LASF47
 1062 0271 08       		.byte	0x8
 1063 0272 E5       		.byte	0xe5
 1064 0273 77020000 		.4byte	0x277
ARM GAS  /tmp/cc7GtYXw.s 			page 20


 1065 0277 0A       		.uleb128 0xa
 1066 0278 04       		.byte	0x4
 1067 0279 0B       		.uleb128 0xb
 1068 027a B4040000 		.4byte	.LASF48
 1069 027e 24       		.byte	0x24
 1070 027f 08       		.byte	0x8
 1071 0280 0C01     		.2byte	0x10c
 1072 0282 F5020000 		.4byte	0x2f5
 1073 0286 0C       		.uleb128 0xc
 1074 0287 723400   		.ascii	"r4\000"
 1075 028a 08       		.byte	0x8
 1076 028b 1F01     		.2byte	0x11f
 1077 028d 6C020000 		.4byte	0x26c
 1078 0291 00       		.byte	0
 1079 0292 0C       		.uleb128 0xc
 1080 0293 723500   		.ascii	"r5\000"
 1081 0296 08       		.byte	0x8
 1082 0297 2001     		.2byte	0x120
 1083 0299 6C020000 		.4byte	0x26c
 1084 029d 04       		.byte	0x4
 1085 029e 0C       		.uleb128 0xc
 1086 029f 723600   		.ascii	"r6\000"
 1087 02a2 08       		.byte	0x8
 1088 02a3 2101     		.2byte	0x121
 1089 02a5 6C020000 		.4byte	0x26c
 1090 02a9 08       		.byte	0x8
 1091 02aa 0C       		.uleb128 0xc
 1092 02ab 723700   		.ascii	"r7\000"
 1093 02ae 08       		.byte	0x8
 1094 02af 2201     		.2byte	0x122
 1095 02b1 6C020000 		.4byte	0x26c
 1096 02b5 0C       		.byte	0xc
 1097 02b6 0C       		.uleb128 0xc
 1098 02b7 723800   		.ascii	"r8\000"
 1099 02ba 08       		.byte	0x8
 1100 02bb 2301     		.2byte	0x123
 1101 02bd 6C020000 		.4byte	0x26c
 1102 02c1 10       		.byte	0x10
 1103 02c2 0C       		.uleb128 0xc
 1104 02c3 723900   		.ascii	"r9\000"
 1105 02c6 08       		.byte	0x8
 1106 02c7 2401     		.2byte	0x124
 1107 02c9 6C020000 		.4byte	0x26c
 1108 02cd 14       		.byte	0x14
 1109 02ce 0C       		.uleb128 0xc
 1110 02cf 72313000 		.ascii	"r10\000"
 1111 02d3 08       		.byte	0x8
 1112 02d4 2501     		.2byte	0x125
 1113 02d6 6C020000 		.4byte	0x26c
 1114 02da 18       		.byte	0x18
 1115 02db 0C       		.uleb128 0xc
 1116 02dc 72313100 		.ascii	"r11\000"
 1117 02e0 08       		.byte	0x8
 1118 02e1 2601     		.2byte	0x126
 1119 02e3 6C020000 		.4byte	0x26c
 1120 02e7 1C       		.byte	0x1c
 1121 02e8 0C       		.uleb128 0xc
ARM GAS  /tmp/cc7GtYXw.s 			page 21


 1122 02e9 6C7200   		.ascii	"lr\000"
 1123 02ec 08       		.byte	0x8
 1124 02ed 2701     		.2byte	0x127
 1125 02ef 6C020000 		.4byte	0x26c
 1126 02f3 20       		.byte	0x20
 1127 02f4 00       		.byte	0
 1128 02f5 0B       		.uleb128 0xb
 1129 02f6 AC040000 		.4byte	.LASF49
 1130 02fa 04       		.byte	0x4
 1131 02fb 08       		.byte	0x8
 1132 02fc 3101     		.2byte	0x131
 1133 02fe 10030000 		.4byte	0x310
 1134 0302 0C       		.uleb128 0xc
 1135 0303 72313300 		.ascii	"r13\000"
 1136 0307 08       		.byte	0x8
 1137 0308 3201     		.2byte	0x132
 1138 030a 10030000 		.4byte	0x310
 1139 030e 00       		.byte	0
 1140 030f 00       		.byte	0
 1141 0310 09       		.uleb128 0x9
 1142 0311 04       		.byte	0x4
 1143 0312 79020000 		.4byte	0x279
 1144 0316 03       		.uleb128 0x3
 1145 0317 98040000 		.4byte	.LASF50
 1146 031b 09       		.byte	0x9
 1147 031c 58       		.byte	0x58
 1148 031d 21030000 		.4byte	0x321
 1149 0321 09       		.uleb128 0x9
 1150 0322 04       		.byte	0x4
 1151 0323 27030000 		.4byte	0x327
 1152 0327 0D       		.uleb128 0xd
 1153 0328 32030000 		.4byte	0x332
 1154 032c 0E       		.uleb128 0xe
 1155 032d 77020000 		.4byte	0x277
 1156 0331 00       		.byte	0
 1157 0332 03       		.uleb128 0x3
 1158 0333 F8010000 		.4byte	.LASF51
 1159 0337 09       		.byte	0x9
 1160 0338 5D       		.byte	0x5d
 1161 0339 3D030000 		.4byte	0x33d
 1162 033d 05       		.uleb128 0x5
 1163 033e F8010000 		.4byte	.LASF51
 1164 0342 14       		.byte	0x14
 1165 0343 09       		.byte	0x9
 1166 0344 64       		.byte	0x64
 1167 0345 86030000 		.4byte	0x386
 1168 0349 06       		.uleb128 0x6
 1169 034a D7010000 		.4byte	.LASF52
 1170 034e 09       		.byte	0x9
 1171 034f 65       		.byte	0x65
 1172 0350 86030000 		.4byte	0x386
 1173 0354 00       		.byte	0
 1174 0355 06       		.uleb128 0x6
 1175 0356 A4010000 		.4byte	.LASF53
 1176 035a 09       		.byte	0x9
 1177 035b 67       		.byte	0x67
 1178 035c 86030000 		.4byte	0x386
ARM GAS  /tmp/cc7GtYXw.s 			page 22


 1179 0360 04       		.byte	0x4
 1180 0361 06       		.uleb128 0x6
 1181 0362 1E040000 		.4byte	.LASF54
 1182 0366 09       		.byte	0x9
 1183 0367 69       		.byte	0x69
 1184 0368 0C010000 		.4byte	0x10c
 1185 036c 08       		.byte	0x8
 1186 036d 06       		.uleb128 0x6
 1187 036e 2D050000 		.4byte	.LASF55
 1188 0372 09       		.byte	0x9
 1189 0373 6A       		.byte	0x6a
 1190 0374 16030000 		.4byte	0x316
 1191 0378 0C       		.byte	0xc
 1192 0379 06       		.uleb128 0x6
 1193 037a BB040000 		.4byte	.LASF56
 1194 037e 09       		.byte	0x9
 1195 037f 6C       		.byte	0x6c
 1196 0380 77020000 		.4byte	0x277
 1197 0384 10       		.byte	0x10
 1198 0385 00       		.byte	0
 1199 0386 09       		.uleb128 0x9
 1200 0387 04       		.byte	0x4
 1201 0388 32030000 		.4byte	0x332
 1202 038c 08       		.uleb128 0x8
 1203 038d 10       		.byte	0x10
 1204 038e 09       		.byte	0x9
 1205 038f 76       		.byte	0x76
 1206 0390 C5030000 		.4byte	0x3c5
 1207 0394 06       		.uleb128 0x6
 1208 0395 D7010000 		.4byte	.LASF52
 1209 0399 09       		.byte	0x9
 1210 039a 77       		.byte	0x77
 1211 039b 86030000 		.4byte	0x386
 1212 039f 00       		.byte	0
 1213 03a0 06       		.uleb128 0x6
 1214 03a1 A4010000 		.4byte	.LASF53
 1215 03a5 09       		.byte	0x9
 1216 03a6 79       		.byte	0x79
 1217 03a7 86030000 		.4byte	0x386
 1218 03ab 04       		.byte	0x4
 1219 03ac 06       		.uleb128 0x6
 1220 03ad 1E040000 		.4byte	.LASF54
 1221 03b1 09       		.byte	0x9
 1222 03b2 7B       		.byte	0x7b
 1223 03b3 0C010000 		.4byte	0x10c
 1224 03b7 08       		.byte	0x8
 1225 03b8 06       		.uleb128 0x6
 1226 03b9 07050000 		.4byte	.LASF57
 1227 03bd 09       		.byte	0x9
 1228 03be 7C       		.byte	0x7c
 1229 03bf C5030000 		.4byte	0x3c5
 1230 03c3 0C       		.byte	0xc
 1231 03c4 00       		.byte	0
 1232 03c5 0F       		.uleb128 0xf
 1233 03c6 0C010000 		.4byte	0x10c
 1234 03ca 03       		.uleb128 0x3
 1235 03cb 18050000 		.4byte	.LASF58
ARM GAS  /tmp/cc7GtYXw.s 			page 23


 1236 03cf 09       		.byte	0x9
 1237 03d0 7D       		.byte	0x7d
 1238 03d1 8C030000 		.4byte	0x38c
 1239 03d5 08       		.uleb128 0x8
 1240 03d6 1C       		.byte	0x1c
 1241 03d7 0A       		.byte	0xa
 1242 03d8 5E       		.byte	0x5e
 1243 03d9 26040000 		.4byte	0x426
 1244 03dd 06       		.uleb128 0x6
 1245 03de 2F040000 		.4byte	.LASF59
 1246 03e2 0A       		.byte	0xa
 1247 03e3 5F       		.byte	0x5f
 1248 03e4 3A020000 		.4byte	0x23a
 1249 03e8 00       		.byte	0
 1250 03e9 06       		.uleb128 0x6
 1251 03ea E6030000 		.4byte	.LASF60
 1252 03ee 0A       		.byte	0xa
 1253 03ef 60       		.byte	0x60
 1254 03f0 EB000000 		.4byte	0xeb
 1255 03f4 08       		.byte	0x8
 1256 03f5 06       		.uleb128 0x6
 1257 03f6 FE020000 		.4byte	.LASF61
 1258 03fa 0A       		.byte	0xa
 1259 03fb 62       		.byte	0x62
 1260 03fc F5020000 		.4byte	0x2f5
 1261 0400 0C       		.byte	0xc
 1262 0401 06       		.uleb128 0x6
 1263 0402 93010000 		.4byte	.LASF62
 1264 0406 0A       		.byte	0xa
 1265 0407 65       		.byte	0x65
 1266 0408 34020000 		.4byte	0x234
 1267 040c 10       		.byte	0x10
 1268 040d 06       		.uleb128 0x6
 1269 040e 37030000 		.4byte	.LASF63
 1270 0412 0A       		.byte	0xa
 1271 0413 66       		.byte	0x66
 1272 0414 34020000 		.4byte	0x234
 1273 0418 14       		.byte	0x14
 1274 0419 06       		.uleb128 0x6
 1275 041a 55040000 		.4byte	.LASF64
 1276 041e 0A       		.byte	0xa
 1277 041f 69       		.byte	0x69
 1278 0420 34020000 		.4byte	0x234
 1279 0424 18       		.byte	0x18
 1280 0425 00       		.byte	0
 1281 0426 03       		.uleb128 0x3
 1282 0427 D4040000 		.4byte	.LASF65
 1283 042b 0A       		.byte	0xa
 1284 042c 6B       		.byte	0x6b
 1285 042d D5030000 		.4byte	0x3d5
 1286 0431 05       		.uleb128 0x5
 1287 0432 DE020000 		.4byte	.LASF66
 1288 0436 10       		.byte	0x10
 1289 0437 0B       		.byte	0xb
 1290 0438 2C       		.byte	0x2c
 1291 0439 62040000 		.4byte	0x462
 1292 043d 06       		.uleb128 0x6
ARM GAS  /tmp/cc7GtYXw.s 			page 24


 1293 043e 34010000 		.4byte	.LASF67
 1294 0442 0B       		.byte	0xb
 1295 0443 2D       		.byte	0x2d
 1296 0444 3A020000 		.4byte	0x23a
 1297 0448 00       		.byte	0
 1298 0449 06       		.uleb128 0x6
 1299 044a 1F050000 		.4byte	.LASF68
 1300 044e 0B       		.byte	0xb
 1301 044f 2F       		.byte	0x2f
 1302 0450 34020000 		.4byte	0x234
 1303 0454 08       		.byte	0x8
 1304 0455 06       		.uleb128 0x6
 1305 0456 7C040000 		.4byte	.LASF69
 1306 045a 0B       		.byte	0xb
 1307 045b 31       		.byte	0x31
 1308 045c 62040000 		.4byte	0x462
 1309 0460 0C       		.byte	0xc
 1310 0461 00       		.byte	0
 1311 0462 09       		.uleb128 0x9
 1312 0463 04       		.byte	0x4
 1313 0464 31040000 		.4byte	0x431
 1314 0468 03       		.uleb128 0x3
 1315 0469 DE020000 		.4byte	.LASF66
 1316 046d 0B       		.byte	0xb
 1317 046e 33       		.byte	0x33
 1318 046f 31040000 		.4byte	0x431
 1319 0473 10       		.uleb128 0x10
 1320 0474 04       		.byte	0x4
 1321 0475 07       		.byte	0x7
 1322 0476 96       		.byte	0x96
 1323 0477 A8040000 		.4byte	0x4a8
 1324 047b 11       		.uleb128 0x11
 1325 047c BF000000 		.4byte	.LASF70
 1326 0480 07       		.byte	0x7
 1327 0481 9D       		.byte	0x9d
 1328 0482 F6000000 		.4byte	0xf6
 1329 0486 11       		.uleb128 0x11
 1330 0487 EE000000 		.4byte	.LASF71
 1331 048b 07       		.byte	0x7
 1332 048c A4       		.byte	0xa4
 1333 048d F6000000 		.4byte	0xf6
 1334 0491 11       		.uleb128 0x11
 1335 0492 EC040000 		.4byte	.LASF72
 1336 0496 07       		.byte	0x7
 1337 0497 AB       		.byte	0xab
 1338 0498 77020000 		.4byte	0x277
 1339 049c 11       		.uleb128 0x11
 1340 049d ED030000 		.4byte	.LASF73
 1341 04a1 07       		.byte	0x7
 1342 04a2 B2       		.byte	0xb2
 1343 04a3 01010000 		.4byte	0x101
 1344 04a7 00       		.byte	0
 1345 04a8 09       		.uleb128 0x9
 1346 04a9 04       		.byte	0x4
 1347 04aa AE040000 		.4byte	0x4ae
 1348 04ae 12       		.uleb128 0x12
 1349 04af B3040000 		.4byte	0x4b3
ARM GAS  /tmp/cc7GtYXw.s 			page 25


 1350 04b3 04       		.uleb128 0x4
 1351 04b4 01       		.byte	0x1
 1352 04b5 08       		.byte	0x8
 1353 04b6 5F040000 		.4byte	.LASF74
 1354 04ba 09       		.uleb128 0x9
 1355 04bb 04       		.byte	0x4
 1356 04bc 68040000 		.4byte	0x468
 1357 04c0 03       		.uleb128 0x3
 1358 04c1 00000000 		.4byte	.LASF75
 1359 04c5 07       		.byte	0x7
 1360 04c6 E5       		.byte	0xe5
 1361 04c7 CB040000 		.4byte	0x4cb
 1362 04cb 09       		.uleb128 0x9
 1363 04cc 04       		.byte	0x4
 1364 04cd D1040000 		.4byte	0x4d1
 1365 04d1 13       		.uleb128 0x13
 1366 04d2 F6000000 		.4byte	0xf6
 1367 04d6 E0040000 		.4byte	0x4e0
 1368 04da 0E       		.uleb128 0xe
 1369 04db 77020000 		.4byte	0x277
 1370 04df 00       		.byte	0
 1371 04e0 05       		.uleb128 0x5
 1372 04e1 0A040000 		.4byte	.LASF76
 1373 04e5 10       		.byte	0x10
 1374 04e6 0C       		.byte	0xc
 1375 04e7 3B       		.byte	0x3b
 1376 04e8 1D050000 		.4byte	0x51d
 1377 04ec 06       		.uleb128 0x6
 1378 04ed F3010000 		.4byte	.LASF77
 1379 04f1 0C       		.byte	0xc
 1380 04f2 3C       		.byte	0x3c
 1381 04f3 A8040000 		.4byte	0x4a8
 1382 04f7 00       		.byte	0
 1383 04f8 06       		.uleb128 0x6
 1384 04f9 11030000 		.4byte	.LASF78
 1385 04fd 0C       		.byte	0xc
 1386 04fe 3D       		.byte	0x3d
 1387 04ff 1E050000 		.4byte	0x51e
 1388 0503 04       		.byte	0x4
 1389 0504 06       		.uleb128 0x6
 1390 0505 EA010000 		.4byte	.LASF79
 1391 0509 0C       		.byte	0xc
 1392 050a 3E       		.byte	0x3e
 1393 050b 1E050000 		.4byte	0x51e
 1394 050f 08       		.byte	0x8
 1395 0510 06       		.uleb128 0x6
 1396 0511 80030000 		.4byte	.LASF80
 1397 0515 0C       		.byte	0xc
 1398 0516 3F       		.byte	0x3f
 1399 0517 1E050000 		.4byte	0x51e
 1400 051b 0C       		.byte	0xc
 1401 051c 00       		.byte	0
 1402 051d 14       		.uleb128 0x14
 1403 051e 09       		.uleb128 0x9
 1404 051f 04       		.byte	0x4
 1405 0520 1D050000 		.4byte	0x51d
 1406 0524 15       		.uleb128 0x15
ARM GAS  /tmp/cc7GtYXw.s 			page 26


 1407 0525 64040000 		.4byte	.LASF107
 1408 0529 01       		.byte	0x1
 1409 052a BD       		.byte	0xbd
 1410 052b 01       		.byte	0x1
 1411 052c 3C050000 		.4byte	0x53c
 1412 0530 16       		.uleb128 0x16
 1413 0531 2D030000 		.4byte	.LASF108
 1414 0535 01       		.byte	0x1
 1415 0536 BE       		.byte	0xbe
 1416 0537 0C010000 		.4byte	0x10c
 1417 053b 00       		.byte	0
 1418 053c 17       		.uleb128 0x17
 1419 053d AC010000 		.4byte	.LASF81
 1420 0541 01       		.byte	0x1
 1421 0542 42       		.byte	0x42
 1422 0543 00000000 		.4byte	.LFB119
 1423 0547 C8000000 		.4byte	.LFE119-.LFB119
 1424 054b 01       		.uleb128 0x1
 1425 054c 9C       		.byte	0x9c
 1426 054d 4F060000 		.4byte	0x64f
 1427 0551 18       		.uleb128 0x18
 1428 0552 22000000 		.4byte	.LVL0
 1429 0556 5F0B0000 		.4byte	0xb5f
 1430 055a 7D050000 		.4byte	0x57d
 1431 055e 19       		.uleb128 0x19
 1432 055f 01       		.uleb128 0x1
 1433 0560 53       		.byte	0x53
 1434 0561 02       		.uleb128 0x2
 1435 0562 75       		.byte	0x75
 1436 0563 00       		.sleb128 0
 1437 0564 19       		.uleb128 0x19
 1438 0565 01       		.uleb128 0x1
 1439 0566 51       		.byte	0x51
 1440 0567 03       		.uleb128 0x3
 1441 0568 0A       		.byte	0xa
 1442 0569 5001     		.2byte	0x150
 1443 056b 19       		.uleb128 0x19
 1444 056c 01       		.uleb128 0x1
 1445 056d 50       		.byte	0x50
 1446 056e 03       		.uleb128 0x3
 1447 056f 76       		.byte	0x76
 1448 0570 00       		.sleb128 0
 1449 0571 06       		.byte	0x6
 1450 0572 19       		.uleb128 0x19
 1451 0573 02       		.uleb128 0x2
 1452 0574 7D       		.byte	0x7d
 1453 0575 00       		.sleb128 0
 1454 0576 05       		.uleb128 0x5
 1455 0577 03       		.byte	0x3
 1456 0578 00000000 		.4byte	.LC0
 1457 057c 00       		.byte	0
 1458 057d 18       		.uleb128 0x18
 1459 057e 3C000000 		.4byte	.LVL1
 1460 0582 5F0B0000 		.4byte	0xb5f
 1461 0586 A9050000 		.4byte	0x5a9
 1462 058a 19       		.uleb128 0x19
 1463 058b 01       		.uleb128 0x1
ARM GAS  /tmp/cc7GtYXw.s 			page 27


 1464 058c 53       		.byte	0x53
 1465 058d 02       		.uleb128 0x2
 1466 058e 75       		.byte	0x75
 1467 058f 00       		.sleb128 0
 1468 0590 19       		.uleb128 0x19
 1469 0591 01       		.uleb128 0x1
 1470 0592 51       		.byte	0x51
 1471 0593 03       		.uleb128 0x3
 1472 0594 0A       		.byte	0xa
 1473 0595 5001     		.2byte	0x150
 1474 0597 19       		.uleb128 0x19
 1475 0598 01       		.uleb128 0x1
 1476 0599 50       		.byte	0x50
 1477 059a 03       		.uleb128 0x3
 1478 059b 76       		.byte	0x76
 1479 059c 04       		.sleb128 4
 1480 059d 06       		.byte	0x6
 1481 059e 19       		.uleb128 0x19
 1482 059f 02       		.uleb128 0x2
 1483 05a0 7D       		.byte	0x7d
 1484 05a1 00       		.sleb128 0
 1485 05a2 05       		.uleb128 0x5
 1486 05a3 03       		.byte	0x3
 1487 05a4 04000000 		.4byte	.LC1
 1488 05a8 00       		.byte	0
 1489 05a9 18       		.uleb128 0x18
 1490 05aa 56000000 		.4byte	.LVL2
 1491 05ae 5F0B0000 		.4byte	0xb5f
 1492 05b2 D5050000 		.4byte	0x5d5
 1493 05b6 19       		.uleb128 0x19
 1494 05b7 01       		.uleb128 0x1
 1495 05b8 53       		.byte	0x53
 1496 05b9 02       		.uleb128 0x2
 1497 05ba 75       		.byte	0x75
 1498 05bb 00       		.sleb128 0
 1499 05bc 19       		.uleb128 0x19
 1500 05bd 01       		.uleb128 0x1
 1501 05be 51       		.byte	0x51
 1502 05bf 03       		.uleb128 0x3
 1503 05c0 0A       		.byte	0xa
 1504 05c1 5001     		.2byte	0x150
 1505 05c3 19       		.uleb128 0x19
 1506 05c4 01       		.uleb128 0x1
 1507 05c5 50       		.byte	0x50
 1508 05c6 03       		.uleb128 0x3
 1509 05c7 76       		.byte	0x76
 1510 05c8 08       		.sleb128 8
 1511 05c9 06       		.byte	0x6
 1512 05ca 19       		.uleb128 0x19
 1513 05cb 02       		.uleb128 0x2
 1514 05cc 7D       		.byte	0x7d
 1515 05cd 00       		.sleb128 0
 1516 05ce 05       		.uleb128 0x5
 1517 05cf 03       		.byte	0x3
 1518 05d0 08000000 		.4byte	.LC2
 1519 05d4 00       		.byte	0
 1520 05d5 18       		.uleb128 0x18
ARM GAS  /tmp/cc7GtYXw.s 			page 28


 1521 05d6 70000000 		.4byte	.LVL3
 1522 05da 5F0B0000 		.4byte	0xb5f
 1523 05de 01060000 		.4byte	0x601
 1524 05e2 19       		.uleb128 0x19
 1525 05e3 01       		.uleb128 0x1
 1526 05e4 53       		.byte	0x53
 1527 05e5 02       		.uleb128 0x2
 1528 05e6 75       		.byte	0x75
 1529 05e7 00       		.sleb128 0
 1530 05e8 19       		.uleb128 0x19
 1531 05e9 01       		.uleb128 0x1
 1532 05ea 51       		.byte	0x51
 1533 05eb 03       		.uleb128 0x3
 1534 05ec 0A       		.byte	0xa
 1535 05ed 5001     		.2byte	0x150
 1536 05ef 19       		.uleb128 0x19
 1537 05f0 01       		.uleb128 0x1
 1538 05f1 50       		.byte	0x50
 1539 05f2 03       		.uleb128 0x3
 1540 05f3 76       		.byte	0x76
 1541 05f4 0C       		.sleb128 12
 1542 05f5 06       		.byte	0x6
 1543 05f6 19       		.uleb128 0x19
 1544 05f7 02       		.uleb128 0x2
 1545 05f8 7D       		.byte	0x7d
 1546 05f9 00       		.sleb128 0
 1547 05fa 05       		.uleb128 0x5
 1548 05fb 03       		.byte	0x3
 1549 05fc 0C000000 		.4byte	.LC3
 1550 0600 00       		.byte	0
 1551 0601 18       		.uleb128 0x18
 1552 0602 8A000000 		.4byte	.LVL4
 1553 0606 5F0B0000 		.4byte	0xb5f
 1554 060a 2D060000 		.4byte	0x62d
 1555 060e 19       		.uleb128 0x19
 1556 060f 01       		.uleb128 0x1
 1557 0610 53       		.byte	0x53
 1558 0611 02       		.uleb128 0x2
 1559 0612 75       		.byte	0x75
 1560 0613 00       		.sleb128 0
 1561 0614 19       		.uleb128 0x19
 1562 0615 01       		.uleb128 0x1
 1563 0616 51       		.byte	0x51
 1564 0617 03       		.uleb128 0x3
 1565 0618 0A       		.byte	0xa
 1566 0619 5001     		.2byte	0x150
 1567 061b 19       		.uleb128 0x19
 1568 061c 01       		.uleb128 0x1
 1569 061d 50       		.byte	0x50
 1570 061e 03       		.uleb128 0x3
 1571 061f 76       		.byte	0x76
 1572 0620 10       		.sleb128 16
 1573 0621 06       		.byte	0x6
 1574 0622 19       		.uleb128 0x19
 1575 0623 02       		.uleb128 0x2
 1576 0624 7D       		.byte	0x7d
 1577 0625 00       		.sleb128 0
ARM GAS  /tmp/cc7GtYXw.s 			page 29


 1578 0626 05       		.uleb128 0x5
 1579 0627 03       		.byte	0x3
 1580 0628 10000000 		.4byte	.LC4
 1581 062c 00       		.byte	0
 1582 062d 1A       		.uleb128 0x1a
 1583 062e 90000000 		.4byte	.LVL5
 1584 0632 890B0000 		.4byte	0xb89
 1585 0636 1B       		.uleb128 0x1b
 1586 0637 9E000000 		.4byte	.LVL6
 1587 063b 900B0000 		.4byte	0xb90
 1588 063f 19       		.uleb128 0x19
 1589 0640 01       		.uleb128 0x1
 1590 0641 51       		.byte	0x51
 1591 0642 05       		.uleb128 0x5
 1592 0643 03       		.byte	0x3
 1593 0644 14000000 		.4byte	.LC5
 1594 0648 19       		.uleb128 0x19
 1595 0649 01       		.uleb128 0x1
 1596 064a 50       		.byte	0x50
 1597 064b 01       		.uleb128 0x1
 1598 064c 31       		.byte	0x31
 1599 064d 00       		.byte	0
 1600 064e 00       		.byte	0
 1601 064f 1C       		.uleb128 0x1c
 1602 0650 90030000 		.4byte	.LASF109
 1603 0654 01       		.byte	0x1
 1604 0655 3C       		.byte	0x3c
 1605 0656 F6000000 		.4byte	0xf6
 1606 065a 00000000 		.4byte	.LFB118
 1607 065e 0C000000 		.4byte	.LFE118-.LFB118
 1608 0662 01       		.uleb128 0x1
 1609 0663 9C       		.byte	0x9c
 1610 0664 7F060000 		.4byte	0x67f
 1611 0668 1D       		.uleb128 0x1d
 1612 0669 7000     		.ascii	"p\000"
 1613 066b 01       		.byte	0x1
 1614 066c 3C       		.byte	0x3c
 1615 066d 77020000 		.4byte	0x277
 1616 0671 00000000 		.4byte	.LLST0
 1617 0675 1A       		.uleb128 0x1a
 1618 0676 08000000 		.4byte	.LVL9
 1619 067a B00B0000 		.4byte	0xbb0
 1620 067e 00       		.byte	0
 1621 067f 17       		.uleb128 0x17
 1622 0680 48020000 		.4byte	.LASF82
 1623 0684 01       		.byte	0x1
 1624 0685 5E       		.byte	0x5e
 1625 0686 00000000 		.4byte	.LFB120
 1626 068a D8000000 		.4byte	.LFE120-.LFB120
 1627 068e 01       		.uleb128 0x1
 1628 068f 9C       		.byte	0x9c
 1629 0690 C9070000 		.4byte	0x7c9
 1630 0694 1E       		.uleb128 0x1e
 1631 0695 00000000 		.4byte	.Ldebug_ranges0+0
 1632 0699 AB060000 		.4byte	0x6ab
 1633 069d 1F       		.uleb128 0x1f
 1634 069e 746D7000 		.ascii	"tmp\000"
ARM GAS  /tmp/cc7GtYXw.s 			page 30


 1635 06a2 01       		.byte	0x1
 1636 06a3 65       		.byte	0x65
 1637 06a4 AD000000 		.4byte	0xad
 1638 06a8 01       		.uleb128 0x1
 1639 06a9 53       		.byte	0x53
 1640 06aa 00       		.byte	0
 1641 06ab 1E       		.uleb128 0x1e
 1642 06ac 18000000 		.4byte	.Ldebug_ranges0+0x18
 1643 06b0 C2060000 		.4byte	0x6c2
 1644 06b4 1F       		.uleb128 0x1f
 1645 06b5 746D7000 		.ascii	"tmp\000"
 1646 06b9 01       		.byte	0x1
 1647 06ba 67       		.byte	0x67
 1648 06bb AD000000 		.4byte	0xad
 1649 06bf 01       		.uleb128 0x1
 1650 06c0 53       		.byte	0x53
 1651 06c1 00       		.byte	0
 1652 06c2 18       		.uleb128 0x18
 1653 06c3 22000000 		.4byte	.LVL10
 1654 06c7 5F0B0000 		.4byte	0xb5f
 1655 06cb EE060000 		.4byte	0x6ee
 1656 06cf 19       		.uleb128 0x19
 1657 06d0 01       		.uleb128 0x1
 1658 06d1 53       		.byte	0x53
 1659 06d2 02       		.uleb128 0x2
 1660 06d3 75       		.byte	0x75
 1661 06d4 00       		.sleb128 0
 1662 06d5 19       		.uleb128 0x19
 1663 06d6 01       		.uleb128 0x1
 1664 06d7 51       		.byte	0x51
 1665 06d8 03       		.uleb128 0x3
 1666 06d9 0A       		.byte	0xa
 1667 06da 5001     		.2byte	0x150
 1668 06dc 19       		.uleb128 0x19
 1669 06dd 01       		.uleb128 0x1
 1670 06de 50       		.byte	0x50
 1671 06df 03       		.uleb128 0x3
 1672 06e0 76       		.byte	0x76
 1673 06e1 04       		.sleb128 4
 1674 06e2 06       		.byte	0x6
 1675 06e3 19       		.uleb128 0x19
 1676 06e4 02       		.uleb128 0x2
 1677 06e5 7D       		.byte	0x7d
 1678 06e6 00       		.sleb128 0
 1679 06e7 05       		.uleb128 0x5
 1680 06e8 03       		.byte	0x3
 1681 06e9 04000000 		.4byte	.LC1
 1682 06ed 00       		.byte	0
 1683 06ee 18       		.uleb128 0x18
 1684 06ef 3C000000 		.4byte	.LVL11
 1685 06f3 5F0B0000 		.4byte	0xb5f
 1686 06f7 1A070000 		.4byte	0x71a
 1687 06fb 19       		.uleb128 0x19
 1688 06fc 01       		.uleb128 0x1
 1689 06fd 53       		.byte	0x53
 1690 06fe 02       		.uleb128 0x2
 1691 06ff 75       		.byte	0x75
ARM GAS  /tmp/cc7GtYXw.s 			page 31


 1692 0700 00       		.sleb128 0
 1693 0701 19       		.uleb128 0x19
 1694 0702 01       		.uleb128 0x1
 1695 0703 51       		.byte	0x51
 1696 0704 03       		.uleb128 0x3
 1697 0705 0A       		.byte	0xa
 1698 0706 5001     		.2byte	0x150
 1699 0708 19       		.uleb128 0x19
 1700 0709 01       		.uleb128 0x1
 1701 070a 50       		.byte	0x50
 1702 070b 03       		.uleb128 0x3
 1703 070c 76       		.byte	0x76
 1704 070d 00       		.sleb128 0
 1705 070e 06       		.byte	0x6
 1706 070f 19       		.uleb128 0x19
 1707 0710 02       		.uleb128 0x2
 1708 0711 7D       		.byte	0x7d
 1709 0712 00       		.sleb128 0
 1710 0713 05       		.uleb128 0x5
 1711 0714 03       		.byte	0x3
 1712 0715 00000000 		.4byte	.LC0
 1713 0719 00       		.byte	0
 1714 071a 18       		.uleb128 0x18
 1715 071b 56000000 		.4byte	.LVL12
 1716 071f 5F0B0000 		.4byte	0xb5f
 1717 0723 46070000 		.4byte	0x746
 1718 0727 19       		.uleb128 0x19
 1719 0728 01       		.uleb128 0x1
 1720 0729 53       		.byte	0x53
 1721 072a 02       		.uleb128 0x2
 1722 072b 75       		.byte	0x75
 1723 072c 00       		.sleb128 0
 1724 072d 19       		.uleb128 0x19
 1725 072e 01       		.uleb128 0x1
 1726 072f 51       		.byte	0x51
 1727 0730 03       		.uleb128 0x3
 1728 0731 0A       		.byte	0xa
 1729 0732 5001     		.2byte	0x150
 1730 0734 19       		.uleb128 0x19
 1731 0735 01       		.uleb128 0x1
 1732 0736 50       		.byte	0x50
 1733 0737 03       		.uleb128 0x3
 1734 0738 76       		.byte	0x76
 1735 0739 10       		.sleb128 16
 1736 073a 06       		.byte	0x6
 1737 073b 19       		.uleb128 0x19
 1738 073c 02       		.uleb128 0x2
 1739 073d 7D       		.byte	0x7d
 1740 073e 00       		.sleb128 0
 1741 073f 05       		.uleb128 0x5
 1742 0740 03       		.byte	0x3
 1743 0741 10000000 		.4byte	.LC4
 1744 0745 00       		.byte	0
 1745 0746 18       		.uleb128 0x18
 1746 0747 70000000 		.4byte	.LVL13
 1747 074b 5F0B0000 		.4byte	0xb5f
 1748 074f 72070000 		.4byte	0x772
ARM GAS  /tmp/cc7GtYXw.s 			page 32


 1749 0753 19       		.uleb128 0x19
 1750 0754 01       		.uleb128 0x1
 1751 0755 53       		.byte	0x53
 1752 0756 02       		.uleb128 0x2
 1753 0757 75       		.byte	0x75
 1754 0758 00       		.sleb128 0
 1755 0759 19       		.uleb128 0x19
 1756 075a 01       		.uleb128 0x1
 1757 075b 51       		.byte	0x51
 1758 075c 03       		.uleb128 0x3
 1759 075d 0A       		.byte	0xa
 1760 075e 5001     		.2byte	0x150
 1761 0760 19       		.uleb128 0x19
 1762 0761 01       		.uleb128 0x1
 1763 0762 50       		.byte	0x50
 1764 0763 03       		.uleb128 0x3
 1765 0764 76       		.byte	0x76
 1766 0765 0C       		.sleb128 12
 1767 0766 06       		.byte	0x6
 1768 0767 19       		.uleb128 0x19
 1769 0768 02       		.uleb128 0x2
 1770 0769 7D       		.byte	0x7d
 1771 076a 00       		.sleb128 0
 1772 076b 05       		.uleb128 0x5
 1773 076c 03       		.byte	0x3
 1774 076d 0C000000 		.4byte	.LC3
 1775 0771 00       		.byte	0
 1776 0772 18       		.uleb128 0x18
 1777 0773 8E000000 		.4byte	.LVL14
 1778 0777 C10B0000 		.4byte	0xbc1
 1779 077b 9E070000 		.4byte	0x79e
 1780 077f 19       		.uleb128 0x19
 1781 0780 01       		.uleb128 0x1
 1782 0781 53       		.byte	0x53
 1783 0782 02       		.uleb128 0x2
 1784 0783 75       		.byte	0x75
 1785 0784 00       		.sleb128 0
 1786 0785 19       		.uleb128 0x19
 1787 0786 01       		.uleb128 0x1
 1788 0787 51       		.byte	0x51
 1789 0788 03       		.uleb128 0x3
 1790 0789 0A       		.byte	0xa
 1791 078a 5001     		.2byte	0x150
 1792 078c 19       		.uleb128 0x19
 1793 078d 01       		.uleb128 0x1
 1794 078e 50       		.byte	0x50
 1795 078f 03       		.uleb128 0x3
 1796 0790 76       		.byte	0x76
 1797 0791 08       		.sleb128 8
 1798 0792 06       		.byte	0x6
 1799 0793 19       		.uleb128 0x19
 1800 0794 02       		.uleb128 0x2
 1801 0795 7D       		.byte	0x7d
 1802 0796 00       		.sleb128 0
 1803 0797 05       		.uleb128 0x5
 1804 0798 03       		.byte	0x3
 1805 0799 08000000 		.4byte	.LC2
ARM GAS  /tmp/cc7GtYXw.s 			page 33


 1806 079d 00       		.byte	0
 1807 079e 1A       		.uleb128 0x1a
 1808 079f 9C000000 		.4byte	.LVL15
 1809 07a3 EB0B0000 		.4byte	0xbeb
 1810 07a7 1A       		.uleb128 0x1a
 1811 07a8 A0000000 		.4byte	.LVL16
 1812 07ac 890B0000 		.4byte	0xb89
 1813 07b0 1B       		.uleb128 0x1b
 1814 07b1 AE000000 		.4byte	.LVL17
 1815 07b5 900B0000 		.4byte	0xb90
 1816 07b9 19       		.uleb128 0x19
 1817 07ba 01       		.uleb128 0x1
 1818 07bb 51       		.byte	0x51
 1819 07bc 05       		.uleb128 0x5
 1820 07bd 03       		.byte	0x3
 1821 07be 14000000 		.4byte	.LC5
 1822 07c2 19       		.uleb128 0x19
 1823 07c3 01       		.uleb128 0x1
 1824 07c4 50       		.byte	0x50
 1825 07c5 01       		.uleb128 0x1
 1826 07c6 31       		.byte	0x31
 1827 07c7 00       		.byte	0
 1828 07c8 00       		.byte	0
 1829 07c9 17       		.uleb128 0x17
 1830 07ca 6C030000 		.4byte	.LASF83
 1831 07ce 01       		.byte	0x1
 1832 07cf 7E       		.byte	0x7e
 1833 07d0 00000000 		.4byte	.LFB121
 1834 07d4 38010000 		.4byte	.LFE121-.LFB121
 1835 07d8 01       		.uleb128 0x1
 1836 07d9 9C       		.byte	0x9c
 1837 07da 92090000 		.4byte	0x992
 1838 07de 20       		.uleb128 0x20
 1839 07df 32030000 		.4byte	.LASF84
 1840 07e3 01       		.byte	0x1
 1841 07e4 7F       		.byte	0x7f
 1842 07e5 EB000000 		.4byte	0xeb
 1843 07e9 01       		.uleb128 0x1
 1844 07ea 54       		.byte	0x54
 1845 07eb 21       		.uleb128 0x21
 1846 07ec 703100   		.ascii	"p1\000"
 1847 07ef 01       		.byte	0x1
 1848 07f0 7F       		.byte	0x7f
 1849 07f1 EB000000 		.4byte	0xeb
 1850 07f5 21000000 		.4byte	.LLST1
 1851 07f9 22       		.uleb128 0x22
 1852 07fa 6C000000 		.4byte	.LBB6
 1853 07fe 06000000 		.4byte	.LBE6-.LBB6
 1854 0802 14080000 		.4byte	0x814
 1855 0806 1F       		.uleb128 0x1f
 1856 0807 746D7000 		.ascii	"tmp\000"
 1857 080b 01       		.byte	0x1
 1858 080c 8F       		.byte	0x8f
 1859 080d AD000000 		.4byte	0xad
 1860 0811 01       		.uleb128 0x1
 1861 0812 53       		.byte	0x53
 1862 0813 00       		.byte	0
ARM GAS  /tmp/cc7GtYXw.s 			page 34


 1863 0814 22       		.uleb128 0x22
 1864 0815 7A000000 		.4byte	.LBB7
 1865 0819 06000000 		.4byte	.LBE7-.LBB7
 1866 081d 2F080000 		.4byte	0x82f
 1867 0821 1F       		.uleb128 0x1f
 1868 0822 746D7000 		.ascii	"tmp\000"
 1869 0826 01       		.byte	0x1
 1870 0827 91       		.byte	0x91
 1871 0828 AD000000 		.4byte	0xad
 1872 082c 01       		.uleb128 0x1
 1873 082d 53       		.byte	0x53
 1874 082e 00       		.byte	0
 1875 082f 22       		.uleb128 0x22
 1876 0830 20010000 		.4byte	.LBB8
 1877 0834 06000000 		.4byte	.LBE8-.LBB8
 1878 0838 4A080000 		.4byte	0x84a
 1879 083c 1F       		.uleb128 0x1f
 1880 083d 746D7000 		.ascii	"tmp\000"
 1881 0841 01       		.byte	0x1
 1882 0842 A7       		.byte	0xa7
 1883 0843 AD000000 		.4byte	0xad
 1884 0847 01       		.uleb128 0x1
 1885 0848 53       		.byte	0x53
 1886 0849 00       		.byte	0
 1887 084a 1E       		.uleb128 0x1e
 1888 084b 30000000 		.4byte	.Ldebug_ranges0+0x30
 1889 084f 61080000 		.4byte	0x861
 1890 0853 1F       		.uleb128 0x1f
 1891 0854 746D7000 		.ascii	"tmp\000"
 1892 0858 01       		.byte	0x1
 1893 0859 AA       		.byte	0xaa
 1894 085a AD000000 		.4byte	0xad
 1895 085e 01       		.uleb128 0x1
 1896 085f 53       		.byte	0x53
 1897 0860 00       		.byte	0
 1898 0861 18       		.uleb128 0x18
 1899 0862 10000000 		.4byte	.LVL19
 1900 0866 010C0000 		.4byte	0xc01
 1901 086a 75080000 		.4byte	0x875
 1902 086e 19       		.uleb128 0x19
 1903 086f 01       		.uleb128 0x1
 1904 0870 50       		.byte	0x50
 1905 0871 02       		.uleb128 0x2
 1906 0872 75       		.byte	0x75
 1907 0873 00       		.sleb128 0
 1908 0874 00       		.byte	0
 1909 0875 18       		.uleb128 0x18
 1910 0876 24000000 		.4byte	.LVL22
 1911 087a 170C0000 		.4byte	0xc17
 1912 087e 93080000 		.4byte	0x893
 1913 0882 19       		.uleb128 0x19
 1914 0883 01       		.uleb128 0x1
 1915 0884 51       		.byte	0x51
 1916 0885 07       		.uleb128 0x7
 1917 0886 77       		.byte	0x77
 1918 0887 00       		.sleb128 0
 1919 0888 74       		.byte	0x74
ARM GAS  /tmp/cc7GtYXw.s 			page 35


 1920 0889 00       		.sleb128 0
 1921 088a 1C       		.byte	0x1c
 1922 088b 30       		.byte	0x30
 1923 088c 29       		.byte	0x29
 1924 088d 19       		.uleb128 0x19
 1925 088e 01       		.uleb128 0x1
 1926 088f 50       		.byte	0x50
 1927 0890 01       		.uleb128 0x1
 1928 0891 31       		.byte	0x31
 1929 0892 00       		.byte	0
 1930 0893 18       		.uleb128 0x18
 1931 0894 3E000000 		.4byte	.LVL25
 1932 0898 170C0000 		.4byte	0xc17
 1933 089c A6080000 		.4byte	0x8a6
 1934 08a0 19       		.uleb128 0x19
 1935 08a1 01       		.uleb128 0x1
 1936 08a2 50       		.byte	0x50
 1937 08a3 01       		.uleb128 0x1
 1938 08a4 32       		.byte	0x32
 1939 08a5 00       		.byte	0
 1940 08a6 18       		.uleb128 0x18
 1941 08a7 48000000 		.4byte	.LVL26
 1942 08ab 010C0000 		.4byte	0xc01
 1943 08af BA080000 		.4byte	0x8ba
 1944 08b3 19       		.uleb128 0x19
 1945 08b4 01       		.uleb128 0x1
 1946 08b5 50       		.byte	0x50
 1947 08b6 02       		.uleb128 0x2
 1948 08b7 77       		.byte	0x77
 1949 08b8 00       		.sleb128 0
 1950 08b9 00       		.byte	0
 1951 08ba 18       		.uleb128 0x18
 1952 08bb 54000000 		.4byte	.LVL28
 1953 08bf 170C0000 		.4byte	0xc17
 1954 08c3 CD080000 		.4byte	0x8cd
 1955 08c7 19       		.uleb128 0x19
 1956 08c8 01       		.uleb128 0x1
 1957 08c9 50       		.byte	0x50
 1958 08ca 01       		.uleb128 0x1
 1959 08cb 33       		.byte	0x33
 1960 08cc 00       		.byte	0
 1961 08cd 18       		.uleb128 0x18
 1962 08ce 68000000 		.4byte	.LVL29
 1963 08d2 170C0000 		.4byte	0xc17
 1964 08d6 E0080000 		.4byte	0x8e0
 1965 08da 19       		.uleb128 0x19
 1966 08db 01       		.uleb128 0x1
 1967 08dc 50       		.byte	0x50
 1968 08dd 01       		.uleb128 0x1
 1969 08de 34       		.byte	0x34
 1970 08df 00       		.byte	0
 1971 08e0 18       		.uleb128 0x18
 1972 08e1 92000000 		.4byte	.LVL30
 1973 08e5 170C0000 		.4byte	0xc17
 1974 08e9 F3080000 		.4byte	0x8f3
 1975 08ed 19       		.uleb128 0x19
 1976 08ee 01       		.uleb128 0x1
ARM GAS  /tmp/cc7GtYXw.s 			page 36


 1977 08ef 50       		.byte	0x50
 1978 08f0 01       		.uleb128 0x1
 1979 08f1 35       		.byte	0x35
 1980 08f2 00       		.byte	0
 1981 08f3 18       		.uleb128 0x18
 1982 08f4 9C000000 		.4byte	.LVL31
 1983 08f8 010C0000 		.4byte	0xc01
 1984 08fc 07090000 		.4byte	0x907
 1985 0900 19       		.uleb128 0x19
 1986 0901 01       		.uleb128 0x1
 1987 0902 50       		.byte	0x50
 1988 0903 02       		.uleb128 0x2
 1989 0904 75       		.byte	0x75
 1990 0905 00       		.sleb128 0
 1991 0906 00       		.byte	0
 1992 0907 18       		.uleb128 0x18
 1993 0908 AE000000 		.4byte	.LVL33
 1994 090c 170C0000 		.4byte	0xc17
 1995 0910 1A090000 		.4byte	0x91a
 1996 0914 19       		.uleb128 0x19
 1997 0915 01       		.uleb128 0x1
 1998 0916 50       		.byte	0x50
 1999 0917 01       		.uleb128 0x1
 2000 0918 36       		.byte	0x36
 2001 0919 00       		.byte	0
 2002 091a 18       		.uleb128 0x18
 2003 091b C8000000 		.4byte	.LVL34
 2004 091f 170C0000 		.4byte	0xc17
 2005 0923 2D090000 		.4byte	0x92d
 2006 0927 19       		.uleb128 0x19
 2007 0928 01       		.uleb128 0x1
 2008 0929 50       		.byte	0x50
 2009 092a 01       		.uleb128 0x1
 2010 092b 37       		.byte	0x37
 2011 092c 00       		.byte	0
 2012 092d 18       		.uleb128 0x18
 2013 092e DC000000 		.4byte	.LVL35
 2014 0932 170C0000 		.4byte	0xc17
 2015 0936 48090000 		.4byte	0x948
 2016 093a 19       		.uleb128 0x19
 2017 093b 01       		.uleb128 0x1
 2018 093c 51       		.byte	0x51
 2019 093d 04       		.uleb128 0x4
 2020 093e 77       		.byte	0x77
 2021 093f 00       		.sleb128 0
 2022 0940 30       		.byte	0x30
 2023 0941 29       		.byte	0x29
 2024 0942 19       		.uleb128 0x19
 2025 0943 01       		.uleb128 0x1
 2026 0944 50       		.byte	0x50
 2027 0945 01       		.uleb128 0x1
 2028 0946 38       		.byte	0x38
 2029 0947 00       		.byte	0
 2030 0948 18       		.uleb128 0x18
 2031 0949 E8000000 		.4byte	.LVL36
 2032 094d 010C0000 		.4byte	0xc01
 2033 0951 5C090000 		.4byte	0x95c
ARM GAS  /tmp/cc7GtYXw.s 			page 37


 2034 0955 19       		.uleb128 0x19
 2035 0956 01       		.uleb128 0x1
 2036 0957 50       		.byte	0x50
 2037 0958 02       		.uleb128 0x2
 2038 0959 77       		.byte	0x77
 2039 095a 00       		.sleb128 0
 2040 095b 00       		.byte	0
 2041 095c 18       		.uleb128 0x18
 2042 095d F4000000 		.4byte	.LVL38
 2043 0961 170C0000 		.4byte	0xc17
 2044 0965 6F090000 		.4byte	0x96f
 2045 0969 19       		.uleb128 0x19
 2046 096a 01       		.uleb128 0x1
 2047 096b 50       		.byte	0x50
 2048 096c 01       		.uleb128 0x1
 2049 096d 39       		.byte	0x39
 2050 096e 00       		.byte	0
 2051 096f 18       		.uleb128 0x18
 2052 0970 08010000 		.4byte	.LVL39
 2053 0974 170C0000 		.4byte	0xc17
 2054 0978 82090000 		.4byte	0x982
 2055 097c 19       		.uleb128 0x19
 2056 097d 01       		.uleb128 0x1
 2057 097e 50       		.byte	0x50
 2058 097f 01       		.uleb128 0x1
 2059 0980 3A       		.byte	0x3a
 2060 0981 00       		.byte	0
 2061 0982 23       		.uleb128 0x23
 2062 0983 1C010000 		.4byte	.LVL40
 2063 0987 170C0000 		.4byte	0xc17
 2064 098b 19       		.uleb128 0x19
 2065 098c 01       		.uleb128 0x1
 2066 098d 50       		.byte	0x50
 2067 098e 01       		.uleb128 0x1
 2068 098f 3B       		.byte	0x3b
 2069 0990 00       		.byte	0
 2070 0991 00       		.byte	0
 2071 0992 24       		.uleb128 0x24
 2072 0993 24050000 		.4byte	0x524
 2073 0997 00000000 		.4byte	.LFB122
 2074 099b 80000000 		.4byte	.LFE122-.LFB122
 2075 099f 01       		.uleb128 0x1
 2076 09a0 9C       		.byte	0x9c
 2077 09a1 8E0A0000 		.4byte	0xa8e
 2078 09a5 25       		.uleb128 0x25
 2079 09a6 30050000 		.4byte	0x530
 2080 09aa 6B000000 		.4byte	.LLST2
 2081 09ae 1E       		.uleb128 0x1e
 2082 09af 48000000 		.4byte	.Ldebug_ranges0+0x48
 2083 09b3 1C0A0000 		.4byte	0xa1c
 2084 09b7 25       		.uleb128 0x25
 2085 09b8 30050000 		.4byte	0x530
 2086 09bc 89000000 		.4byte	.LLST3
 2087 09c0 18       		.uleb128 0x18
 2088 09c1 4A000000 		.4byte	.LVL51
 2089 09c5 310C0000 		.4byte	0xc31
 2090 09c9 D5090000 		.4byte	0x9d5
ARM GAS  /tmp/cc7GtYXw.s 			page 38


 2091 09cd 19       		.uleb128 0x19
 2092 09ce 01       		.uleb128 0x1
 2093 09cf 50       		.byte	0x50
 2094 09d0 03       		.uleb128 0x3
 2095 09d1 0A       		.byte	0xa
 2096 09d2 1027     		.2byte	0x2710
 2097 09d4 00       		.byte	0
 2098 09d5 18       		.uleb128 0x18
 2099 09d6 5A000000 		.4byte	.LVL52
 2100 09da 430C0000 		.4byte	0xc43
 2101 09de F8090000 		.4byte	0x9f8
 2102 09e2 19       		.uleb128 0x19
 2103 09e3 01       		.uleb128 0x1
 2104 09e4 52       		.byte	0x52
 2105 09e5 04       		.uleb128 0x4
 2106 09e6 74       		.byte	0x74
 2107 09e7 91CE00   		.sleb128 10001
 2108 09ea 19       		.uleb128 0x19
 2109 09eb 01       		.uleb128 0x1
 2110 09ec 51       		.byte	0x51
 2111 09ed 04       		.uleb128 0x4
 2112 09ee 74       		.byte	0x74
 2113 09ef 90CE00   		.sleb128 10000
 2114 09f2 19       		.uleb128 0x19
 2115 09f3 01       		.uleb128 0x1
 2116 09f4 50       		.byte	0x50
 2117 09f5 01       		.uleb128 0x1
 2118 09f6 33       		.byte	0x33
 2119 09f7 00       		.byte	0
 2120 09f8 18       		.uleb128 0x18
 2121 09f9 6A000000 		.4byte	.LVL55
 2122 09fd 620C0000 		.4byte	0xc62
 2123 0a01 0C0A0000 		.4byte	0xa0c
 2124 0a05 19       		.uleb128 0x19
 2125 0a06 01       		.uleb128 0x1
 2126 0a07 50       		.byte	0x50
 2127 0a08 02       		.uleb128 0x2
 2128 0a09 75       		.byte	0x75
 2129 0a0a 00       		.sleb128 0
 2130 0a0b 00       		.byte	0
 2131 0a0c 1B       		.uleb128 0x1b
 2132 0a0d 7A000000 		.4byte	.LVL57
 2133 0a11 430C0000 		.4byte	0xc43
 2134 0a15 19       		.uleb128 0x19
 2135 0a16 01       		.uleb128 0x1
 2136 0a17 50       		.byte	0x50
 2137 0a18 01       		.uleb128 0x1
 2138 0a19 34       		.byte	0x34
 2139 0a1a 00       		.byte	0
 2140 0a1b 00       		.byte	0
 2141 0a1c 1A       		.uleb128 0x1a
 2142 0a1d 08000000 		.4byte	.LVL41
 2143 0a21 740C0000 		.4byte	0xc74
 2144 0a25 18       		.uleb128 0x18
 2145 0a26 12000000 		.4byte	.LVL43
 2146 0a2a 310C0000 		.4byte	0xc31
 2147 0a2e 3A0A0000 		.4byte	0xa3a
ARM GAS  /tmp/cc7GtYXw.s 			page 39


 2148 0a32 19       		.uleb128 0x19
 2149 0a33 01       		.uleb128 0x1
 2150 0a34 50       		.byte	0x50
 2151 0a35 03       		.uleb128 0x3
 2152 0a36 0A       		.byte	0xa
 2153 0a37 E803     		.2byte	0x3e8
 2154 0a39 00       		.byte	0
 2155 0a3a 18       		.uleb128 0x18
 2156 0a3b 20000000 		.4byte	.LVL44
 2157 0a3f 430C0000 		.4byte	0xc43
 2158 0a43 5B0A0000 		.4byte	0xa5b
 2159 0a47 19       		.uleb128 0x19
 2160 0a48 01       		.uleb128 0x1
 2161 0a49 52       		.byte	0x52
 2162 0a4a 03       		.uleb128 0x3
 2163 0a4b 74       		.byte	0x74
 2164 0a4c E907     		.sleb128 1001
 2165 0a4e 19       		.uleb128 0x19
 2166 0a4f 01       		.uleb128 0x1
 2167 0a50 51       		.byte	0x51
 2168 0a51 03       		.uleb128 0x3
 2169 0a52 74       		.byte	0x74
 2170 0a53 E807     		.sleb128 1000
 2171 0a55 19       		.uleb128 0x19
 2172 0a56 01       		.uleb128 0x1
 2173 0a57 50       		.byte	0x50
 2174 0a58 01       		.uleb128 0x1
 2175 0a59 31       		.byte	0x31
 2176 0a5a 00       		.byte	0
 2177 0a5b 18       		.uleb128 0x18
 2178 0a5c 2E000000 		.4byte	.LVL48
 2179 0a60 310C0000 		.4byte	0xc31
 2180 0a64 700A0000 		.4byte	0xa70
 2181 0a68 19       		.uleb128 0x19
 2182 0a69 01       		.uleb128 0x1
 2183 0a6a 50       		.byte	0x50
 2184 0a6b 03       		.uleb128 0x3
 2185 0a6c 0A       		.byte	0xa
 2186 0a6d E803     		.2byte	0x3e8
 2187 0a6f 00       		.byte	0
 2188 0a70 23       		.uleb128 0x23
 2189 0a71 3C000000 		.4byte	.LVL49
 2190 0a75 430C0000 		.4byte	0xc43
 2191 0a79 19       		.uleb128 0x19
 2192 0a7a 01       		.uleb128 0x1
 2193 0a7b 52       		.byte	0x52
 2194 0a7c 03       		.uleb128 0x3
 2195 0a7d 74       		.byte	0x74
 2196 0a7e E907     		.sleb128 1001
 2197 0a80 19       		.uleb128 0x19
 2198 0a81 01       		.uleb128 0x1
 2199 0a82 51       		.byte	0x51
 2200 0a83 03       		.uleb128 0x3
 2201 0a84 74       		.byte	0x74
 2202 0a85 E807     		.sleb128 1000
 2203 0a87 19       		.uleb128 0x19
 2204 0a88 01       		.uleb128 0x1
ARM GAS  /tmp/cc7GtYXw.s 			page 40


 2205 0a89 50       		.byte	0x50
 2206 0a8a 01       		.uleb128 0x1
 2207 0a8b 32       		.byte	0x32
 2208 0a8c 00       		.byte	0
 2209 0a8d 00       		.byte	0
 2210 0a8e 26       		.uleb128 0x26
 2211 0a8f F7000000 		.4byte	.LASF85
 2212 0a93 0D       		.byte	0xd
 2213 0a94 9806     		.2byte	0x698
 2214 0a96 9A0A0000 		.4byte	0xa9a
 2215 0a9a 0F       		.uleb128 0xf
 2216 0a9b A2000000 		.4byte	0xa2
 2217 0a9f 27       		.uleb128 0x27
 2218 0aa0 D0000000 		.4byte	.LASF86
 2219 0aa4 09       		.byte	0x9
 2220 0aa5 F5       		.byte	0xf5
 2221 0aa6 CA030000 		.4byte	0x3ca
 2222 0aaa 27       		.uleb128 0x27
 2223 0aab DE040000 		.4byte	.LASF87
 2224 0aaf 0A       		.byte	0xa
 2225 0ab0 6F       		.byte	0x6f
 2226 0ab1 26040000 		.4byte	0x426
 2227 0ab5 28       		.uleb128 0x28
 2228 0ab6 34020000 		.4byte	0x234
 2229 0aba C50A0000 		.4byte	0xac5
 2230 0abe 29       		.uleb128 0x29
 2231 0abf 65020000 		.4byte	0x265
 2232 0ac3 04       		.byte	0x4
 2233 0ac4 00       		.byte	0
 2234 0ac5 27       		.uleb128 0x27
 2235 0ac6 DE030000 		.4byte	.LASF88
 2236 0aca 0C       		.byte	0xc
 2237 0acb A5       		.byte	0xa5
 2238 0acc B50A0000 		.4byte	0xab5
 2239 0ad0 28       		.uleb128 0x28
 2240 0ad1 77020000 		.4byte	0x277
 2241 0ad5 DB0A0000 		.4byte	0xadb
 2242 0ad9 2A       		.uleb128 0x2a
 2243 0ada 00       		.byte	0
 2244 0adb 2B       		.uleb128 0x2b
 2245 0adc 776100   		.ascii	"wa\000"
 2246 0adf 0C       		.byte	0xc
 2247 0ae0 A7       		.byte	0xa7
 2248 0ae1 E50A0000 		.4byte	0xae5
 2249 0ae5 12       		.uleb128 0x12
 2250 0ae6 D00A0000 		.4byte	0xad0
 2251 0aea 2C       		.uleb128 0x2c
 2252 0aeb BA020000 		.4byte	.LASF89
 2253 0aef 01       		.byte	0x1
 2254 0af0 4D       		.byte	0x4d
 2255 0af1 FB0A0000 		.4byte	0xafb
 2256 0af5 05       		.uleb128 0x5
 2257 0af6 03       		.byte	0x3
 2258 0af7 00000000 		.4byte	testthd1
 2259 0afb 12       		.uleb128 0x12
 2260 0afc E0040000 		.4byte	0x4e0
 2261 0b00 2C       		.uleb128 0x2c
ARM GAS  /tmp/cc7GtYXw.s 			page 41


 2262 0b01 C3020000 		.4byte	.LASF90
 2263 0b05 01       		.byte	0x1
 2264 0b06 6D       		.byte	0x6d
 2265 0b07 FB0A0000 		.4byte	0xafb
 2266 0b0b 05       		.uleb128 0x5
 2267 0b0c 03       		.byte	0x3
 2268 0b0d 00000000 		.4byte	testthd2
 2269 0b11 2C       		.uleb128 0x2c
 2270 0b12 CC020000 		.4byte	.LASF91
 2271 0b16 01       		.byte	0x1
 2272 0b17 AE       		.byte	0xae
 2273 0b18 FB0A0000 		.4byte	0xafb
 2274 0b1c 05       		.uleb128 0x5
 2275 0b1d 03       		.byte	0x3
 2276 0b1e 00000000 		.4byte	testthd3
 2277 0b22 2C       		.uleb128 0x2c
 2278 0b23 D5020000 		.4byte	.LASF92
 2279 0b27 01       		.byte	0x1
 2280 0b28 D7       		.byte	0xd7
 2281 0b29 FB0A0000 		.4byte	0xafb
 2282 0b2d 05       		.uleb128 0x5
 2283 0b2e 03       		.byte	0x3
 2284 0b2f 00000000 		.4byte	testthd4
 2285 0b33 28       		.uleb128 0x28
 2286 0b34 430B0000 		.4byte	0xb43
 2287 0b38 430B0000 		.4byte	0xb43
 2288 0b3c 29       		.uleb128 0x29
 2289 0b3d 65020000 		.4byte	0x265
 2290 0b41 04       		.byte	0x4
 2291 0b42 00       		.byte	0
 2292 0b43 09       		.uleb128 0x9
 2293 0b44 04       		.byte	0x4
 2294 0b45 FB0A0000 		.4byte	0xafb
 2295 0b49 2C       		.uleb128 0x2c
 2296 0b4a 71040000 		.4byte	.LASF93
 2297 0b4e 01       		.byte	0x1
 2298 0b4f E1       		.byte	0xe1
 2299 0b50 5A0B0000 		.4byte	0xb5a
 2300 0b54 05       		.uleb128 0x5
 2301 0b55 03       		.byte	0x3
 2302 0b56 00000000 		.4byte	patternthd
 2303 0b5a 12       		.uleb128 0x12
 2304 0b5b 330B0000 		.4byte	0xb33
 2305 0b5f 2D       		.uleb128 0x2d
 2306 0b60 55020000 		.4byte	.LASF94
 2307 0b64 07       		.byte	0x7
 2308 0b65 7001     		.2byte	0x170
 2309 0b67 34020000 		.4byte	0x234
 2310 0b6b 890B0000 		.4byte	0xb89
 2311 0b6f 0E       		.uleb128 0xe
 2312 0b70 77020000 		.4byte	0x277
 2313 0b74 0E       		.uleb128 0xe
 2314 0b75 2C000000 		.4byte	0x2c
 2315 0b79 0E       		.uleb128 0xe
 2316 0b7a EB000000 		.4byte	0xeb
 2317 0b7e 0E       		.uleb128 0xe
 2318 0b7f C0040000 		.4byte	0x4c0
ARM GAS  /tmp/cc7GtYXw.s 			page 42


 2319 0b83 0E       		.uleb128 0xe
 2320 0b84 77020000 		.4byte	0x277
 2321 0b88 00       		.byte	0
 2322 0b89 2E       		.uleb128 0x2e
 2323 0b8a E4020000 		.4byte	.LASF110
 2324 0b8e 0C       		.byte	0xc
 2325 0b8f 5C       		.byte	0x5c
 2326 0b90 2F       		.uleb128 0x2f
 2327 0b91 17030000 		.4byte	.LASF95
 2328 0b95 0C       		.byte	0xc
 2329 0b96 59       		.byte	0x59
 2330 0b97 B8000000 		.4byte	0xb8
 2331 0b9b AA0B0000 		.4byte	0xbaa
 2332 0b9f 0E       		.uleb128 0xe
 2333 0ba0 37000000 		.4byte	0x37
 2334 0ba4 0E       		.uleb128 0xe
 2335 0ba5 AA0B0000 		.4byte	0xbaa
 2336 0ba9 00       		.byte	0
 2337 0baa 09       		.uleb128 0x9
 2338 0bab 04       		.byte	0x4
 2339 0bac B3040000 		.4byte	0x4b3
 2340 0bb0 30       		.uleb128 0x30
 2341 0bb1 3C010000 		.4byte	.LASF100
 2342 0bb5 0C       		.byte	0xc
 2343 0bb6 56       		.byte	0x56
 2344 0bb7 C10B0000 		.4byte	0xbc1
 2345 0bbb 0E       		.uleb128 0xe
 2346 0bbc B3040000 		.4byte	0x4b3
 2347 0bc0 00       		.byte	0
 2348 0bc1 2D       		.uleb128 0x2d
 2349 0bc2 4C010000 		.4byte	.LASF96
 2350 0bc6 07       		.byte	0x7
 2351 0bc7 6E01     		.2byte	0x16e
 2352 0bc9 34020000 		.4byte	0x234
 2353 0bcd EB0B0000 		.4byte	0xbeb
 2354 0bd1 0E       		.uleb128 0xe
 2355 0bd2 77020000 		.4byte	0x277
 2356 0bd6 0E       		.uleb128 0xe
 2357 0bd7 2C000000 		.4byte	0x2c
 2358 0bdb 0E       		.uleb128 0xe
 2359 0bdc EB000000 		.4byte	0xeb
 2360 0be0 0E       		.uleb128 0xe
 2361 0be1 C0040000 		.4byte	0x4c0
 2362 0be5 0E       		.uleb128 0xe
 2363 0be6 77020000 		.4byte	0x277
 2364 0bea 00       		.byte	0
 2365 0beb 2D       		.uleb128 0x2d
 2366 0bec 37040000 		.4byte	.LASF97
 2367 0bf0 07       		.byte	0x7
 2368 0bf1 7301     		.2byte	0x173
 2369 0bf3 34020000 		.4byte	0x234
 2370 0bf7 010C0000 		.4byte	0xc01
 2371 0bfb 0E       		.uleb128 0xe
 2372 0bfc 34020000 		.4byte	0x234
 2373 0c00 00       		.byte	0
 2374 0c01 2D       		.uleb128 0x2d
 2375 0c02 B9010000 		.4byte	.LASF98
ARM GAS  /tmp/cc7GtYXw.s 			page 43


 2376 0c06 07       		.byte	0x7
 2377 0c07 7201     		.2byte	0x172
 2378 0c09 EB000000 		.4byte	0xeb
 2379 0c0d 170C0000 		.4byte	0xc17
 2380 0c11 0E       		.uleb128 0xe
 2381 0c12 EB000000 		.4byte	0xeb
 2382 0c16 00       		.byte	0
 2383 0c17 2F       		.uleb128 0x2f
 2384 0c18 FA040000 		.4byte	.LASF99
 2385 0c1c 0C       		.byte	0xc
 2386 0c1d 58       		.byte	0x58
 2387 0c1e B8000000 		.4byte	0xb8
 2388 0c22 310C0000 		.4byte	0xc31
 2389 0c26 0E       		.uleb128 0xe
 2390 0c27 37000000 		.4byte	0x37
 2391 0c2b 0E       		.uleb128 0xe
 2392 0c2c B8000000 		.4byte	0xb8
 2393 0c30 00       		.byte	0
 2394 0c31 31       		.uleb128 0x31
 2395 0c32 C2040000 		.4byte	.LASF101
 2396 0c36 07       		.byte	0x7
 2397 0c37 7501     		.2byte	0x175
 2398 0c39 430C0000 		.4byte	0xc43
 2399 0c3d 0E       		.uleb128 0xe
 2400 0c3e 0C010000 		.4byte	0x10c
 2401 0c42 00       		.byte	0
 2402 0c43 2F       		.uleb128 0x2f
 2403 0c44 6B010000 		.4byte	.LASF102
 2404 0c48 0C       		.byte	0xc
 2405 0c49 5A       		.byte	0x5a
 2406 0c4a B8000000 		.4byte	0xb8
 2407 0c4e 620C0000 		.4byte	0xc62
 2408 0c52 0E       		.uleb128 0xe
 2409 0c53 37000000 		.4byte	0x37
 2410 0c57 0E       		.uleb128 0xe
 2411 0c58 0C010000 		.4byte	0x10c
 2412 0c5c 0E       		.uleb128 0xe
 2413 0c5d 0C010000 		.4byte	0x10c
 2414 0c61 00       		.byte	0
 2415 0c62 31       		.uleb128 0x31
 2416 0c63 3F030000 		.4byte	.LASF103
 2417 0c67 07       		.byte	0x7
 2418 0c68 7601     		.2byte	0x176
 2419 0c6a 740C0000 		.4byte	0xc74
 2420 0c6e 0E       		.uleb128 0xe
 2421 0c6f 0C010000 		.4byte	0x10c
 2422 0c73 00       		.byte	0
 2423 0c74 32       		.uleb128 0x32
 2424 0c75 B3030000 		.4byte	.LASF111
 2425 0c79 0C       		.byte	0xc
 2426 0c7a 5D       		.byte	0x5d
 2427 0c7b 0C010000 		.4byte	0x10c
 2428 0c7f 00       		.byte	0
 2429              		.section	.debug_abbrev,"",%progbits
 2430              	.Ldebug_abbrev0:
 2431 0000 01       		.uleb128 0x1
 2432 0001 11       		.uleb128 0x11
ARM GAS  /tmp/cc7GtYXw.s 			page 44


 2433 0002 01       		.byte	0x1
 2434 0003 25       		.uleb128 0x25
 2435 0004 0E       		.uleb128 0xe
 2436 0005 13       		.uleb128 0x13
 2437 0006 0B       		.uleb128 0xb
 2438 0007 03       		.uleb128 0x3
 2439 0008 0E       		.uleb128 0xe
 2440 0009 1B       		.uleb128 0x1b
 2441 000a 0E       		.uleb128 0xe
 2442 000b 55       		.uleb128 0x55
 2443 000c 17       		.uleb128 0x17
 2444 000d 11       		.uleb128 0x11
 2445 000e 01       		.uleb128 0x1
 2446 000f 10       		.uleb128 0x10
 2447 0010 17       		.uleb128 0x17
 2448 0011 00       		.byte	0
 2449 0012 00       		.byte	0
 2450 0013 02       		.uleb128 0x2
 2451 0014 24       		.uleb128 0x24
 2452 0015 00       		.byte	0
 2453 0016 0B       		.uleb128 0xb
 2454 0017 0B       		.uleb128 0xb
 2455 0018 3E       		.uleb128 0x3e
 2456 0019 0B       		.uleb128 0xb
 2457 001a 03       		.uleb128 0x3
 2458 001b 08       		.uleb128 0x8
 2459 001c 00       		.byte	0
 2460 001d 00       		.byte	0
 2461 001e 03       		.uleb128 0x3
 2462 001f 16       		.uleb128 0x16
 2463 0020 00       		.byte	0
 2464 0021 03       		.uleb128 0x3
 2465 0022 0E       		.uleb128 0xe
 2466 0023 3A       		.uleb128 0x3a
 2467 0024 0B       		.uleb128 0xb
 2468 0025 3B       		.uleb128 0x3b
 2469 0026 0B       		.uleb128 0xb
 2470 0027 49       		.uleb128 0x49
 2471 0028 13       		.uleb128 0x13
 2472 0029 00       		.byte	0
 2473 002a 00       		.byte	0
 2474 002b 04       		.uleb128 0x4
 2475 002c 24       		.uleb128 0x24
 2476 002d 00       		.byte	0
 2477 002e 0B       		.uleb128 0xb
 2478 002f 0B       		.uleb128 0xb
 2479 0030 3E       		.uleb128 0x3e
 2480 0031 0B       		.uleb128 0xb
 2481 0032 03       		.uleb128 0x3
 2482 0033 0E       		.uleb128 0xe
 2483 0034 00       		.byte	0
 2484 0035 00       		.byte	0
 2485 0036 05       		.uleb128 0x5
 2486 0037 13       		.uleb128 0x13
 2487 0038 01       		.byte	0x1
 2488 0039 03       		.uleb128 0x3
 2489 003a 0E       		.uleb128 0xe
ARM GAS  /tmp/cc7GtYXw.s 			page 45


 2490 003b 0B       		.uleb128 0xb
 2491 003c 0B       		.uleb128 0xb
 2492 003d 3A       		.uleb128 0x3a
 2493 003e 0B       		.uleb128 0xb
 2494 003f 3B       		.uleb128 0x3b
 2495 0040 0B       		.uleb128 0xb
 2496 0041 01       		.uleb128 0x1
 2497 0042 13       		.uleb128 0x13
 2498 0043 00       		.byte	0
 2499 0044 00       		.byte	0
 2500 0045 06       		.uleb128 0x6
 2501 0046 0D       		.uleb128 0xd
 2502 0047 00       		.byte	0
 2503 0048 03       		.uleb128 0x3
 2504 0049 0E       		.uleb128 0xe
 2505 004a 3A       		.uleb128 0x3a
 2506 004b 0B       		.uleb128 0xb
 2507 004c 3B       		.uleb128 0x3b
 2508 004d 0B       		.uleb128 0xb
 2509 004e 49       		.uleb128 0x49
 2510 004f 13       		.uleb128 0x13
 2511 0050 38       		.uleb128 0x38
 2512 0051 0B       		.uleb128 0xb
 2513 0052 00       		.byte	0
 2514 0053 00       		.byte	0
 2515 0054 07       		.uleb128 0x7
 2516 0055 0D       		.uleb128 0xd
 2517 0056 00       		.byte	0
 2518 0057 03       		.uleb128 0x3
 2519 0058 08       		.uleb128 0x8
 2520 0059 3A       		.uleb128 0x3a
 2521 005a 0B       		.uleb128 0xb
 2522 005b 3B       		.uleb128 0x3b
 2523 005c 0B       		.uleb128 0xb
 2524 005d 49       		.uleb128 0x49
 2525 005e 13       		.uleb128 0x13
 2526 005f 38       		.uleb128 0x38
 2527 0060 0B       		.uleb128 0xb
 2528 0061 00       		.byte	0
 2529 0062 00       		.byte	0
 2530 0063 08       		.uleb128 0x8
 2531 0064 13       		.uleb128 0x13
 2532 0065 01       		.byte	0x1
 2533 0066 0B       		.uleb128 0xb
 2534 0067 0B       		.uleb128 0xb
 2535 0068 3A       		.uleb128 0x3a
 2536 0069 0B       		.uleb128 0xb
 2537 006a 3B       		.uleb128 0x3b
 2538 006b 0B       		.uleb128 0xb
 2539 006c 01       		.uleb128 0x1
 2540 006d 13       		.uleb128 0x13
 2541 006e 00       		.byte	0
 2542 006f 00       		.byte	0
 2543 0070 09       		.uleb128 0x9
 2544 0071 0F       		.uleb128 0xf
 2545 0072 00       		.byte	0
 2546 0073 0B       		.uleb128 0xb
ARM GAS  /tmp/cc7GtYXw.s 			page 46


 2547 0074 0B       		.uleb128 0xb
 2548 0075 49       		.uleb128 0x49
 2549 0076 13       		.uleb128 0x13
 2550 0077 00       		.byte	0
 2551 0078 00       		.byte	0
 2552 0079 0A       		.uleb128 0xa
 2553 007a 0F       		.uleb128 0xf
 2554 007b 00       		.byte	0
 2555 007c 0B       		.uleb128 0xb
 2556 007d 0B       		.uleb128 0xb
 2557 007e 00       		.byte	0
 2558 007f 00       		.byte	0
 2559 0080 0B       		.uleb128 0xb
 2560 0081 13       		.uleb128 0x13
 2561 0082 01       		.byte	0x1
 2562 0083 03       		.uleb128 0x3
 2563 0084 0E       		.uleb128 0xe
 2564 0085 0B       		.uleb128 0xb
 2565 0086 0B       		.uleb128 0xb
 2566 0087 3A       		.uleb128 0x3a
 2567 0088 0B       		.uleb128 0xb
 2568 0089 3B       		.uleb128 0x3b
 2569 008a 05       		.uleb128 0x5
 2570 008b 01       		.uleb128 0x1
 2571 008c 13       		.uleb128 0x13
 2572 008d 00       		.byte	0
 2573 008e 00       		.byte	0
 2574 008f 0C       		.uleb128 0xc
 2575 0090 0D       		.uleb128 0xd
 2576 0091 00       		.byte	0
 2577 0092 03       		.uleb128 0x3
 2578 0093 08       		.uleb128 0x8
 2579 0094 3A       		.uleb128 0x3a
 2580 0095 0B       		.uleb128 0xb
 2581 0096 3B       		.uleb128 0x3b
 2582 0097 05       		.uleb128 0x5
 2583 0098 49       		.uleb128 0x49
 2584 0099 13       		.uleb128 0x13
 2585 009a 38       		.uleb128 0x38
 2586 009b 0B       		.uleb128 0xb
 2587 009c 00       		.byte	0
 2588 009d 00       		.byte	0
 2589 009e 0D       		.uleb128 0xd
 2590 009f 15       		.uleb128 0x15
 2591 00a0 01       		.byte	0x1
 2592 00a1 27       		.uleb128 0x27
 2593 00a2 19       		.uleb128 0x19
 2594 00a3 01       		.uleb128 0x1
 2595 00a4 13       		.uleb128 0x13
 2596 00a5 00       		.byte	0
 2597 00a6 00       		.byte	0
 2598 00a7 0E       		.uleb128 0xe
 2599 00a8 05       		.uleb128 0x5
 2600 00a9 00       		.byte	0
 2601 00aa 49       		.uleb128 0x49
 2602 00ab 13       		.uleb128 0x13
 2603 00ac 00       		.byte	0
ARM GAS  /tmp/cc7GtYXw.s 			page 47


 2604 00ad 00       		.byte	0
 2605 00ae 0F       		.uleb128 0xf
 2606 00af 35       		.uleb128 0x35
 2607 00b0 00       		.byte	0
 2608 00b1 49       		.uleb128 0x49
 2609 00b2 13       		.uleb128 0x13
 2610 00b3 00       		.byte	0
 2611 00b4 00       		.byte	0
 2612 00b5 10       		.uleb128 0x10
 2613 00b6 17       		.uleb128 0x17
 2614 00b7 01       		.byte	0x1
 2615 00b8 0B       		.uleb128 0xb
 2616 00b9 0B       		.uleb128 0xb
 2617 00ba 3A       		.uleb128 0x3a
 2618 00bb 0B       		.uleb128 0xb
 2619 00bc 3B       		.uleb128 0x3b
 2620 00bd 0B       		.uleb128 0xb
 2621 00be 01       		.uleb128 0x1
 2622 00bf 13       		.uleb128 0x13
 2623 00c0 00       		.byte	0
 2624 00c1 00       		.byte	0
 2625 00c2 11       		.uleb128 0x11
 2626 00c3 0D       		.uleb128 0xd
 2627 00c4 00       		.byte	0
 2628 00c5 03       		.uleb128 0x3
 2629 00c6 0E       		.uleb128 0xe
 2630 00c7 3A       		.uleb128 0x3a
 2631 00c8 0B       		.uleb128 0xb
 2632 00c9 3B       		.uleb128 0x3b
 2633 00ca 0B       		.uleb128 0xb
 2634 00cb 49       		.uleb128 0x49
 2635 00cc 13       		.uleb128 0x13
 2636 00cd 00       		.byte	0
 2637 00ce 00       		.byte	0
 2638 00cf 12       		.uleb128 0x12
 2639 00d0 26       		.uleb128 0x26
 2640 00d1 00       		.byte	0
 2641 00d2 49       		.uleb128 0x49
 2642 00d3 13       		.uleb128 0x13
 2643 00d4 00       		.byte	0
 2644 00d5 00       		.byte	0
 2645 00d6 13       		.uleb128 0x13
 2646 00d7 15       		.uleb128 0x15
 2647 00d8 01       		.byte	0x1
 2648 00d9 27       		.uleb128 0x27
 2649 00da 19       		.uleb128 0x19
 2650 00db 49       		.uleb128 0x49
 2651 00dc 13       		.uleb128 0x13
 2652 00dd 01       		.uleb128 0x1
 2653 00de 13       		.uleb128 0x13
 2654 00df 00       		.byte	0
 2655 00e0 00       		.byte	0
 2656 00e1 14       		.uleb128 0x14
 2657 00e2 15       		.uleb128 0x15
 2658 00e3 00       		.byte	0
 2659 00e4 27       		.uleb128 0x27
 2660 00e5 19       		.uleb128 0x19
ARM GAS  /tmp/cc7GtYXw.s 			page 48


 2661 00e6 00       		.byte	0
 2662 00e7 00       		.byte	0
 2663 00e8 15       		.uleb128 0x15
 2664 00e9 2E       		.uleb128 0x2e
 2665 00ea 01       		.byte	0x1
 2666 00eb 03       		.uleb128 0x3
 2667 00ec 0E       		.uleb128 0xe
 2668 00ed 3A       		.uleb128 0x3a
 2669 00ee 0B       		.uleb128 0xb
 2670 00ef 3B       		.uleb128 0x3b
 2671 00f0 0B       		.uleb128 0xb
 2672 00f1 27       		.uleb128 0x27
 2673 00f2 19       		.uleb128 0x19
 2674 00f3 20       		.uleb128 0x20
 2675 00f4 0B       		.uleb128 0xb
 2676 00f5 01       		.uleb128 0x1
 2677 00f6 13       		.uleb128 0x13
 2678 00f7 00       		.byte	0
 2679 00f8 00       		.byte	0
 2680 00f9 16       		.uleb128 0x16
 2681 00fa 34       		.uleb128 0x34
 2682 00fb 00       		.byte	0
 2683 00fc 03       		.uleb128 0x3
 2684 00fd 0E       		.uleb128 0xe
 2685 00fe 3A       		.uleb128 0x3a
 2686 00ff 0B       		.uleb128 0xb
 2687 0100 3B       		.uleb128 0x3b
 2688 0101 0B       		.uleb128 0xb
 2689 0102 49       		.uleb128 0x49
 2690 0103 13       		.uleb128 0x13
 2691 0104 00       		.byte	0
 2692 0105 00       		.byte	0
 2693 0106 17       		.uleb128 0x17
 2694 0107 2E       		.uleb128 0x2e
 2695 0108 01       		.byte	0x1
 2696 0109 03       		.uleb128 0x3
 2697 010a 0E       		.uleb128 0xe
 2698 010b 3A       		.uleb128 0x3a
 2699 010c 0B       		.uleb128 0xb
 2700 010d 3B       		.uleb128 0x3b
 2701 010e 0B       		.uleb128 0xb
 2702 010f 27       		.uleb128 0x27
 2703 0110 19       		.uleb128 0x19
 2704 0111 11       		.uleb128 0x11
 2705 0112 01       		.uleb128 0x1
 2706 0113 12       		.uleb128 0x12
 2707 0114 06       		.uleb128 0x6
 2708 0115 40       		.uleb128 0x40
 2709 0116 18       		.uleb128 0x18
 2710 0117 9742     		.uleb128 0x2117
 2711 0119 19       		.uleb128 0x19
 2712 011a 01       		.uleb128 0x1
 2713 011b 13       		.uleb128 0x13
 2714 011c 00       		.byte	0
 2715 011d 00       		.byte	0
 2716 011e 18       		.uleb128 0x18
 2717 011f 898201   		.uleb128 0x4109
ARM GAS  /tmp/cc7GtYXw.s 			page 49


 2718 0122 01       		.byte	0x1
 2719 0123 11       		.uleb128 0x11
 2720 0124 01       		.uleb128 0x1
 2721 0125 31       		.uleb128 0x31
 2722 0126 13       		.uleb128 0x13
 2723 0127 01       		.uleb128 0x1
 2724 0128 13       		.uleb128 0x13
 2725 0129 00       		.byte	0
 2726 012a 00       		.byte	0
 2727 012b 19       		.uleb128 0x19
 2728 012c 8A8201   		.uleb128 0x410a
 2729 012f 00       		.byte	0
 2730 0130 02       		.uleb128 0x2
 2731 0131 18       		.uleb128 0x18
 2732 0132 9142     		.uleb128 0x2111
 2733 0134 18       		.uleb128 0x18
 2734 0135 00       		.byte	0
 2735 0136 00       		.byte	0
 2736 0137 1A       		.uleb128 0x1a
 2737 0138 898201   		.uleb128 0x4109
 2738 013b 00       		.byte	0
 2739 013c 11       		.uleb128 0x11
 2740 013d 01       		.uleb128 0x1
 2741 013e 31       		.uleb128 0x31
 2742 013f 13       		.uleb128 0x13
 2743 0140 00       		.byte	0
 2744 0141 00       		.byte	0
 2745 0142 1B       		.uleb128 0x1b
 2746 0143 898201   		.uleb128 0x4109
 2747 0146 01       		.byte	0x1
 2748 0147 11       		.uleb128 0x11
 2749 0148 01       		.uleb128 0x1
 2750 0149 9542     		.uleb128 0x2115
 2751 014b 19       		.uleb128 0x19
 2752 014c 31       		.uleb128 0x31
 2753 014d 13       		.uleb128 0x13
 2754 014e 00       		.byte	0
 2755 014f 00       		.byte	0
 2756 0150 1C       		.uleb128 0x1c
 2757 0151 2E       		.uleb128 0x2e
 2758 0152 01       		.byte	0x1
 2759 0153 03       		.uleb128 0x3
 2760 0154 0E       		.uleb128 0xe
 2761 0155 3A       		.uleb128 0x3a
 2762 0156 0B       		.uleb128 0xb
 2763 0157 3B       		.uleb128 0x3b
 2764 0158 0B       		.uleb128 0xb
 2765 0159 27       		.uleb128 0x27
 2766 015a 19       		.uleb128 0x19
 2767 015b 49       		.uleb128 0x49
 2768 015c 13       		.uleb128 0x13
 2769 015d 11       		.uleb128 0x11
 2770 015e 01       		.uleb128 0x1
 2771 015f 12       		.uleb128 0x12
 2772 0160 06       		.uleb128 0x6
 2773 0161 40       		.uleb128 0x40
 2774 0162 18       		.uleb128 0x18
ARM GAS  /tmp/cc7GtYXw.s 			page 50


 2775 0163 9742     		.uleb128 0x2117
 2776 0165 19       		.uleb128 0x19
 2777 0166 01       		.uleb128 0x1
 2778 0167 13       		.uleb128 0x13
 2779 0168 00       		.byte	0
 2780 0169 00       		.byte	0
 2781 016a 1D       		.uleb128 0x1d
 2782 016b 05       		.uleb128 0x5
 2783 016c 00       		.byte	0
 2784 016d 03       		.uleb128 0x3
 2785 016e 08       		.uleb128 0x8
 2786 016f 3A       		.uleb128 0x3a
 2787 0170 0B       		.uleb128 0xb
 2788 0171 3B       		.uleb128 0x3b
 2789 0172 0B       		.uleb128 0xb
 2790 0173 49       		.uleb128 0x49
 2791 0174 13       		.uleb128 0x13
 2792 0175 02       		.uleb128 0x2
 2793 0176 17       		.uleb128 0x17
 2794 0177 00       		.byte	0
 2795 0178 00       		.byte	0
 2796 0179 1E       		.uleb128 0x1e
 2797 017a 0B       		.uleb128 0xb
 2798 017b 01       		.byte	0x1
 2799 017c 55       		.uleb128 0x55
 2800 017d 17       		.uleb128 0x17
 2801 017e 01       		.uleb128 0x1
 2802 017f 13       		.uleb128 0x13
 2803 0180 00       		.byte	0
 2804 0181 00       		.byte	0
 2805 0182 1F       		.uleb128 0x1f
 2806 0183 34       		.uleb128 0x34
 2807 0184 00       		.byte	0
 2808 0185 03       		.uleb128 0x3
 2809 0186 08       		.uleb128 0x8
 2810 0187 3A       		.uleb128 0x3a
 2811 0188 0B       		.uleb128 0xb
 2812 0189 3B       		.uleb128 0x3b
 2813 018a 0B       		.uleb128 0xb
 2814 018b 49       		.uleb128 0x49
 2815 018c 13       		.uleb128 0x13
 2816 018d 02       		.uleb128 0x2
 2817 018e 18       		.uleb128 0x18
 2818 018f 00       		.byte	0
 2819 0190 00       		.byte	0
 2820 0191 20       		.uleb128 0x20
 2821 0192 34       		.uleb128 0x34
 2822 0193 00       		.byte	0
 2823 0194 03       		.uleb128 0x3
 2824 0195 0E       		.uleb128 0xe
 2825 0196 3A       		.uleb128 0x3a
 2826 0197 0B       		.uleb128 0xb
 2827 0198 3B       		.uleb128 0x3b
 2828 0199 0B       		.uleb128 0xb
 2829 019a 49       		.uleb128 0x49
 2830 019b 13       		.uleb128 0x13
 2831 019c 02       		.uleb128 0x2
ARM GAS  /tmp/cc7GtYXw.s 			page 51


 2832 019d 18       		.uleb128 0x18
 2833 019e 00       		.byte	0
 2834 019f 00       		.byte	0
 2835 01a0 21       		.uleb128 0x21
 2836 01a1 34       		.uleb128 0x34
 2837 01a2 00       		.byte	0
 2838 01a3 03       		.uleb128 0x3
 2839 01a4 08       		.uleb128 0x8
 2840 01a5 3A       		.uleb128 0x3a
 2841 01a6 0B       		.uleb128 0xb
 2842 01a7 3B       		.uleb128 0x3b
 2843 01a8 0B       		.uleb128 0xb
 2844 01a9 49       		.uleb128 0x49
 2845 01aa 13       		.uleb128 0x13
 2846 01ab 02       		.uleb128 0x2
 2847 01ac 17       		.uleb128 0x17
 2848 01ad 00       		.byte	0
 2849 01ae 00       		.byte	0
 2850 01af 22       		.uleb128 0x22
 2851 01b0 0B       		.uleb128 0xb
 2852 01b1 01       		.byte	0x1
 2853 01b2 11       		.uleb128 0x11
 2854 01b3 01       		.uleb128 0x1
 2855 01b4 12       		.uleb128 0x12
 2856 01b5 06       		.uleb128 0x6
 2857 01b6 01       		.uleb128 0x1
 2858 01b7 13       		.uleb128 0x13
 2859 01b8 00       		.byte	0
 2860 01b9 00       		.byte	0
 2861 01ba 23       		.uleb128 0x23
 2862 01bb 898201   		.uleb128 0x4109
 2863 01be 01       		.byte	0x1
 2864 01bf 11       		.uleb128 0x11
 2865 01c0 01       		.uleb128 0x1
 2866 01c1 31       		.uleb128 0x31
 2867 01c2 13       		.uleb128 0x13
 2868 01c3 00       		.byte	0
 2869 01c4 00       		.byte	0
 2870 01c5 24       		.uleb128 0x24
 2871 01c6 2E       		.uleb128 0x2e
 2872 01c7 01       		.byte	0x1
 2873 01c8 31       		.uleb128 0x31
 2874 01c9 13       		.uleb128 0x13
 2875 01ca 11       		.uleb128 0x11
 2876 01cb 01       		.uleb128 0x1
 2877 01cc 12       		.uleb128 0x12
 2878 01cd 06       		.uleb128 0x6
 2879 01ce 40       		.uleb128 0x40
 2880 01cf 18       		.uleb128 0x18
 2881 01d0 9742     		.uleb128 0x2117
 2882 01d2 19       		.uleb128 0x19
 2883 01d3 01       		.uleb128 0x1
 2884 01d4 13       		.uleb128 0x13
 2885 01d5 00       		.byte	0
 2886 01d6 00       		.byte	0
 2887 01d7 25       		.uleb128 0x25
 2888 01d8 34       		.uleb128 0x34
ARM GAS  /tmp/cc7GtYXw.s 			page 52


 2889 01d9 00       		.byte	0
 2890 01da 31       		.uleb128 0x31
 2891 01db 13       		.uleb128 0x13
 2892 01dc 02       		.uleb128 0x2
 2893 01dd 17       		.uleb128 0x17
 2894 01de 00       		.byte	0
 2895 01df 00       		.byte	0
 2896 01e0 26       		.uleb128 0x26
 2897 01e1 34       		.uleb128 0x34
 2898 01e2 00       		.byte	0
 2899 01e3 03       		.uleb128 0x3
 2900 01e4 0E       		.uleb128 0xe
 2901 01e5 3A       		.uleb128 0x3a
 2902 01e6 0B       		.uleb128 0xb
 2903 01e7 3B       		.uleb128 0x3b
 2904 01e8 05       		.uleb128 0x5
 2905 01e9 49       		.uleb128 0x49
 2906 01ea 13       		.uleb128 0x13
 2907 01eb 3F       		.uleb128 0x3f
 2908 01ec 19       		.uleb128 0x19
 2909 01ed 3C       		.uleb128 0x3c
 2910 01ee 19       		.uleb128 0x19
 2911 01ef 00       		.byte	0
 2912 01f0 00       		.byte	0
 2913 01f1 27       		.uleb128 0x27
 2914 01f2 34       		.uleb128 0x34
 2915 01f3 00       		.byte	0
 2916 01f4 03       		.uleb128 0x3
 2917 01f5 0E       		.uleb128 0xe
 2918 01f6 3A       		.uleb128 0x3a
 2919 01f7 0B       		.uleb128 0xb
 2920 01f8 3B       		.uleb128 0x3b
 2921 01f9 0B       		.uleb128 0xb
 2922 01fa 49       		.uleb128 0x49
 2923 01fb 13       		.uleb128 0x13
 2924 01fc 3F       		.uleb128 0x3f
 2925 01fd 19       		.uleb128 0x19
 2926 01fe 3C       		.uleb128 0x3c
 2927 01ff 19       		.uleb128 0x19
 2928 0200 00       		.byte	0
 2929 0201 00       		.byte	0
 2930 0202 28       		.uleb128 0x28
 2931 0203 01       		.uleb128 0x1
 2932 0204 01       		.byte	0x1
 2933 0205 49       		.uleb128 0x49
 2934 0206 13       		.uleb128 0x13
 2935 0207 01       		.uleb128 0x1
 2936 0208 13       		.uleb128 0x13
 2937 0209 00       		.byte	0
 2938 020a 00       		.byte	0
 2939 020b 29       		.uleb128 0x29
 2940 020c 21       		.uleb128 0x21
 2941 020d 00       		.byte	0
 2942 020e 49       		.uleb128 0x49
 2943 020f 13       		.uleb128 0x13
 2944 0210 2F       		.uleb128 0x2f
 2945 0211 0B       		.uleb128 0xb
ARM GAS  /tmp/cc7GtYXw.s 			page 53


 2946 0212 00       		.byte	0
 2947 0213 00       		.byte	0
 2948 0214 2A       		.uleb128 0x2a
 2949 0215 21       		.uleb128 0x21
 2950 0216 00       		.byte	0
 2951 0217 00       		.byte	0
 2952 0218 00       		.byte	0
 2953 0219 2B       		.uleb128 0x2b
 2954 021a 34       		.uleb128 0x34
 2955 021b 00       		.byte	0
 2956 021c 03       		.uleb128 0x3
 2957 021d 08       		.uleb128 0x8
 2958 021e 3A       		.uleb128 0x3a
 2959 021f 0B       		.uleb128 0xb
 2960 0220 3B       		.uleb128 0x3b
 2961 0221 0B       		.uleb128 0xb
 2962 0222 49       		.uleb128 0x49
 2963 0223 13       		.uleb128 0x13
 2964 0224 3F       		.uleb128 0x3f
 2965 0225 19       		.uleb128 0x19
 2966 0226 3C       		.uleb128 0x3c
 2967 0227 19       		.uleb128 0x19
 2968 0228 00       		.byte	0
 2969 0229 00       		.byte	0
 2970 022a 2C       		.uleb128 0x2c
 2971 022b 34       		.uleb128 0x34
 2972 022c 00       		.byte	0
 2973 022d 03       		.uleb128 0x3
 2974 022e 0E       		.uleb128 0xe
 2975 022f 3A       		.uleb128 0x3a
 2976 0230 0B       		.uleb128 0xb
 2977 0231 3B       		.uleb128 0x3b
 2978 0232 0B       		.uleb128 0xb
 2979 0233 49       		.uleb128 0x49
 2980 0234 13       		.uleb128 0x13
 2981 0235 3F       		.uleb128 0x3f
 2982 0236 19       		.uleb128 0x19
 2983 0237 02       		.uleb128 0x2
 2984 0238 18       		.uleb128 0x18
 2985 0239 00       		.byte	0
 2986 023a 00       		.byte	0
 2987 023b 2D       		.uleb128 0x2d
 2988 023c 2E       		.uleb128 0x2e
 2989 023d 01       		.byte	0x1
 2990 023e 3F       		.uleb128 0x3f
 2991 023f 19       		.uleb128 0x19
 2992 0240 03       		.uleb128 0x3
 2993 0241 0E       		.uleb128 0xe
 2994 0242 3A       		.uleb128 0x3a
 2995 0243 0B       		.uleb128 0xb
 2996 0244 3B       		.uleb128 0x3b
 2997 0245 05       		.uleb128 0x5
 2998 0246 27       		.uleb128 0x27
 2999 0247 19       		.uleb128 0x19
 3000 0248 49       		.uleb128 0x49
 3001 0249 13       		.uleb128 0x13
 3002 024a 3C       		.uleb128 0x3c
ARM GAS  /tmp/cc7GtYXw.s 			page 54


 3003 024b 19       		.uleb128 0x19
 3004 024c 01       		.uleb128 0x1
 3005 024d 13       		.uleb128 0x13
 3006 024e 00       		.byte	0
 3007 024f 00       		.byte	0
 3008 0250 2E       		.uleb128 0x2e
 3009 0251 2E       		.uleb128 0x2e
 3010 0252 00       		.byte	0
 3011 0253 3F       		.uleb128 0x3f
 3012 0254 19       		.uleb128 0x19
 3013 0255 03       		.uleb128 0x3
 3014 0256 0E       		.uleb128 0xe
 3015 0257 3A       		.uleb128 0x3a
 3016 0258 0B       		.uleb128 0xb
 3017 0259 3B       		.uleb128 0x3b
 3018 025a 0B       		.uleb128 0xb
 3019 025b 27       		.uleb128 0x27
 3020 025c 19       		.uleb128 0x19
 3021 025d 3C       		.uleb128 0x3c
 3022 025e 19       		.uleb128 0x19
 3023 025f 00       		.byte	0
 3024 0260 00       		.byte	0
 3025 0261 2F       		.uleb128 0x2f
 3026 0262 2E       		.uleb128 0x2e
 3027 0263 01       		.byte	0x1
 3028 0264 3F       		.uleb128 0x3f
 3029 0265 19       		.uleb128 0x19
 3030 0266 03       		.uleb128 0x3
 3031 0267 0E       		.uleb128 0xe
 3032 0268 3A       		.uleb128 0x3a
 3033 0269 0B       		.uleb128 0xb
 3034 026a 3B       		.uleb128 0x3b
 3035 026b 0B       		.uleb128 0xb
 3036 026c 27       		.uleb128 0x27
 3037 026d 19       		.uleb128 0x19
 3038 026e 49       		.uleb128 0x49
 3039 026f 13       		.uleb128 0x13
 3040 0270 3C       		.uleb128 0x3c
 3041 0271 19       		.uleb128 0x19
 3042 0272 01       		.uleb128 0x1
 3043 0273 13       		.uleb128 0x13
 3044 0274 00       		.byte	0
 3045 0275 00       		.byte	0
 3046 0276 30       		.uleb128 0x30
 3047 0277 2E       		.uleb128 0x2e
 3048 0278 01       		.byte	0x1
 3049 0279 3F       		.uleb128 0x3f
 3050 027a 19       		.uleb128 0x19
 3051 027b 03       		.uleb128 0x3
 3052 027c 0E       		.uleb128 0xe
 3053 027d 3A       		.uleb128 0x3a
 3054 027e 0B       		.uleb128 0xb
 3055 027f 3B       		.uleb128 0x3b
 3056 0280 0B       		.uleb128 0xb
 3057 0281 27       		.uleb128 0x27
 3058 0282 19       		.uleb128 0x19
 3059 0283 3C       		.uleb128 0x3c
ARM GAS  /tmp/cc7GtYXw.s 			page 55


 3060 0284 19       		.uleb128 0x19
 3061 0285 01       		.uleb128 0x1
 3062 0286 13       		.uleb128 0x13
 3063 0287 00       		.byte	0
 3064 0288 00       		.byte	0
 3065 0289 31       		.uleb128 0x31
 3066 028a 2E       		.uleb128 0x2e
 3067 028b 01       		.byte	0x1
 3068 028c 3F       		.uleb128 0x3f
 3069 028d 19       		.uleb128 0x19
 3070 028e 03       		.uleb128 0x3
 3071 028f 0E       		.uleb128 0xe
 3072 0290 3A       		.uleb128 0x3a
 3073 0291 0B       		.uleb128 0xb
 3074 0292 3B       		.uleb128 0x3b
 3075 0293 05       		.uleb128 0x5
 3076 0294 27       		.uleb128 0x27
 3077 0295 19       		.uleb128 0x19
 3078 0296 3C       		.uleb128 0x3c
 3079 0297 19       		.uleb128 0x19
 3080 0298 01       		.uleb128 0x1
 3081 0299 13       		.uleb128 0x13
 3082 029a 00       		.byte	0
 3083 029b 00       		.byte	0
 3084 029c 32       		.uleb128 0x32
 3085 029d 2E       		.uleb128 0x2e
 3086 029e 00       		.byte	0
 3087 029f 3F       		.uleb128 0x3f
 3088 02a0 19       		.uleb128 0x19
 3089 02a1 03       		.uleb128 0x3
 3090 02a2 0E       		.uleb128 0xe
 3091 02a3 3A       		.uleb128 0x3a
 3092 02a4 0B       		.uleb128 0xb
 3093 02a5 3B       		.uleb128 0x3b
 3094 02a6 0B       		.uleb128 0xb
 3095 02a7 27       		.uleb128 0x27
 3096 02a8 19       		.uleb128 0x19
 3097 02a9 49       		.uleb128 0x49
 3098 02aa 13       		.uleb128 0x13
 3099 02ab 3C       		.uleb128 0x3c
 3100 02ac 19       		.uleb128 0x19
 3101 02ad 00       		.byte	0
 3102 02ae 00       		.byte	0
 3103 02af 00       		.byte	0
 3104              		.section	.debug_loc,"",%progbits
 3105              	.Ldebug_loc0:
 3106              	.LLST0:
 3107 0000 00000000 		.4byte	.LVL7
 3108 0004 04000000 		.4byte	.LVL8
 3109 0008 0100     		.2byte	0x1
 3110 000a 50       		.byte	0x50
 3111 000b 04000000 		.4byte	.LVL8
 3112 000f 0C000000 		.4byte	.LFE118
 3113 0013 0400     		.2byte	0x4
 3114 0015 F3       		.byte	0xf3
 3115 0016 01       		.uleb128 0x1
 3116 0017 50       		.byte	0x50
ARM GAS  /tmp/cc7GtYXw.s 			page 56


 3117 0018 9F       		.byte	0x9f
 3118 0019 00000000 		.4byte	0
 3119 001d 00000000 		.4byte	0
 3120              	.LLST1:
 3121 0021 1A000000 		.4byte	.LVL20
 3122 0025 20000000 		.4byte	.LVL21
 3123 0029 0100     		.2byte	0x1
 3124 002b 50       		.byte	0x50
 3125 002c 20000000 		.4byte	.LVL21
 3126 0030 26000000 		.4byte	.LVL23
 3127 0034 0100     		.2byte	0x1
 3128 0036 57       		.byte	0x57
 3129 0037 28000000 		.4byte	.LVL24
 3130 003b 48000000 		.4byte	.LVL26
 3131 003f 0100     		.2byte	0x1
 3132 0041 57       		.byte	0x57
 3133 0042 48000000 		.4byte	.LVL26
 3134 0046 4A000000 		.4byte	.LVL27
 3135 004a 0100     		.2byte	0x1
 3136 004c 50       		.byte	0x50
 3137 004d 9C000000 		.4byte	.LVL31
 3138 0051 AA000000 		.4byte	.LVL32
 3139 0055 0100     		.2byte	0x1
 3140 0057 50       		.byte	0x50
 3141 0058 E8000000 		.4byte	.LVL36
 3142 005c EA000000 		.4byte	.LVL37
 3143 0060 0100     		.2byte	0x1
 3144 0062 50       		.byte	0x50
 3145 0063 00000000 		.4byte	0
 3146 0067 00000000 		.4byte	0
 3147              	.LLST2:
 3148 006b 0A000000 		.4byte	.LVL42
 3149 006f 22000000 		.4byte	.LVL45
 3150 0073 0100     		.2byte	0x1
 3151 0075 54       		.byte	0x54
 3152 0076 24000000 		.4byte	.LVL46
 3153 007a 42000000 		.4byte	.LVL50
 3154 007e 0100     		.2byte	0x1
 3155 0080 54       		.byte	0x54
 3156 0081 00000000 		.4byte	0
 3157 0085 00000000 		.4byte	0
 3158              	.LLST3:
 3159 0089 42000000 		.4byte	.LVL50
 3160 008d 60000000 		.4byte	.LVL53
 3161 0091 0100     		.2byte	0x1
 3162 0093 54       		.byte	0x54
 3163 0094 64000000 		.4byte	.LVL54
 3164 0098 76000000 		.4byte	.LVL56
 3165 009c 0100     		.2byte	0x1
 3166 009e 55       		.byte	0x55
 3167 009f 76000000 		.4byte	.LVL56
 3168 00a3 79000000 		.4byte	.LVL57-1
 3169 00a7 0100     		.2byte	0x1
 3170 00a9 51       		.byte	0x51
 3171 00aa 00000000 		.4byte	0
 3172 00ae 00000000 		.4byte	0
 3173              		.section	.debug_aranges,"",%progbits
ARM GAS  /tmp/cc7GtYXw.s 			page 57


 3174 0000 3C000000 		.4byte	0x3c
 3175 0004 0200     		.2byte	0x2
 3176 0006 00000000 		.4byte	.Ldebug_info0
 3177 000a 04       		.byte	0x4
 3178 000b 00       		.byte	0
 3179 000c 0000     		.2byte	0
 3180 000e 0000     		.2byte	0
 3181 0010 00000000 		.4byte	.LFB119
 3182 0014 C8000000 		.4byte	.LFE119-.LFB119
 3183 0018 00000000 		.4byte	.LFB118
 3184 001c 0C000000 		.4byte	.LFE118-.LFB118
 3185 0020 00000000 		.4byte	.LFB120
 3186 0024 D8000000 		.4byte	.LFE120-.LFB120
 3187 0028 00000000 		.4byte	.LFB121
 3188 002c 38010000 		.4byte	.LFE121-.LFB121
 3189 0030 00000000 		.4byte	.LFB122
 3190 0034 80000000 		.4byte	.LFE122-.LFB122
 3191 0038 00000000 		.4byte	0
 3192 003c 00000000 		.4byte	0
 3193              		.section	.debug_ranges,"",%progbits
 3194              	.Ldebug_ranges0:
 3195 0000 70000000 		.4byte	.LBB2
 3196 0004 72000000 		.4byte	.LBE2
 3197 0008 74000000 		.4byte	.LBB3
 3198 000c 78000000 		.4byte	.LBE3
 3199 0010 00000000 		.4byte	0
 3200 0014 00000000 		.4byte	0
 3201 0018 8E000000 		.4byte	.LBB4
 3202 001c 90000000 		.4byte	.LBE4
 3203 0020 92000000 		.4byte	.LBB5
 3204 0024 96000000 		.4byte	.LBE5
 3205 0028 00000000 		.4byte	0
 3206 002c 00000000 		.4byte	0
 3207 0030 28010000 		.4byte	.LBB9
 3208 0034 2A010000 		.4byte	.LBE9
 3209 0038 2E010000 		.4byte	.LBB10
 3210 003c 38010000 		.4byte	.LBE10
 3211 0040 00000000 		.4byte	0
 3212 0044 00000000 		.4byte	0
 3213 0048 40000000 		.4byte	.LBB14
 3214 004c 72000000 		.4byte	.LBE14
 3215 0050 76000000 		.4byte	.LBB15
 3216 0054 80000000 		.4byte	.LBE15
 3217 0058 00000000 		.4byte	0
 3218 005c 00000000 		.4byte	0
 3219 0060 00000000 		.4byte	.LFB119
 3220 0064 C8000000 		.4byte	.LFE119
 3221 0068 00000000 		.4byte	.LFB118
 3222 006c 0C000000 		.4byte	.LFE118
 3223 0070 00000000 		.4byte	.LFB120
 3224 0074 D8000000 		.4byte	.LFE120
 3225 0078 00000000 		.4byte	.LFB121
 3226 007c 38010000 		.4byte	.LFE121
 3227 0080 00000000 		.4byte	.LFB122
 3228 0084 80000000 		.4byte	.LFE122
 3229 0088 00000000 		.4byte	0
 3230 008c 00000000 		.4byte	0
ARM GAS  /tmp/cc7GtYXw.s 			page 58


 3231              		.section	.debug_line,"",%progbits
 3232              	.Ldebug_line0:
 3233 0000 2A020000 		.section	.debug_str,"MS",%progbits,1
 3233      02007D01 
 3233      00000201 
 3233      FB0E0D00 
 3233      01010101 
 3234              	.LASF75:
 3235 0000 7466756E 		.ascii	"tfunc_t\000"
 3235      635F7400 
 3236              	.LASF104:
 3237 0008 474E5520 		.ascii	"GNU C 4.8.3 20140820 (release) -mcpu=cortex-m4 -mno"
 3237      4320342E 
 3237      382E3320 
 3237      32303134 
 3237      30383230 
 3238 003b 2D746875 		.ascii	"-thumb-interwork -mthumb -ggdb -O2 -fomit-frame-poi"
 3238      6D622D69 
 3238      6E746572 
 3238      776F726B 
 3238      202D6D74 
 3239 006e 6E746572 		.ascii	"nter -falign-functions=16 -ffunction-sections -fdat"
 3239      202D6661 
 3239      6C69676E 
 3239      2D66756E 
 3239      6374696F 
 3240 00a1 612D7365 		.ascii	"a-sections -fno-common\000"
 3240      6374696F 
 3240      6E73202D 
 3240      666E6F2D 
 3240      636F6D6D 
 3241              	.LASF2:
 3242 00b8 73697A65 		.ascii	"size_t\000"
 3242      5F7400
 3243              	.LASF70:
 3244 00bf 7264796D 		.ascii	"rdymsg\000"
 3244      736700
 3245              	.LASF3:
 3246 00c6 5F5F7569 		.ascii	"__uint8_t\000"
 3246      6E74385F 
 3246      7400
 3247              	.LASF86:
 3248 00d0 76746C69 		.ascii	"vtlist\000"
 3248      737400
 3249              	.LASF12:
 3250 00d7 6C6F6E67 		.ascii	"long long unsigned int\000"
 3250      206C6F6E 
 3250      6720756E 
 3250      7369676E 
 3250      65642069 
 3251              	.LASF71:
 3252 00ee 65786974 		.ascii	"exitcode\000"
 3252      636F6465 
 3252      00
 3253              	.LASF85:
 3254 00f7 49544D5F 		.ascii	"ITM_RxBuffer\000"
 3254      52784275 
ARM GAS  /tmp/cc7GtYXw.s 			page 59


 3254      66666572 
 3254      00
 3255              	.LASF28:
 3256 0104 705F7072 		.ascii	"p_prio\000"
 3256      696F00
 3257              	.LASF11:
 3258 010b 6C6F6E67 		.ascii	"long long int\000"
 3258      206C6F6E 
 3258      6720696E 
 3258      7400
 3259              	.LASF1:
 3260 0119 7369676E 		.ascii	"signed char\000"
 3260      65642063 
 3260      68617200 
 3261              	.LASF43:
 3262 0125 705F6D70 		.ascii	"p_mpool\000"
 3262      6F6F6C00 
 3263              	.LASF16:
 3264 012d 626F6F6C 		.ascii	"bool_t\000"
 3264      5F7400
 3265              	.LASF67:
 3266 0134 6D5F7175 		.ascii	"m_queue\000"
 3266      65756500 
 3267              	.LASF100:
 3268 013c 74657374 		.ascii	"test_emit_token\000"
 3268      5F656D69 
 3268      745F746F 
 3268      6B656E00 
 3269              	.LASF96:
 3270 014c 63685468 		.ascii	"chThdCreateI\000"
 3270      64437265 
 3270      61746549 
 3270      00
 3271              	.LASF8:
 3272 0159 6C6F6E67 		.ascii	"long int\000"
 3272      20696E74 
 3272      00
 3273              	.LASF19:
 3274 0162 74737461 		.ascii	"tstate_t\000"
 3274      74655F74 
 3274      00
 3275              	.LASF102:
 3276 016b 5F746573 		.ascii	"_test_assert_time_window\000"
 3276      745F6173 
 3276      73657274 
 3276      5F74696D 
 3276      655F7769 
 3277              	.LASF36:
 3278 0184 705F7469 		.ascii	"p_time\000"
 3278      6D6500
 3279              	.LASF30:
 3280 018b 705F6E65 		.ascii	"p_newer\000"
 3280      77657200 
 3281              	.LASF62:
 3282 0193 725F6E65 		.ascii	"r_newer\000"
 3282      77657200 
 3283              	.LASF47:
ARM GAS  /tmp/cc7GtYXw.s 			page 60


 3284 019b 72656761 		.ascii	"regarm_t\000"
 3284      726D5F74 
 3284      00
 3285              	.LASF53:
 3286 01a4 76745F70 		.ascii	"vt_prev\000"
 3286      72657600 
 3287              	.LASF81:
 3288 01ac 74686431 		.ascii	"thd1_execute\000"
 3288      5F657865 
 3288      63757465 
 3288      00
 3289              	.LASF98:
 3290 01b9 63685468 		.ascii	"chThdSetPriority\000"
 3290      64536574 
 3290      5072696F 
 3290      72697479 
 3290      00
 3291              	.LASF0:
 3292 01ca 756E7369 		.ascii	"unsigned int\000"
 3292      676E6564 
 3292      20696E74 
 3292      00
 3293              	.LASF52:
 3294 01d7 76745F6E 		.ascii	"vt_next\000"
 3294      65787400 
 3295              	.LASF38:
 3296 01df 705F6D73 		.ascii	"p_msgqueue\000"
 3296      67717565 
 3296      756500
 3297              	.LASF79:
 3298 01ea 74656172 		.ascii	"teardown\000"
 3298      646F776E 
 3298      00
 3299              	.LASF77:
 3300 01f3 6E616D65 		.ascii	"name\000"
 3300      00
 3301              	.LASF51:
 3302 01f8 56697274 		.ascii	"VirtualTimer\000"
 3302      75616C54 
 3302      696D6572 
 3302      00
 3303              	.LASF6:
 3304 0205 73686F72 		.ascii	"short unsigned int\000"
 3304      7420756E 
 3304      7369676E 
 3304      65642069 
 3304      6E7400
 3305              	.LASF22:
 3306 0218 6D73675F 		.ascii	"msg_t\000"
 3306      7400
 3307              	.LASF18:
 3308 021e 746D6F64 		.ascii	"tmode_t\000"
 3308      655F7400 
 3309              	.LASF45:
 3310 0226 54687265 		.ascii	"ThreadsList\000"
 3310      6164734C 
 3310      69737400 
ARM GAS  /tmp/cc7GtYXw.s 			page 61


 3311              	.LASF23:
 3312 0232 6576656E 		.ascii	"eventmask_t\000"
 3312      746D6173 
 3312      6B5F7400 
 3313              	.LASF7:
 3314 023e 5F5F696E 		.ascii	"__int32_t\000"
 3314      7433325F 
 3314      7400
 3315              	.LASF82:
 3316 0248 74686432 		.ascii	"thd2_execute\000"
 3316      5F657865 
 3316      63757465 
 3316      00
 3317              	.LASF94:
 3318 0255 63685468 		.ascii	"chThdCreateStatic\000"
 3318      64437265 
 3318      61746553 
 3318      74617469 
 3318      6300
 3319              	.LASF106:
 3320 0267 2F706F6F 		.ascii	"/pool/prototipi/git/tiva-chibios2_6/demos/RT-TM4C12"
 3320      6C2F7072 
 3320      6F746F74 
 3320      6970692F 
 3320      6769742F 
 3321 029a 39342D4C 		.ascii	"94-LAUNCHPAD\000"
 3321      41554E43 
 3321      48504144 
 3321      00
 3322              	.LASF37:
 3323 02a7 705F7761 		.ascii	"p_waiting\000"
 3323      6974696E 
 3323      6700
 3324              	.LASF46:
 3325 02b1 73697A65 		.ascii	"sizetype\000"
 3325      74797065 
 3325      00
 3326              	.LASF89:
 3327 02ba 74657374 		.ascii	"testthd1\000"
 3327      74686431 
 3327      00
 3328              	.LASF90:
 3329 02c3 74657374 		.ascii	"testthd2\000"
 3329      74686432 
 3329      00
 3330              	.LASF91:
 3331 02cc 74657374 		.ascii	"testthd3\000"
 3331      74686433 
 3331      00
 3332              	.LASF92:
 3333 02d5 74657374 		.ascii	"testthd4\000"
 3333      74686434 
 3333      00
 3334              	.LASF66:
 3335 02de 4D757465 		.ascii	"Mutex\000"
 3335      7800
 3336              	.LASF110:
ARM GAS  /tmp/cc7GtYXw.s 			page 62


 3337 02e4 74657374 		.ascii	"test_wait_threads\000"
 3337      5F776169 
 3337      745F7468 
 3337      72656164 
 3337      7300
 3338              	.LASF31:
 3339 02f6 705F6F6C 		.ascii	"p_older\000"
 3339      64657200 
 3340              	.LASF61:
 3341 02fe 725F6374 		.ascii	"r_ctx\000"
 3341      7800
 3342              	.LASF44:
 3343 0304 54687265 		.ascii	"ThreadsQueue\000"
 3343      61647351 
 3343      75657565 
 3343      00
 3344              	.LASF78:
 3345 0311 73657475 		.ascii	"setup\000"
 3345      7000
 3346              	.LASF95:
 3347 0317 5F746573 		.ascii	"_test_assert_sequence\000"
 3347      745F6173 
 3347      73657274 
 3347      5F736571 
 3347      75656E63 
 3348              	.LASF108:
 3349 032d 74696D65 		.ascii	"time\000"
 3349      00
 3350              	.LASF84:
 3351 0332 7072696F 		.ascii	"prio\000"
 3351      00
 3352              	.LASF63:
 3353 0337 725F6F6C 		.ascii	"r_older\000"
 3353      64657200 
 3354              	.LASF103:
 3355 033f 63685468 		.ascii	"chThdSleepUntil\000"
 3355      64536C65 
 3355      6570556E 
 3355      74696C00 
 3356              	.LASF105:
 3357 034f 2E2E2F2E 		.ascii	"../../test/testthd.c\000"
 3357      2E2F7465 
 3357      73742F74 
 3357      65737474 
 3357      68642E63 
 3358              	.LASF20:
 3359 0364 74726566 		.ascii	"trefs_t\000"
 3359      735F7400 
 3360              	.LASF83:
 3361 036c 74686433 		.ascii	"thd3_execute\000"
 3361      5F657865 
 3361      63757465 
 3361      00
 3362              	.LASF27:
 3363 0379 705F7072 		.ascii	"p_prev\000"
 3363      657600
 3364              	.LASF80:
ARM GAS  /tmp/cc7GtYXw.s 			page 63


 3365 0380 65786563 		.ascii	"execute\000"
 3365      75746500 
 3366              	.LASF21:
 3367 0388 74707269 		.ascii	"tprio_t\000"
 3367      6F5F7400 
 3368              	.LASF109:
 3369 0390 74687265 		.ascii	"thread\000"
 3369      616400
 3370              	.LASF17:
 3371 0397 5F426F6F 		.ascii	"_Bool\000"
 3371      6C00
 3372              	.LASF14:
 3373 039d 696E7433 		.ascii	"int32_t\000"
 3373      325F7400 
 3374              	.LASF4:
 3375 03a5 756E7369 		.ascii	"unsigned char\000"
 3375      676E6564 
 3375      20636861 
 3375      7200
 3376              	.LASF111:
 3377 03b3 74657374 		.ascii	"test_wait_tick\000"
 3377      5F776169 
 3377      745F7469 
 3377      636B00
 3378              	.LASF41:
 3379 03c2 705F6D74 		.ascii	"p_mtxlist\000"
 3379      786C6973 
 3379      7400
 3380              	.LASF5:
 3381 03cc 73686F72 		.ascii	"short int\000"
 3381      7420696E 
 3381      7400
 3382              	.LASF33:
 3383 03d6 705F7374 		.ascii	"p_state\000"
 3383      61746500 
 3384              	.LASF88:
 3385 03de 74687265 		.ascii	"threads\000"
 3385      61647300 
 3386              	.LASF60:
 3387 03e6 725F7072 		.ascii	"r_prio\000"
 3387      696F00
 3388              	.LASF73:
 3389 03ed 65776D61 		.ascii	"ewmask\000"
 3389      736B00
 3390              	.LASF26:
 3391 03f4 705F6E65 		.ascii	"p_next\000"
 3391      787400
 3392              	.LASF34:
 3393 03fb 705F666C 		.ascii	"p_flags\000"
 3393      61677300 
 3394              	.LASF25:
 3395 0403 54687265 		.ascii	"Thread\000"
 3395      616400
 3396              	.LASF76:
 3397 040a 74657374 		.ascii	"testcase\000"
 3397      63617365 
 3397      00
ARM GAS  /tmp/cc7GtYXw.s 			page 64


 3398              	.LASF40:
 3399 0413 705F6570 		.ascii	"p_epending\000"
 3399      656E6469 
 3399      6E6700
 3400              	.LASF54:
 3401 041e 76745F74 		.ascii	"vt_time\000"
 3401      696D6500 
 3402              	.LASF15:
 3403 0426 75696E74 		.ascii	"uint32_t\000"
 3403      33325F74 
 3403      00
 3404              	.LASF59:
 3405 042f 725F7175 		.ascii	"r_queue\000"
 3405      65756500 
 3406              	.LASF97:
 3407 0437 63685468 		.ascii	"chThdResume\000"
 3407      64526573 
 3407      756D6500 
 3408              	.LASF10:
 3409 0443 6C6F6E67 		.ascii	"long unsigned int\000"
 3409      20756E73 
 3409      69676E65 
 3409      6420696E 
 3409      7400
 3410              	.LASF64:
 3411 0455 725F6375 		.ascii	"r_current\000"
 3411      7272656E 
 3411      7400
 3412              	.LASF74:
 3413 045f 63686172 		.ascii	"char\000"
 3413      00
 3414              	.LASF107:
 3415 0464 74686434 		.ascii	"thd4_execute\000"
 3415      5F657865 
 3415      63757465 
 3415      00
 3416              	.LASF93:
 3417 0471 70617474 		.ascii	"patternthd\000"
 3417      65726E74 
 3417      686400
 3418              	.LASF69:
 3419 047c 6D5F6E65 		.ascii	"m_next\000"
 3419      787400
 3420              	.LASF24:
 3421 0483 73797374 		.ascii	"systime_t\000"
 3421      696D655F 
 3421      7400
 3422              	.LASF42:
 3423 048d 705F7265 		.ascii	"p_realprio\000"
 3423      616C7072 
 3423      696F00
 3424              	.LASF50:
 3425 0498 76746675 		.ascii	"vtfunc_t\000"
 3425      6E635F74 
 3425      00
 3426              	.LASF9:
 3427 04a1 5F5F7569 		.ascii	"__uint32_t\000"
ARM GAS  /tmp/cc7GtYXw.s 			page 65


 3427      6E743332 
 3427      5F7400
 3428              	.LASF49:
 3429 04ac 636F6E74 		.ascii	"context\000"
 3429      65787400 
 3430              	.LASF48:
 3431 04b4 696E7463 		.ascii	"intctx\000"
 3431      747800
 3432              	.LASF56:
 3433 04bb 76745F70 		.ascii	"vt_par\000"
 3433      617200
 3434              	.LASF101:
 3435 04c2 63685468 		.ascii	"chThdSleep\000"
 3435      64536C65 
 3435      657000
 3436              	.LASF35:
 3437 04cd 705F7265 		.ascii	"p_refs\000"
 3437      667300
 3438              	.LASF65:
 3439 04d4 52656164 		.ascii	"ReadyList\000"
 3439      794C6973 
 3439      7400
 3440              	.LASF87:
 3441 04de 726C6973 		.ascii	"rlist\000"
 3441      7400
 3442              	.LASF13:
 3443 04e4 75696E74 		.ascii	"uint8_t\000"
 3443      385F7400 
 3444              	.LASF72:
 3445 04ec 77746F62 		.ascii	"wtobjp\000"
 3445      6A7000
 3446              	.LASF32:
 3447 04f3 705F6E61 		.ascii	"p_name\000"
 3447      6D6500
 3448              	.LASF99:
 3449 04fa 5F746573 		.ascii	"_test_assert\000"
 3449      745F6173 
 3449      73657274 
 3449      00
 3450              	.LASF57:
 3451 0507 76745F73 		.ascii	"vt_systime\000"
 3451      79737469 
 3451      6D6500
 3452              	.LASF39:
 3453 0512 705F6D73 		.ascii	"p_msg\000"
 3453      6700
 3454              	.LASF58:
 3455 0518 56544C69 		.ascii	"VTList\000"
 3455      737400
 3456              	.LASF68:
 3457 051f 6D5F6F77 		.ascii	"m_owner\000"
 3457      6E657200 
 3458              	.LASF29:
 3459 0527 705F6374 		.ascii	"p_ctx\000"
 3459      7800
 3460              	.LASF55:
 3461 052d 76745F66 		.ascii	"vt_func\000"
ARM GAS  /tmp/cc7GtYXw.s 			page 66


 3461      756E6300 
 3462              		.ident	"GCC: (4.8.3-9+11) 4.8.3 20140820 (release)"
ARM GAS  /tmp/cc7GtYXw.s 			page 67


DEFINED SYMBOLS
                            *ABS*:0000000000000000 testthd.c
     /tmp/cc7GtYXw.s:19     .text.thd1_execute:0000000000000000 $t
     /tmp/cc7GtYXw.s:24     .text.thd1_execute:0000000000000000 thd1_execute
     /tmp/cc7GtYXw.s:134    .text.thd1_execute:00000000000000a0 $d
     /tmp/cc7GtYXw.s:153    .text.thread:0000000000000000 thread
     /tmp/cc7GtYXw.s:148    .text.thread:0000000000000000 $t
     /tmp/cc7GtYXw.s:176    .text.thd2_execute:0000000000000000 $t
     /tmp/cc7GtYXw.s:181    .text.thd2_execute:0000000000000000 thd2_execute
     /tmp/cc7GtYXw.s:315    .text.thd2_execute:00000000000000b0 $d
     /tmp/cc7GtYXw.s:329    .text.thd3_execute:0000000000000000 $t
     /tmp/cc7GtYXw.s:334    .text.thd3_execute:0000000000000000 thd3_execute
     /tmp/cc7GtYXw.s:546    .text.thd3_execute:0000000000000134 $d
     /tmp/cc7GtYXw.s:552    .text.thd4_execute:0000000000000000 $t
     /tmp/cc7GtYXw.s:557    .text.thd4_execute:0000000000000000 thd4_execute
     /tmp/cc7GtYXw.s:653    .text.thd4_execute:000000000000007c $d
     /tmp/cc7GtYXw.s:704    .rodata.patternthd:0000000000000000 patternthd
     /tmp/cc7GtYXw.s:695    .rodata.testthd4:0000000000000000 testthd4
     /tmp/cc7GtYXw.s:686    .rodata.testthd3:0000000000000000 testthd3
     /tmp/cc7GtYXw.s:677    .rodata.testthd2:0000000000000000 testthd2
     /tmp/cc7GtYXw.s:668    .rodata.testthd1:0000000000000000 testthd1
     /tmp/cc7GtYXw.s:665    .rodata.testthd1:0000000000000000 $d
     /tmp/cc7GtYXw.s:674    .rodata.testthd2:0000000000000000 $d
     /tmp/cc7GtYXw.s:683    .rodata.testthd3:0000000000000000 $d
     /tmp/cc7GtYXw.s:692    .rodata.testthd4:0000000000000000 $d
     /tmp/cc7GtYXw.s:701    .rodata.patternthd:0000000000000000 $d
     /tmp/cc7GtYXw.s:711    .rodata.str1.4:0000000000000000 $d
                     .debug_frame:0000000000000010 $d
     /tmp/cc7GtYXw.s:147    .text.thd1_execute:00000000000000c8 $t
     /tmp/cc7GtYXw.s:328    .text.thd2_execute:00000000000000d8 $t
     /tmp/cc7GtYXw.s:551    .text.thd3_execute:0000000000000138 $t

UNDEFINED SYMBOLS
chThdCreateStatic
test_wait_threads
_test_assert_sequence
rlist
wa
threads
test_emit_token
chThdCreateI
chThdResume
chThdSetPriority
_test_assert
test_wait_tick
chThdSleep
_test_assert_time_window
chThdSleepUntil
vtlist
