ARM GAS  /tmp/cck4zLos.s 			page 1


   1              		.syntax unified
   2              		.cpu cortex-m4
   3              		.fpu softvfp
   4              		.eabi_attribute 20, 1
   5              		.eabi_attribute 21, 1
   6              		.eabi_attribute 23, 3
   7              		.eabi_attribute 24, 1
   8              		.eabi_attribute 25, 1
   9              		.eabi_attribute 26, 1
  10              		.eabi_attribute 30, 2
  11              		.eabi_attribute 34, 1
  12              		.eabi_attribute 18, 4
  13              		.thumb
  14              		.file	"testevt.c"
  15              		.text
  16              	.Ltext0:
  17              		.cfi_sections	.debug_frame
  18              		.section	.text.evt1_execute,"ax",%progbits
  19              		.align	2
  20              		.p2align 4,,15
  21              		.thumb
  22              		.thumb_func
  23              		.type	evt1_execute, %function
  24              	evt1_execute:
  25              	.LFB122:
  26              		.file 1 "../../test/testevt.c"
  27              		.loc 1 85 0
  28              		.cfi_startproc
  29              		@ args = 0, pretend = 0, frame = 32
  30              		@ frame_needed = 0, uses_anonymous_args = 0
  31 0000 10B5     		push	{r4, lr}
  32              		.cfi_def_cfa_offset 8
  33              		.cfi_offset 4, -8
  34              		.cfi_offset 14, -4
  35              		.loc 1 91 0
  36 0002 1D4C     		ldr	r4, .L6
  37              		.loc 1 85 0
  38 0004 88B0     		sub	sp, sp, #32
  39              		.cfi_def_cfa_offset 40
  40              		.loc 1 92 0
  41 0006 2046     		mov	r0, r4
  42 0008 6946     		mov	r1, sp
  43 000a 0122     		movs	r2, #1
  44              		.loc 1 91 0
  45 000c 2460     		str	r4, [r4]
  46              		.loc 1 92 0
  47 000e FFF7FEFF 		bl	chEvtRegisterMask
  48              	.LVL0:
  49              		.loc 1 93 0
  50 0012 2046     		mov	r0, r4
  51 0014 04A9     		add	r1, sp, #16
  52 0016 0222     		movs	r2, #2
  53 0018 FFF7FEFF 		bl	chEvtRegisterMask
  54              	.LVL1:
  55              		.loc 1 94 0
  56 001c 2168     		ldr	r1, [r4]
  57 001e 091B     		subs	r1, r1, r4
ARM GAS  /tmp/cck4zLos.s 			page 2


  58 0020 18BF     		it	ne
  59 0022 0121     		movne	r1, #1
  60 0024 0120     		movs	r0, #1
  61 0026 FFF7FEFF 		bl	_test_assert
  62              	.LVL2:
  63 002a 08B1     		cbz	r0, .L5
  64              	.L1:
  65              		.loc 1 105 0
  66 002c 08B0     		add	sp, sp, #32
  67              		@ sp needed
  68 002e 10BD     		pop	{r4, pc}
  69              	.L5:
  70              		.loc 1 95 0
  71 0030 6946     		mov	r1, sp
  72 0032 2046     		mov	r0, r4
  73 0034 FFF7FEFF 		bl	chEvtUnregister
  74              	.LVL3:
  75              		.loc 1 96 0
  76 0038 2168     		ldr	r1, [r4]
  77 003a 091B     		subs	r1, r1, r4
  78 003c 18BF     		it	ne
  79 003e 0121     		movne	r1, #1
  80 0040 0220     		movs	r0, #2
  81 0042 FFF7FEFF 		bl	_test_assert
  82              	.LVL4:
  83 0046 0028     		cmp	r0, #0
  84 0048 F0D1     		bne	.L1
  85              		.loc 1 97 0
  86 004a 04A9     		add	r1, sp, #16
  87 004c 2046     		mov	r0, r4
  88 004e FFF7FEFF 		bl	chEvtUnregister
  89              	.LVL5:
  90              		.loc 1 98 0
  91 0052 2168     		ldr	r1, [r4]
  92 0054 0B1B     		subs	r3, r1, r4
  93 0056 5942     		rsbs	r1, r3, #0
  94 0058 5941     		adcs	r1, r1, r3
  95 005a 0320     		movs	r0, #3
  96 005c FFF7FEFF 		bl	_test_assert
  97              	.LVL6:
  98 0060 0028     		cmp	r0, #0
  99 0062 E3D1     		bne	.L1
 100              		.loc 1 103 0
 101 0064 0548     		ldr	r0, .L6+4
 102 0066 0721     		movs	r1, #7
 103 0068 FFF7FEFF 		bl	chEvtDispatch
 104              	.LVL7:
 105              		.loc 1 104 0
 106 006c 0449     		ldr	r1, .L6+8
 107 006e 0420     		movs	r0, #4
 108 0070 FFF7FEFF 		bl	_test_assert_sequence
 109              	.LVL8:
 110 0074 DAE7     		b	.L1
 111              	.L7:
 112 0076 00BF     		.align	2
 113              	.L6:
 114 0078 00000000 		.word	.LANCHOR0
ARM GAS  /tmp/cck4zLos.s 			page 3


 115 007c 00000000 		.word	.LANCHOR1
 116 0080 00000000 		.word	.LC0
 117              		.cfi_endproc
 118              	.LFE122:
 119              		.size	evt1_execute, .-evt1_execute
 120 0084 AFF30080 		.section	.text.h3,"ax",%progbits
 120      AFF30080 
 120      AFF30080 
 121              		.align	2
 122              		.p2align 4,,15
 123              		.thumb
 124              		.thumb_func
 125              		.type	h3, %function
 126              	h3:
 127              	.LFB121:
 128              		.loc 1 82 0
 129              		.cfi_startproc
 130              		@ args = 0, pretend = 0, frame = 0
 131              		@ frame_needed = 0, uses_anonymous_args = 0
 132              		@ link register save eliminated.
 133              	.LVL9:
 134              		.loc 1 82 0
 135 0000 4320     		movs	r0, #67
 136              	.LVL10:
 137 0002 FFF7FEBF 		b	test_emit_token
 138              	.LVL11:
 139              		.cfi_endproc
 140              	.LFE121:
 141              		.size	h3, .-h3
 142 0006 00BFAFF3 		.section	.text.h2,"ax",%progbits
 142      0080AFF3 
 142      0080
 143              		.align	2
 144              		.p2align 4,,15
 145              		.thumb
 146              		.thumb_func
 147              		.type	h2, %function
 148              	h2:
 149              	.LFB120:
 150              		.loc 1 81 0
 151              		.cfi_startproc
 152              		@ args = 0, pretend = 0, frame = 0
 153              		@ frame_needed = 0, uses_anonymous_args = 0
 154              		@ link register save eliminated.
 155              	.LVL12:
 156              		.loc 1 81 0
 157 0000 4220     		movs	r0, #66
 158              	.LVL13:
 159 0002 FFF7FEBF 		b	test_emit_token
 160              	.LVL14:
 161              		.cfi_endproc
 162              	.LFE120:
 163              		.size	h2, .-h2
 164 0006 00BFAFF3 		.section	.text.h1,"ax",%progbits
 164      0080AFF3 
 164      0080
 165              		.align	2
ARM GAS  /tmp/cck4zLos.s 			page 4


 166              		.p2align 4,,15
 167              		.thumb
 168              		.thumb_func
 169              		.type	h1, %function
 170              	h1:
 171              	.LFB119:
 172              		.loc 1 80 0
 173              		.cfi_startproc
 174              		@ args = 0, pretend = 0, frame = 0
 175              		@ frame_needed = 0, uses_anonymous_args = 0
 176              		@ link register save eliminated.
 177              	.LVL15:
 178              		.loc 1 80 0
 179 0000 4120     		movs	r0, #65
 180              	.LVL16:
 181 0002 FFF7FEBF 		b	test_emit_token
 182              	.LVL17:
 183              		.cfi_endproc
 184              	.LFE119:
 185              		.size	h1, .-h1
 186 0006 00BFAFF3 		.section	.text.evt1_setup,"ax",%progbits
 186      0080AFF3 
 186      0080
 187              		.align	2
 188              		.p2align 4,,15
 189              		.thumb
 190              		.thumb_func
 191              		.type	evt1_setup, %function
 192              	evt1_setup:
 193              	.LFB118:
 194              		.loc 1 75 0
 195              		.cfi_startproc
 196              		@ args = 0, pretend = 0, frame = 0
 197              		@ frame_needed = 0, uses_anonymous_args = 0
 198              		@ link register save eliminated.
 199              		.loc 1 77 0
 200 0000 4FF0FF30 		mov	r0, #-1
 201 0004 FFF7FEBF 		b	chEvtGetAndClearEvents
 202              	.LVL18:
 203              		.cfi_endproc
 204              	.LFE118:
 205              		.size	evt1_setup, .-evt1_setup
 206 0008 AFF30080 		.section	.text.evt2_setup,"ax",%progbits
 206      AFF30080 
 207              		.align	2
 208              		.p2align 4,,15
 209              		.thumb
 210              		.thumb_func
 211              		.type	evt2_setup, %function
 212              	evt2_setup:
 213              	.LFB123:
 214              		.loc 1 128 0
 215              		.cfi_startproc
 216              		@ args = 0, pretend = 0, frame = 0
 217              		@ frame_needed = 0, uses_anonymous_args = 0
 218              		@ link register save eliminated.
 219              		.loc 1 130 0
ARM GAS  /tmp/cck4zLos.s 			page 5


 220 0000 4FF0FF30 		mov	r0, #-1
 221 0004 FFF7FEBF 		b	chEvtGetAndClearEvents
 222              	.LVL19:
 223              		.cfi_endproc
 224              	.LFE123:
 225              		.size	evt2_setup, .-evt2_setup
 226 0008 AFF30080 		.section	.text.evt3_setup,"ax",%progbits
 226      AFF30080 
 227              		.align	2
 228              		.p2align 4,,15
 229              		.thumb
 230              		.thumb_func
 231              		.type	evt3_setup, %function
 232              	evt3_setup:
 233              	.LFB127:
 234              		.loc 1 247 0
 235              		.cfi_startproc
 236              		@ args = 0, pretend = 0, frame = 0
 237              		@ frame_needed = 0, uses_anonymous_args = 0
 238              		@ link register save eliminated.
 239              		.loc 1 249 0
 240 0000 4FF0FF30 		mov	r0, #-1
 241 0004 FFF7FEBF 		b	chEvtGetAndClearEvents
 242              	.LVL20:
 243              		.cfi_endproc
 244              	.LFE127:
 245              		.size	evt3_setup, .-evt3_setup
 246 0008 AFF30080 		.section	.text.evt2_execute,"ax",%progbits
 246      AFF30080 
 247              		.align	2
 248              		.p2align 4,,15
 249              		.thumb
 250              		.thumb_func
 251              		.type	evt2_execute, %function
 252              	evt2_execute:
 253              	.LFB126:
 254              		.loc 1 149 0
 255              		.cfi_startproc
 256              		@ args = 0, pretend = 0, frame = 40
 257              		@ frame_needed = 0, uses_anonymous_args = 0
 258 0000 2DE9F042 		push	{r4, r5, r6, r7, r9, lr}
 259              		.cfi_def_cfa_offset 24
 260              		.cfi_offset 4, -24
 261              		.cfi_offset 5, -20
 262              		.cfi_offset 6, -16
 263              		.cfi_offset 7, -12
 264              		.cfi_offset 9, -8
 265              		.cfi_offset 14, -4
 266              		.loc 1 157 0
 267 0004 0520     		movs	r0, #5
 268              		.loc 1 149 0
 269 0006 8CB0     		sub	sp, sp, #48
 270              		.cfi_def_cfa_offset 72
 271              		.loc 1 157 0
 272 0008 FFF7FEFF 		bl	chEvtAddEvents
 273              	.LVL21:
 274              		.loc 1 158 0
ARM GAS  /tmp/cck4zLos.s 			page 6


 275 000c 4FF0FF30 		mov	r0, #-1
 276 0010 FFF7FEFF 		bl	chEvtWaitOne
 277              	.LVL22:
 278              		.loc 1 159 0
 279 0014 B0F10109 		subs	r9, r0, #1
 280 0018 D9F10001 		rsbs	r1, r9, #0
 281 001c 51EB0901 		adcs	r1, r1, r9
 282 0020 0120     		movs	r0, #1
 283              	.LVL23:
 284 0022 FFF7FEFF 		bl	_test_assert
 285              	.LVL24:
 286 0026 10B1     		cbz	r0, .L17
 287              	.LVL25:
 288              	.L14:
 289              		.loc 1 222 0
 290 0028 0CB0     		add	sp, sp, #48
 291              		@ sp needed
 292 002a BDE8F082 		pop	{r4, r5, r6, r7, r9, pc}
 293              	.LVL26:
 294              	.L17:
 295              		.loc 1 160 0
 296 002e 4FF0FF30 		mov	r0, #-1
 297 0032 FFF7FEFF 		bl	chEvtWaitOne
 298              	.LVL27:
 299              		.loc 1 161 0
 300 0036 B0F1040C 		subs	ip, r0, #4
 301 003a DCF10001 		rsbs	r1, ip, #0
 302 003e 51EB0C01 		adcs	r1, r1, ip
 303 0042 0220     		movs	r0, #2
 304              	.LVL28:
 305 0044 FFF7FEFF 		bl	_test_assert
 306              	.LVL29:
 307 0048 0028     		cmp	r0, #0
 308 004a EDD1     		bne	.L14
 309              		.loc 1 162 0
 310 004c 4FF0FF30 		mov	r0, #-1
 311 0050 FFF7FEFF 		bl	chEvtGetAndClearEvents
 312              	.LVL30:
 313              		.loc 1 163 0
 314 0054 D0F10101 		rsbs	r1, r0, #1
 315 0058 38BF     		it	cc
 316 005a 0021     		movcc	r1, #0
 317 005c 0320     		movs	r0, #3
 318              	.LVL31:
 319 005e FFF7FEFF 		bl	_test_assert
 320              	.LVL32:
 321 0062 0028     		cmp	r0, #0
 322 0064 E0D1     		bne	.L14
 323              		.loc 1 170 0
 324 0066 734D     		ldr	r5, .L18
 325              		.loc 1 169 0
 326 0068 734F     		ldr	r7, .L18+4
 327              		.loc 1 170 0
 328 006a 744E     		ldr	r6, .L18+8
 329              		.loc 1 168 0
 330 006c FFF7FEFF 		bl	test_wait_tick
 331              	.LVL33:
ARM GAS  /tmp/cck4zLos.s 			page 7


 332              		.loc 1 170 0
 333 0070 AB69     		ldr	r3, [r5, #24]
 334 0072 7349     		ldr	r1, .L18+12
 335 0074 9A68     		ldr	r2, [r3, #8]
 336 0076 0968     		ldr	r1, [r1]
 337 0078 0093     		str	r3, [sp]
 338 007a 013A     		subs	r2, r2, #1
 339 007c 0391     		str	r1, [sp, #12]
 340 007e 0846     		mov	r0, r1
 341 0080 704B     		ldr	r3, .L18+16
 342              		.loc 1 169 0
 343 0082 FC68     		ldr	r4, [r7, #12]
 344              	.LVL34:
 345              		.loc 1 170 0
 346 0084 4FF4A871 		mov	r1, #336
 347 0088 FFF7FEFF 		bl	chThdCreateStatic
 348              	.LVL35:
 349 008c 3060     		str	r0, [r6]
 350              		.loc 1 172 0
 351 008e 4FF0FF30 		mov	r0, #-1
 352 0092 FFF7FEFF 		bl	chEvtWaitOne
 353              	.LVL36:
 354              		.loc 1 173 0
 355 0096 04F5FA71 		add	r1, r4, #500
 356              	.LVL37:
 357              		.loc 1 172 0
 358 009a 8146     		mov	r9, r0
 359              	.LVL38:
 360              		.loc 1 173 0
 361 009c 04F22622 		addw	r2, r4, #550
 362 00a0 0420     		movs	r0, #4
 363              	.LVL39:
 364 00a2 FFF7FEFF 		bl	_test_assert_time_window
 365              	.LVL40:
 366 00a6 0028     		cmp	r0, #0
 367 00a8 BED1     		bne	.L14
 368              		.loc 1 174 0
 369 00aa B9F1010E 		subs	lr, r9, #1
 370 00ae DEF10001 		rsbs	r1, lr, #0
 371 00b2 51EB0E01 		adcs	r1, r1, lr
 372 00b6 0520     		movs	r0, #5
 373 00b8 FFF7FEFF 		bl	_test_assert
 374              	.LVL41:
 375 00bc 0028     		cmp	r0, #0
 376 00be B3D1     		bne	.L14
 377              		.loc 1 175 0
 378 00c0 4FF0FF30 		mov	r0, #-1
 379 00c4 FFF7FEFF 		bl	chEvtGetAndClearEvents
 380              	.LVL42:
 381              		.loc 1 176 0
 382 00c8 D0F10101 		rsbs	r1, r0, #1
 383 00cc 38BF     		it	cc
 384 00ce 0021     		movcc	r1, #0
 385 00d0 0620     		movs	r0, #6
 386              	.LVL43:
 387 00d2 FFF7FEFF 		bl	_test_assert
 388              	.LVL44:
ARM GAS  /tmp/cck4zLos.s 			page 8


 389 00d6 0028     		cmp	r0, #0
 390 00d8 A6D1     		bne	.L14
 391              		.loc 1 177 0
 392 00da FFF7FEFF 		bl	test_wait_threads
 393              	.LVL45:
 394              		.loc 1 182 0
 395 00de 0520     		movs	r0, #5
 396 00e0 FFF7FEFF 		bl	chEvtAddEvents
 397              	.LVL46:
 398              		.loc 1 183 0
 399 00e4 4FF0FF30 		mov	r0, #-1
 400 00e8 FFF7FEFF 		bl	chEvtWaitAny
 401              	.LVL47:
 402              		.loc 1 184 0
 403 00ec 441F     		subs	r4, r0, #5
 404              	.LVL48:
 405 00ee 6142     		rsbs	r1, r4, #0
 406 00f0 6141     		adcs	r1, r1, r4
 407 00f2 0720     		movs	r0, #7
 408              	.LVL49:
 409 00f4 FFF7FEFF 		bl	_test_assert
 410              	.LVL50:
 411 00f8 0028     		cmp	r0, #0
 412 00fa 95D1     		bne	.L14
 413              		.loc 1 185 0
 414 00fc 4FF0FF30 		mov	r0, #-1
 415 0100 FFF7FEFF 		bl	chEvtGetAndClearEvents
 416              	.LVL51:
 417              		.loc 1 186 0
 418 0104 D0F10101 		rsbs	r1, r0, #1
 419 0108 38BF     		it	cc
 420 010a 0021     		movcc	r1, #0
 421 010c 0820     		movs	r0, #8
 422              	.LVL52:
 423 010e FFF7FEFF 		bl	_test_assert
 424              	.LVL53:
 425 0112 0028     		cmp	r0, #0
 426 0114 88D1     		bne	.L14
 427              		.loc 1 191 0
 428 0116 FFF7FEFF 		bl	test_wait_tick
 429              	.LVL54:
 430              		.loc 1 193 0
 431 011a A969     		ldr	r1, [r5, #24]
 432 011c 494B     		ldr	r3, .L18+16
 433 011e 8A68     		ldr	r2, [r1, #8]
 434 0120 0398     		ldr	r0, [sp, #12]
 435 0122 0091     		str	r1, [sp]
 436 0124 013A     		subs	r2, r2, #1
 437 0126 4FF4A871 		mov	r1, #336
 438              		.loc 1 192 0
 439 012a FC68     		ldr	r4, [r7, #12]
 440              	.LVL55:
 441              		.loc 1 193 0
 442 012c FFF7FEFF 		bl	chThdCreateStatic
 443              	.LVL56:
 444 0130 3060     		str	r0, [r6]
 445              		.loc 1 195 0
ARM GAS  /tmp/cck4zLos.s 			page 9


 446 0132 4FF0FF30 		mov	r0, #-1
 447 0136 FFF7FEFF 		bl	chEvtWaitAny
 448              	.LVL57:
 449              		.loc 1 196 0
 450 013a 04F5FA71 		add	r1, r4, #500
 451              	.LVL58:
 452              		.loc 1 195 0
 453 013e 8146     		mov	r9, r0
 454              	.LVL59:
 455              		.loc 1 196 0
 456 0140 04F22622 		addw	r2, r4, #550
 457 0144 0920     		movs	r0, #9
 458              	.LVL60:
 459 0146 FFF7FEFF 		bl	_test_assert_time_window
 460              	.LVL61:
 461 014a 0028     		cmp	r0, #0
 462 014c 7FF46CAF 		bne	.L14
 463              		.loc 1 197 0
 464 0150 B9F10100 		subs	r0, r9, #1
 465 0154 4142     		rsbs	r1, r0, #0
 466 0156 4141     		adcs	r1, r1, r0
 467 0158 0A20     		movs	r0, #10
 468 015a FFF7FEFF 		bl	_test_assert
 469              	.LVL62:
 470 015e 0028     		cmp	r0, #0
 471 0160 7FF462AF 		bne	.L14
 472              		.loc 1 198 0
 473 0164 4FF0FF30 		mov	r0, #-1
 474 0168 FFF7FEFF 		bl	chEvtGetAndClearEvents
 475              	.LVL63:
 476              		.loc 1 199 0
 477 016c D0F10101 		rsbs	r1, r0, #1
 478 0170 38BF     		it	cc
 479 0172 0021     		movcc	r1, #0
 480 0174 0B20     		movs	r0, #11
 481              	.LVL64:
 482 0176 FFF7FEFF 		bl	_test_assert
 483              	.LVL65:
 484 017a 0028     		cmp	r0, #0
 485 017c 7FF454AF 		bne	.L14
 486              		.loc 1 205 0
 487 0180 DFF8D090 		ldr	r9, .L18+32
 488              		.loc 1 206 0
 489 0184 304C     		ldr	r4, .L18+20
 490              	.LVL66:
 491              		.loc 1 200 0
 492 0186 FFF7FEFF 		bl	test_wait_threads
 493              	.LVL67:
 494              		.loc 1 207 0
 495 018a 4846     		mov	r0, r9
 496 018c 04A9     		add	r1, sp, #16
 497 018e 0122     		movs	r2, #1
 498              		.loc 1 205 0
 499 0190 C9F80090 		str	r9, [r9]
 500              		.loc 1 206 0
 501 0194 2460     		str	r4, [r4]
 502              		.loc 1 207 0
ARM GAS  /tmp/cck4zLos.s 			page 10


 503 0196 FFF7FEFF 		bl	chEvtRegisterMask
 504              	.LVL68:
 505              		.loc 1 208 0
 506 019a 08A9     		add	r1, sp, #32
 507 019c 0422     		movs	r2, #4
 508 019e 2046     		mov	r0, r4
 509 01a0 FFF7FEFF 		bl	chEvtRegisterMask
 510              	.LVL69:
 511              		.loc 1 209 0
 512 01a4 FFF7FEFF 		bl	test_wait_tick
 513              	.LVL70:
 514              		.loc 1 211 0
 515 01a8 AB69     		ldr	r3, [r5, #24]
 516 01aa 2849     		ldr	r1, .L18+24
 517 01ac 9A68     		ldr	r2, [r3, #8]
 518 01ae 0398     		ldr	r0, [sp, #12]
 519 01b0 0091     		str	r1, [sp]
 520 01b2 013A     		subs	r2, r2, #1
 521 01b4 4FF4A871 		mov	r1, #336
 522 01b8 254B     		ldr	r3, .L18+28
 523              		.loc 1 210 0
 524 01ba FD68     		ldr	r5, [r7, #12]
 525              	.LVL71:
 526              		.loc 1 211 0
 527 01bc FFF7FEFF 		bl	chThdCreateStatic
 528              	.LVL72:
 529 01c0 3060     		str	r0, [r6]
 530              		.loc 1 213 0
 531 01c2 0520     		movs	r0, #5
 532 01c4 FFF7FEFF 		bl	chEvtWaitAll
 533              	.LVL73:
 534              		.loc 1 214 0
 535 01c8 05F5FA71 		add	r1, r5, #500
 536              	.LVL74:
 537 01cc 05F22622 		addw	r2, r5, #550
 538 01d0 0C20     		movs	r0, #12
 539 01d2 FFF7FEFF 		bl	_test_assert_time_window
 540              	.LVL75:
 541 01d6 0028     		cmp	r0, #0
 542 01d8 7FF426AF 		bne	.L14
 543              		.loc 1 215 0
 544 01dc 4FF0FF30 		mov	r0, #-1
 545 01e0 FFF7FEFF 		bl	chEvtGetAndClearEvents
 546              	.LVL76:
 547              		.loc 1 216 0
 548 01e4 D0F10101 		rsbs	r1, r0, #1
 549 01e8 38BF     		it	cc
 550 01ea 0021     		movcc	r1, #0
 551 01ec 0D20     		movs	r0, #13
 552              	.LVL77:
 553 01ee FFF7FEFF 		bl	_test_assert
 554              	.LVL78:
 555 01f2 0028     		cmp	r0, #0
 556 01f4 7FF418AF 		bne	.L14
 557              		.loc 1 217 0
 558 01f8 FFF7FEFF 		bl	test_wait_threads
 559              	.LVL79:
ARM GAS  /tmp/cck4zLos.s 			page 11


 560              		.loc 1 218 0
 561 01fc 4846     		mov	r0, r9
 562 01fe 04A9     		add	r1, sp, #16
 563 0200 FFF7FEFF 		bl	chEvtUnregister
 564              	.LVL80:
 565              		.loc 1 219 0
 566 0204 2046     		mov	r0, r4
 567 0206 08A9     		add	r1, sp, #32
 568 0208 FFF7FEFF 		bl	chEvtUnregister
 569              	.LVL81:
 570              		.loc 1 220 0
 571 020c D9F80010 		ldr	r1, [r9]
 572 0210 B1EB0902 		subs	r2, r1, r9
 573 0214 5142     		rsbs	r1, r2, #0
 574 0216 5141     		adcs	r1, r1, r2
 575 0218 0E20     		movs	r0, #14
 576 021a FFF7FEFF 		bl	_test_assert
 577              	.LVL82:
 578 021e 0028     		cmp	r0, #0
 579 0220 7FF402AF 		bne	.L14
 580              		.loc 1 221 0
 581 0224 2168     		ldr	r1, [r4]
 582 0226 0B1B     		subs	r3, r1, r4
 583 0228 5942     		rsbs	r1, r3, #0
 584 022a 5941     		adcs	r1, r1, r3
 585 022c 0F20     		movs	r0, #15
 586 022e FFF7FEFF 		bl	_test_assert
 587              	.LVL83:
 588 0232 F9E6     		b	.L14
 589              	.L19:
 590              		.align	2
 591              	.L18:
 592 0234 00000000 		.word	rlist
 593 0238 00000000 		.word	vtlist
 594 023c 00000000 		.word	threads
 595 0240 00000000 		.word	wa
 596 0244 00000000 		.word	thread1
 597 0248 00000000 		.word	.LANCHOR2
 598 024c 04000000 		.word	.LC1
 599 0250 00000000 		.word	thread2
 600 0254 00000000 		.word	.LANCHOR0
 601              		.cfi_endproc
 602              	.LFE126:
 603              		.size	evt2_execute, .-evt2_execute
 604 0258 AFF30080 		.section	.text.thread2,"ax",%progbits
 604      AFF30080 
 605              		.align	2
 606              		.p2align 4,,15
 607              		.thumb
 608              		.thumb_func
 609              		.type	thread2, %function
 610              	thread2:
 611              	.LFB125:
 612              		.loc 1 140 0
 613              		.cfi_startproc
 614              		@ args = 0, pretend = 0, frame = 0
 615              		@ frame_needed = 0, uses_anonymous_args = 0
ARM GAS  /tmp/cck4zLos.s 			page 12


 616              	.LVL84:
 617 0000 08B5     		push	{r3, lr}
 618              		.cfi_def_cfa_offset 8
 619              		.cfi_offset 3, -8
 620              		.cfi_offset 14, -4
 621              		.loc 1 143 0
 622 0002 0021     		movs	r1, #0
 623 0004 0648     		ldr	r0, .L21
 624              	.LVL85:
 625 0006 FFF7FEFF 		bl	chEvtBroadcastFlags
 626              	.LVL86:
 627              		.loc 1 144 0
 628 000a 4FF4FA70 		mov	r0, #500
 629 000e FFF7FEFF 		bl	chThdSleep
 630              	.LVL87:
 631              		.loc 1 145 0
 632 0012 0448     		ldr	r0, .L21+4
 633 0014 0021     		movs	r1, #0
 634 0016 FFF7FEFF 		bl	chEvtBroadcastFlags
 635              	.LVL88:
 636              		.loc 1 147 0
 637 001a 0020     		movs	r0, #0
 638 001c 08BD     		pop	{r3, pc}
 639              	.L22:
 640 001e 00BF     		.align	2
 641              	.L21:
 642 0020 00000000 		.word	.LANCHOR0
 643 0024 00000000 		.word	.LANCHOR2
 644              		.cfi_endproc
 645              	.LFE125:
 646              		.size	thread2, .-thread2
 647 0028 AFF30080 		.section	.text.thread1,"ax",%progbits
 647      AFF30080 
 648              		.align	2
 649              		.p2align 4,,15
 650              		.thumb
 651              		.thumb_func
 652              		.type	thread1, %function
 653              	thread1:
 654              	.LFB124:
 655              		.loc 1 133 0
 656              		.cfi_startproc
 657              		@ args = 0, pretend = 0, frame = 0
 658              		@ frame_needed = 0, uses_anonymous_args = 0
 659              	.LVL89:
 660 0000 10B5     		push	{r4, lr}
 661              		.cfi_def_cfa_offset 8
 662              		.cfi_offset 4, -8
 663              		.cfi_offset 14, -4
 664              		.loc 1 133 0
 665 0002 0446     		mov	r4, r0
 666              		.loc 1 135 0
 667 0004 4FF4FA70 		mov	r0, #500
 668              	.LVL90:
 669 0008 FFF7FEFF 		bl	chThdSleep
 670              	.LVL91:
 671              		.loc 1 136 0
ARM GAS  /tmp/cck4zLos.s 			page 13


 672 000c 2046     		mov	r0, r4
 673 000e 0121     		movs	r1, #1
 674 0010 FFF7FEFF 		bl	chEvtSignal
 675              	.LVL92:
 676              		.loc 1 138 0
 677 0014 0020     		movs	r0, #0
 678 0016 10BD     		pop	{r4, pc}
 679              		.cfi_endproc
 680              	.LFE124:
 681              		.size	thread1, .-thread1
 682 0018 AFF30080 		.section	.text.evt3_execute,"ax",%progbits
 682      AFF30080 
 683              		.align	2
 684              		.p2align 4,,15
 685              		.thumb
 686              		.thumb_func
 687              		.type	evt3_execute, %function
 688              	evt3_execute:
 689              	.LFB128:
 690              		.loc 1 252 0
 691              		.cfi_startproc
 692              		@ args = 0, pretend = 0, frame = 0
 693              		@ frame_needed = 0, uses_anonymous_args = 0
 694 0000 08B5     		push	{r3, lr}
 695              		.cfi_def_cfa_offset 8
 696              		.cfi_offset 3, -8
 697              		.cfi_offset 14, -4
 698              		.loc 1 258 0
 699 0002 0021     		movs	r1, #0
 700 0004 4FF0FF30 		mov	r0, #-1
 701 0008 FFF7FEFF 		bl	chEvtWaitOneTimeout
 702              	.LVL93:
 703              		.loc 1 259 0
 704 000c D0F10101 		rsbs	r1, r0, #1
 705 0010 38BF     		it	cc
 706 0012 0021     		movcc	r1, #0
 707 0014 0120     		movs	r0, #1
 708              	.LVL94:
 709 0016 FFF7FEFF 		bl	_test_assert
 710              	.LVL95:
 711 001a 00B1     		cbz	r0, .L28
 712              	.L24:
 713 001c 08BD     		pop	{r3, pc}
 714              	.L28:
 715              		.loc 1 260 0
 716 001e 0146     		mov	r1, r0
 717 0020 4FF0FF30 		mov	r0, #-1
 718 0024 FFF7FEFF 		bl	chEvtWaitAnyTimeout
 719              	.LVL96:
 720              		.loc 1 261 0
 721 0028 D0F10101 		rsbs	r1, r0, #1
 722 002c 38BF     		it	cc
 723 002e 0021     		movcc	r1, #0
 724 0030 0220     		movs	r0, #2
 725              	.LVL97:
 726 0032 FFF7FEFF 		bl	_test_assert
 727              	.LVL98:
ARM GAS  /tmp/cck4zLos.s 			page 14


 728 0036 0028     		cmp	r0, #0
 729 0038 F0D1     		bne	.L24
 730              		.loc 1 262 0
 731 003a 0146     		mov	r1, r0
 732 003c 4FF0FF30 		mov	r0, #-1
 733 0040 FFF7FEFF 		bl	chEvtWaitAllTimeout
 734              	.LVL99:
 735              		.loc 1 263 0
 736 0044 D0F10101 		rsbs	r1, r0, #1
 737 0048 38BF     		it	cc
 738 004a 0021     		movcc	r1, #0
 739 004c 0320     		movs	r0, #3
 740              	.LVL100:
 741 004e FFF7FEFF 		bl	_test_assert
 742              	.LVL101:
 743 0052 0028     		cmp	r0, #0
 744 0054 E2D1     		bne	.L24
 745              	.LBB4:
 746              	.LBB5:
 747              		.loc 1 264 0
 748 0056 0A21     		movs	r1, #10
 749 0058 4FF0FF30 		mov	r0, #-1
 750 005c FFF7FEFF 		bl	chEvtWaitOneTimeout
 751              	.LVL102:
 752              		.loc 1 265 0
 753 0060 D0F10101 		rsbs	r1, r0, #1
 754 0064 38BF     		it	cc
 755 0066 0021     		movcc	r1, #0
 756 0068 0420     		movs	r0, #4
 757              	.LVL103:
 758 006a FFF7FEFF 		bl	_test_assert
 759              	.LVL104:
 760 006e 0028     		cmp	r0, #0
 761 0070 D4D1     		bne	.L24
 762              		.loc 1 266 0
 763 0072 0A21     		movs	r1, #10
 764 0074 4FF0FF30 		mov	r0, #-1
 765 0078 FFF7FEFF 		bl	chEvtWaitAnyTimeout
 766              	.LVL105:
 767              		.loc 1 267 0
 768 007c D0F10101 		rsbs	r1, r0, #1
 769 0080 38BF     		it	cc
 770 0082 0021     		movcc	r1, #0
 771 0084 0520     		movs	r0, #5
 772              	.LVL106:
 773 0086 FFF7FEFF 		bl	_test_assert
 774              	.LVL107:
 775 008a 0028     		cmp	r0, #0
 776 008c C6D1     		bne	.L24
 777              		.loc 1 268 0
 778 008e 0A21     		movs	r1, #10
 779 0090 4FF0FF30 		mov	r0, #-1
 780 0094 FFF7FEFF 		bl	chEvtWaitAllTimeout
 781              	.LVL108:
 782              		.loc 1 269 0
 783 0098 D0F10101 		rsbs	r1, r0, #1
 784 009c 38BF     		it	cc
ARM GAS  /tmp/cck4zLos.s 			page 15


 785 009e 0021     		movcc	r1, #0
 786 00a0 0620     		movs	r0, #6
 787              	.LVL109:
 788              	.LBE5:
 789              	.LBE4:
 790              		.loc 1 270 0
 791 00a2 BDE80840 		pop	{r3, lr}
 792              	.LBB7:
 793              	.LBB6:
 794              		.loc 1 269 0
 795 00a6 FFF7FEBF 		b	_test_assert
 796              	.LVL110:
 797              	.LBE6:
 798              	.LBE7:
 799              		.cfi_endproc
 800              	.LFE128:
 801              		.size	evt3_execute, .-evt3_execute
 802              		.global	patternevt
 803              		.global	testevt3
 804              		.global	testevt2
 805              		.global	testevt1
 806 00aa 00BFAFF3 		.section	.rodata.patternevt,"a",%progbits
 806      0080
 807              		.align	2
 808              		.type	patternevt, %object
 809              		.size	patternevt, 16
 810              	patternevt:
 811 0000 00000000 		.word	testevt1
 812 0004 00000000 		.word	testevt2
 813 0008 00000000 		.word	testevt3
 814 000c 00000000 		.word	0
 815              		.section	.rodata.testevt2,"a",%progbits
 816              		.align	2
 817              		.type	testevt2, %object
 818              		.size	testevt2, 16
 819              	testevt2:
 820 0000 1C000000 		.word	.LC3
 821 0004 00000000 		.word	evt2_setup
 822 0008 00000000 		.word	0
 823 000c 00000000 		.word	evt2_execute
 824              		.section	.rodata.str1.4,"aMS",%progbits,1
 825              		.align	2
 826              	.LC0:
 827 0000 41424300 		.ascii	"ABC\000"
 828              	.LC1:
 829 0004 4100     		.ascii	"A\000"
 830 0006 0000     		.space	2
 831              	.LC2:
 832 0008 4576656E 		.ascii	"Events, timeouts\000"
 832      74732C20 
 832      74696D65 
 832      6F757473 
 832      00
 833 0019 000000   		.space	3
 834              	.LC3:
 835 001c 4576656E 		.ascii	"Events, wait and broadcast\000"
 835      74732C20 
ARM GAS  /tmp/cck4zLos.s 			page 16


 835      77616974 
 835      20616E64 
 835      2062726F 
 836 0037 00       		.space	1
 837              	.LC4:
 838 0038 4576656E 		.ascii	"Events, registration and dispatch\000"
 838      74732C20 
 838      72656769 
 838      73747261 
 838      74696F6E 
 839 005a 0000     		.section	.rodata.testevt1,"a",%progbits
 840              		.align	2
 841              		.type	testevt1, %object
 842              		.size	testevt1, 16
 843              	testevt1:
 844 0000 38000000 		.word	.LC4
 845 0004 00000000 		.word	evt1_setup
 846 0008 00000000 		.word	0
 847 000c 00000000 		.word	evt1_execute
 848              		.section	.rodata.evhndl,"a",%progbits
 849              		.align	2
 850              		.set	.LANCHOR1,. + 0
 851              		.type	evhndl, %object
 852              		.size	evhndl, 12
 853              	evhndl:
 854 0000 00000000 		.word	h1
 855 0004 00000000 		.word	h2
 856 0008 00000000 		.word	h3
 857              		.section	.rodata.testevt3,"a",%progbits
 858              		.align	2
 859              		.type	testevt3, %object
 860              		.size	testevt3, 16
 861              	testevt3:
 862 0000 08000000 		.word	.LC2
 863 0004 00000000 		.word	evt3_setup
 864 0008 00000000 		.word	0
 865 000c 00000000 		.word	evt3_execute
 866              		.section	.data.es1,"aw",%progbits
 867              		.align	2
 868              		.set	.LANCHOR0,. + 0
 869              		.type	es1, %object
 870              		.size	es1, 4
 871              	es1:
 872 0000 00000000 		.word	es1
 873              		.section	.data.es2,"aw",%progbits
 874              		.align	2
 875              		.set	.LANCHOR2,. + 0
 876              		.type	es2, %object
 877              		.size	es2, 4
 878              	es2:
 879 0000 00000000 		.word	es2
 880              		.text
 881              	.Letext0:
 882              		.file 2 "/usr/lib/gcc/arm-none-eabi/4.8/include/stddef.h"
 883              		.file 3 "/usr/include/newlib/machine/_default_types.h"
 884              		.file 4 "/usr/include/newlib/stdint.h"
 885              		.file 5 "../../os/ports/GCC/ARMCMx/chtypes.h"
ARM GAS  /tmp/cck4zLos.s 			page 17


 886              		.file 6 "../../os/kernel/include/chlists.h"
 887              		.file 7 "../../os/kernel/include/chthreads.h"
 888              		.file 8 "../../os/ports/GCC/ARMCMx/chcore_v7m.h"
 889              		.file 9 "../../os/kernel/include/chvt.h"
 890              		.file 10 "../../os/kernel/include/chschd.h"
 891              		.file 11 "../../os/kernel/include/chmtx.h"
 892              		.file 12 "../../os/kernel/include/chevents.h"
 893              		.file 13 "../../test/test.h"
 894              		.file 14 "../../os/ports/common/ARMCMx/CMSIS/include/core_cm4.h"