ARM GAS  /tmp/ccri66Zx.s 			page 1


   1              		.syntax unified
   2              		.cpu cortex-m4
   3              		.fpu softvfp
   4              		.eabi_attribute 20, 1
   5              		.eabi_attribute 21, 1
   6              		.eabi_attribute 23, 3
   7              		.eabi_attribute 24, 1
   8              		.eabi_attribute 25, 1
   9              		.eabi_attribute 26, 1
  10              		.eabi_attribute 30, 2
  11              		.eabi_attribute 34, 1
  12              		.eabi_attribute 18, 4
  13              		.thumb
  14              		.file	"testsem.c"
  15              		.text
  16              	.Ltext0:
  17              		.cfi_sections	.debug_frame
  18              		.section	.text.sem1_execute,"ax",%progbits
  19              		.align	2
  20              		.p2align 4,,15
  21              		.thumb
  22              		.thumb_func
  23              		.type	sem1_execute, %function
  24              	sem1_execute:
  25              	.LFB120:
  26              		.file 1 "../../test/testsem.c"
  27              		.loc 1 84 0
  28              		.cfi_startproc
  29              		@ args = 0, pretend = 0, frame = 0
  30              		@ frame_needed = 0, uses_anonymous_args = 0
  31 0000 2DE9F043 		push	{r4, r5, r6, r7, r8, r9, lr}
  32              		.cfi_def_cfa_offset 28
  33              		.cfi_offset 4, -28
  34              		.cfi_offset 5, -24
  35              		.cfi_offset 6, -20
  36              		.cfi_offset 7, -16
  37              		.cfi_offset 8, -12
  38              		.cfi_offset 9, -8
  39              		.cfi_offset 14, -4
  40              		.loc 1 86 0
  41 0004 434E     		ldr	r6, .L5
  42 0006 444F     		ldr	r7, .L5+4
  43 0008 B369     		ldr	r3, [r6, #24]
  44 000a D7F80080 		ldr	r8, [r7]
  45 000e 9A68     		ldr	r2, [r3, #8]
  46 0010 DFF82891 		ldr	r9, .L5+40
  47 0014 414B     		ldr	r3, .L5+8
  48 0016 424D     		ldr	r5, .L5+12
  49              		.loc 1 91 0
  50 0018 424C     		ldr	r4, .L5+16
  51              		.loc 1 84 0
  52 001a 83B0     		sub	sp, sp, #12
  53              		.cfi_def_cfa_offset 40
  54              		.loc 1 86 0
  55 001c 0532     		adds	r2, r2, #5
  56 001e 4FF4A871 		mov	r1, #336
  57 0022 CDF80090 		str	r9, [sp]
ARM GAS  /tmp/ccri66Zx.s 			page 2


  58 0026 4046     		mov	r0, r8
  59 0028 FFF7FEFF 		bl	chThdCreateStatic
  60              	.LVL0:
  61              		.loc 1 87 0
  62 002c B269     		ldr	r2, [r6, #24]
  63 002e 7B68     		ldr	r3, [r7, #4]
  64 0030 9268     		ldr	r2, [r2, #8]
  65 0032 3D49     		ldr	r1, .L5+20
  66              		.loc 1 86 0
  67 0034 2860     		str	r0, [r5]
  68              		.loc 1 87 0
  69 0036 0132     		adds	r2, r2, #1
  70 0038 1846     		mov	r0, r3
  71 003a 0091     		str	r1, [sp]
  72 003c 374B     		ldr	r3, .L5+8
  73 003e 4FF4A871 		mov	r1, #336
  74 0042 FFF7FEFF 		bl	chThdCreateStatic
  75              	.LVL1:
  76              		.loc 1 88 0
  77 0046 B269     		ldr	r2, [r6, #24]
  78 0048 BB68     		ldr	r3, [r7, #8]
  79 004a 9268     		ldr	r2, [r2, #8]
  80 004c 3749     		ldr	r1, .L5+24
  81              		.loc 1 87 0
  82 004e 6860     		str	r0, [r5, #4]
  83              		.loc 1 88 0
  84 0050 0332     		adds	r2, r2, #3
  85 0052 1846     		mov	r0, r3
  86 0054 0091     		str	r1, [sp]
  87 0056 314B     		ldr	r3, .L5+8
  88 0058 4FF4A871 		mov	r1, #336
  89 005c FFF7FEFF 		bl	chThdCreateStatic
  90              	.LVL2:
  91              		.loc 1 89 0
  92 0060 B269     		ldr	r2, [r6, #24]
  93 0062 FB68     		ldr	r3, [r7, #12]
  94 0064 9268     		ldr	r2, [r2, #8]
  95 0066 3249     		ldr	r1, .L5+28
  96              		.loc 1 88 0
  97 0068 A860     		str	r0, [r5, #8]
  98              		.loc 1 89 0
  99 006a 0432     		adds	r2, r2, #4
 100 006c 1846     		mov	r0, r3
 101 006e 0091     		str	r1, [sp]
 102 0070 2A4B     		ldr	r3, .L5+8
 103 0072 4FF4A871 		mov	r1, #336
 104 0076 FFF7FEFF 		bl	chThdCreateStatic
 105              	.LVL3:
 106              		.loc 1 90 0
 107 007a B269     		ldr	r2, [r6, #24]
 108 007c 3B69     		ldr	r3, [r7, #16]
 109 007e 9268     		ldr	r2, [r2, #8]
 110 0080 2C49     		ldr	r1, .L5+32
 111              		.loc 1 89 0
 112 0082 E860     		str	r0, [r5, #12]
 113              		.loc 1 90 0
 114 0084 0232     		adds	r2, r2, #2
ARM GAS  /tmp/ccri66Zx.s 			page 3


 115 0086 1846     		mov	r0, r3
 116 0088 0091     		str	r1, [sp]
 117 008a 244B     		ldr	r3, .L5+8
 118 008c 4FF4A871 		mov	r1, #336
 119 0090 FFF7FEFF 		bl	chThdCreateStatic
 120              	.LVL4:
 121 0094 2861     		str	r0, [r5, #16]
 122              		.loc 1 91 0
 123 0096 2046     		mov	r0, r4
 124 0098 FFF7FEFF 		bl	chSemSignal
 125              	.LVL5:
 126              		.loc 1 92 0
 127 009c 2046     		mov	r0, r4
 128 009e FFF7FEFF 		bl	chSemSignal
 129              	.LVL6:
 130              		.loc 1 93 0
 131 00a2 2046     		mov	r0, r4
 132 00a4 FFF7FEFF 		bl	chSemSignal
 133              	.LVL7:
 134              		.loc 1 94 0
 135 00a8 2046     		mov	r0, r4
 136 00aa FFF7FEFF 		bl	chSemSignal
 137              	.LVL8:
 138              		.loc 1 95 0
 139 00ae 2046     		mov	r0, r4
 140 00b0 FFF7FEFF 		bl	chSemSignal
 141              	.LVL9:
 142              		.loc 1 96 0
 143 00b4 FFF7FEFF 		bl	test_wait_threads
 144              	.LVL10:
 145              		.loc 1 100 0
 146 00b8 0120     		movs	r0, #1
 147 00ba 1F49     		ldr	r1, .L5+36
 148 00bc FFF7FEFF 		bl	_test_assert_sequence
 149              	.LVL11:
 150 00c0 0746     		mov	r7, r0
 151 00c2 10B1     		cbz	r0, .L4
 152              		.loc 1 109 0
 153 00c4 03B0     		add	sp, sp, #12
 154              		@ sp needed
 155 00c6 BDE8F083 		pop	{r4, r5, r6, r7, r8, r9, pc}
 156              	.L4:
 157              		.loc 1 102 0
 158 00ca B269     		ldr	r2, [r6, #24]
 159 00cc 134B     		ldr	r3, .L5+8
 160 00ce 9268     		ldr	r2, [r2, #8]
 161 00d0 CDF80090 		str	r9, [sp]
 162 00d4 0532     		adds	r2, r2, #5
 163 00d6 4046     		mov	r0, r8
 164 00d8 4FF4A871 		mov	r1, #336
 165 00dc FFF7FEFF 		bl	chThdCreateStatic
 166              	.LVL12:
 167              	.LBB2:
 168              		.loc 1 103 0
 169 00e0 4023     		movs	r3, #64
 170              	.LBE2:
 171              		.loc 1 102 0
ARM GAS  /tmp/ccri66Zx.s 			page 4


 172 00e2 2860     		str	r0, [r5]
 173              	.LBB3:
 174              		.loc 1 103 0
 175              	@ 103 "../../test/testsem.c" 1
 176 00e4 83F31188 		msr     BASEPRI, r3
 177              	@ 0 "" 2
 178              		.thumb
 179              	.LBE3:
 180              		.loc 1 104 0
 181 00e8 0221     		movs	r1, #2
 182 00ea 2046     		mov	r0, r4
 183 00ec FFF7FEFF 		bl	chSemAddCounterI
 184              	.LVL13:
 185              		.loc 1 105 0
 186 00f0 FFF7FEFF 		bl	chSchRescheduleS
 187              	.LVL14:
 188              	.LBB4:
 189              		.loc 1 106 0
 190 00f4 3B46     		mov	r3, r7
 191              	@ 106 "../../test/testsem.c" 1
 192 00f6 83F31188 		msr     BASEPRI, r3
 193              	@ 0 "" 2
 194              		.thumb
 195              	.LBE4:
 196              		.loc 1 107 0
 197 00fa FFF7FEFF 		bl	test_wait_threads
 198              	.LVL15:
 199              		.loc 1 108 0
 200 00fe A168     		ldr	r1, [r4, #8]
 201 0100 4B1E     		subs	r3, r1, #1
 202 0102 5942     		rsbs	r1, r3, #0
 203 0104 4FF00200 		mov	r0, #2
 204 0108 5941     		adcs	r1, r1, r3
 205              		.loc 1 109 0
 206 010a 03B0     		add	sp, sp, #12
 207              		@ sp needed
 208 010c BDE8F043 		pop	{r4, r5, r6, r7, r8, r9, lr}
 209              		.loc 1 108 0
 210 0110 FFF7FEBF 		b	_test_assert
 211              	.LVL16:
 212              	.L6:
 213              		.align	2
 214              	.L5:
 215 0114 00000000 		.word	rlist
 216 0118 00000000 		.word	wa
 217 011c 00000000 		.word	thread1
 218 0120 00000000 		.word	threads
 219 0124 00000000 		.word	.LANCHOR0
 220 0128 04000000 		.word	.LC1
 221 012c 08000000 		.word	.LC2
 222 0130 0C000000 		.word	.LC3
 223 0134 10000000 		.word	.LC4
 224 0138 14000000 		.word	.LC5
 225 013c 00000000 		.word	.LC0
 226              		.cfi_endproc
 227              	.LFE120:
 228              		.size	sem1_execute, .-sem1_execute
ARM GAS  /tmp/ccri66Zx.s 			page 5


 229              		.section	.text.thread3,"ax",%progbits
 230              		.align	2
 231              		.p2align 4,,15
 232              		.thumb
 233              		.thumb_func
 234              		.type	thread3, %function
 235              	thread3:
 236              	.LFB125:
 237              		.loc 1 210 0
 238              		.cfi_startproc
 239              		@ args = 0, pretend = 0, frame = 0
 240              		@ frame_needed = 0, uses_anonymous_args = 0
 241              	.LVL17:
 242 0000 10B5     		push	{r4, lr}
 243              		.cfi_def_cfa_offset 8
 244              		.cfi_offset 4, -8
 245              		.cfi_offset 14, -4
 246              		.loc 1 213 0
 247 0002 044C     		ldr	r4, .L8
 248 0004 2046     		mov	r0, r4
 249              	.LVL18:
 250 0006 FFF7FEFF 		bl	chSemWait
 251              	.LVL19:
 252              		.loc 1 214 0
 253 000a 2046     		mov	r0, r4
 254 000c FFF7FEFF 		bl	chSemSignal
 255              	.LVL20:
 256              		.loc 1 216 0
 257 0010 0020     		movs	r0, #0
 258 0012 10BD     		pop	{r4, pc}
 259              	.L9:
 260              		.align	2
 261              	.L8:
 262 0014 00000000 		.word	.LANCHOR0
 263              		.cfi_endproc
 264              	.LFE125:
 265              		.size	thread3, .-thread3
 266 0018 AFF30080 		.section	.text.thread1,"ax",%progbits
 266      AFF30080 
 267              		.align	2
 268              		.p2align 4,,15
 269              		.thumb
 270              		.thumb_func
 271              		.type	thread1, %function
 272              	thread1:
 273              	.LFB119:
 274              		.loc 1 77 0
 275              		.cfi_startproc
 276              		@ args = 0, pretend = 0, frame = 0
 277              		@ frame_needed = 0, uses_anonymous_args = 0
 278              	.LVL21:
 279 0000 10B5     		push	{r4, lr}
 280              		.cfi_def_cfa_offset 8
 281              		.cfi_offset 4, -8
 282              		.cfi_offset 14, -4
 283              		.loc 1 77 0
 284 0002 0446     		mov	r4, r0
ARM GAS  /tmp/ccri66Zx.s 			page 6


 285              		.loc 1 79 0
 286 0004 0348     		ldr	r0, .L11
 287              	.LVL22:
 288 0006 FFF7FEFF 		bl	chSemWait
 289              	.LVL23:
 290              		.loc 1 80 0
 291 000a 2078     		ldrb	r0, [r4]	@ zero_extendqisi2
 292 000c FFF7FEFF 		bl	test_emit_token
 293              	.LVL24:
 294              		.loc 1 82 0
 295 0010 0020     		movs	r0, #0
 296 0012 10BD     		pop	{r4, pc}
 297              	.LVL25:
 298              	.L12:
 299              		.align	2
 300              	.L11:
 301 0014 00000000 		.word	.LANCHOR0
 302              		.cfi_endproc
 303              	.LFE119:
 304              		.size	thread1, .-thread1
 305 0018 AFF30080 		.section	.text.sem1_setup,"ax",%progbits
 305      AFF30080 
 306              		.align	2
 307              		.p2align 4,,15
 308              		.thumb
 309              		.thumb_func
 310              		.type	sem1_setup, %function
 311              	sem1_setup:
 312              	.LFB118:
 313              		.loc 1 72 0
 314              		.cfi_startproc
 315              		@ args = 0, pretend = 0, frame = 0
 316              		@ frame_needed = 0, uses_anonymous_args = 0
 317              		@ link register save eliminated.
 318              		.loc 1 74 0
 319 0000 0148     		ldr	r0, .L14
 320 0002 0021     		movs	r1, #0
 321 0004 FFF7FEBF 		b	chSemInit
 322              	.LVL26:
 323              	.L15:
 324              		.align	2
 325              	.L14:
 326 0008 00000000 		.word	.LANCHOR0
 327              		.cfi_endproc
 328              	.LFE118:
 329              		.size	sem1_setup, .-sem1_setup
 330 000c AFF30080 		.section	.text.sem2_setup,"ax",%progbits
 331              		.align	2
 332              		.p2align 4,,15
 333              		.thumb
 334              		.thumb_func
 335              		.type	sem2_setup, %function
 336              	sem2_setup:
 337              	.LFB121:
 338              		.loc 1 129 0
 339              		.cfi_startproc
 340              		@ args = 0, pretend = 0, frame = 0
ARM GAS  /tmp/ccri66Zx.s 			page 7


 341              		@ frame_needed = 0, uses_anonymous_args = 0
 342              		@ link register save eliminated.
 343              		.loc 1 131 0
 344 0000 0148     		ldr	r0, .L17
 345 0002 0021     		movs	r1, #0
 346 0004 FFF7FEBF 		b	chSemInit
 347              	.LVL27:
 348              	.L18:
 349              		.align	2
 350              	.L17:
 351 0008 00000000 		.word	.LANCHOR0
 352              		.cfi_endproc
 353              	.LFE121:
 354              		.size	sem2_setup, .-sem2_setup
 355 000c AFF30080 		.section	.text.sem3_setup,"ax",%progbits
 356              		.align	2
 357              		.p2align 4,,15
 358              		.thumb
 359              		.thumb_func
 360              		.type	sem3_setup, %function
 361              	sem3_setup:
 362              	.LFB124:
 363              		.loc 1 205 0
 364              		.cfi_startproc
 365              		@ args = 0, pretend = 0, frame = 0
 366              		@ frame_needed = 0, uses_anonymous_args = 0
 367              		@ link register save eliminated.
 368              		.loc 1 207 0
 369 0000 0148     		ldr	r0, .L20
 370 0002 0021     		movs	r1, #0
 371 0004 FFF7FEBF 		b	chSemInit
 372              	.LVL28:
 373              	.L21:
 374              		.align	2
 375              	.L20:
 376 0008 00000000 		.word	.LANCHOR0
 377              		.cfi_endproc
 378              	.LFE124:
 379              		.size	sem3_setup, .-sem3_setup
 380 000c AFF30080 		.section	.text.thread2,"ax",%progbits
 381              		.align	2
 382              		.p2align 4,,15
 383              		.thumb
 384              		.thumb_func
 385              		.type	thread2, %function
 386              	thread2:
 387              	.LFB122:
 388              		.loc 1 134 0
 389              		.cfi_startproc
 390              		@ args = 0, pretend = 0, frame = 0
 391              		@ frame_needed = 0, uses_anonymous_args = 0
 392              	.LVL29:
 393 0000 08B5     		push	{r3, lr}
 394              		.cfi_def_cfa_offset 8
 395              		.cfi_offset 3, -8
 396              		.cfi_offset 14, -4
 397              		.loc 1 137 0
ARM GAS  /tmp/ccri66Zx.s 			page 8


 398 0002 4FF4FA70 		mov	r0, #500
 399              	.LVL30:
 400 0006 FFF7FEFF 		bl	chThdSleep
 401              	.LVL31:
 402              	.LBB5:
 403              		.loc 1 138 0
 404 000a 4023     		movs	r3, #64
 405              	@ 138 "../../test/testsem.c" 1
 406 000c 83F31188 		msr     BASEPRI, r3
 407              	@ 0 "" 2
 408              		.thumb
 409              	.LBE5:
 410              		.loc 1 139 0
 411 0010 0448     		ldr	r0, .L23
 412 0012 FFF7FEFF 		bl	chSemSignalI
 413              	.LVL32:
 414              		.loc 1 140 0
 415 0016 FFF7FEFF 		bl	chSchRescheduleS
 416              	.LVL33:
 417              	.LBB6:
 418              		.loc 1 141 0
 419 001a 0023     		movs	r3, #0
 420              	@ 141 "../../test/testsem.c" 1
 421 001c 83F31188 		msr     BASEPRI, r3
 422              	@ 0 "" 2
 423              		.thumb
 424              	.LBE6:
 425              		.loc 1 143 0
 426 0020 1846     		mov	r0, r3
 427 0022 08BD     		pop	{r3, pc}
 428              	.L24:
 429              		.align	2
 430              	.L23:
 431 0024 00000000 		.word	.LANCHOR0
 432              		.cfi_endproc
 433              	.LFE122:
 434              		.size	thread2, .-thread2
 435 0028 AFF30080 		.section	.text.thread4,"ax",%progbits
 435      AFF30080 
 436              		.align	2
 437              		.p2align 4,,15
 438              		.thumb
 439              		.thumb_func
 440              		.type	thread4, %function
 441              	thread4:
 442              	.LFB127:
 443              		.loc 1 246 0
 444              		.cfi_startproc
 445              		@ args = 0, pretend = 0, frame = 0
 446              		@ frame_needed = 0, uses_anonymous_args = 0
 447              	.LVL34:
 448 0000 08B5     		push	{r3, lr}
 449              		.cfi_def_cfa_offset 8
 450              		.cfi_offset 3, -8
 451              		.cfi_offset 14, -4
 452              	.LBB7:
 453              		.loc 1 248 0
ARM GAS  /tmp/ccri66Zx.s 			page 9


 454 0002 4023     		movs	r3, #64
 455              	@ 248 "../../test/testsem.c" 1
 456 0004 83F31188 		msr     BASEPRI, r3
 457              	@ 0 "" 2
 458              		.thumb
 459              	.LBE7:
 460 0008 8368     		ldr	r3, [r0, #8]
 461 000a 002B     		cmp	r3, #0
 462 000c 06DD     		ble	.L27
 463              	.LVL35:
 464              	.L26:
 465              		.loc 1 248 0 is_stmt 0 discriminator 2
 466 000e FFF7FEFF 		bl	chSchRescheduleS
 467              	.LVL36:
 468              	.LBB8:
 469 0012 0023     		movs	r3, #0
 470              	@ 248 "../../test/testsem.c" 1
 471 0014 83F31188 		msr     BASEPRI, r3
 472              	@ 0 "" 2
 473              		.thumb
 474              	.LBE8:
 475              		.loc 1 250 0 is_stmt 1 discriminator 2
 476 0018 1846     		mov	r0, r3
 477 001a 08BD     		pop	{r3, pc}
 478              	.LVL37:
 479              	.L27:
 480              		.loc 1 248 0 discriminator 1
 481 001c FFF7FEFF 		bl	chSemSignalI
 482              	.LVL38:
 483 0020 F5E7     		b	.L26
 484              		.cfi_endproc
 485              	.LFE127:
 486              		.size	thread4, .-thread4
 487              		.section	.text.sem4_execute,"ax",%progbits
 488              		.align	2
 489              		.p2align 4,,15
 490              		.thumb
 491              		.thumb_func
 492              		.type	sem4_execute, %function
 493              	sem4_execute:
 494              	.LFB128:
 495              		.loc 1 252 0
 496              		.cfi_startproc
 497              		@ args = 0, pretend = 0, frame = 16
 498              		@ frame_needed = 0, uses_anonymous_args = 0
 499 0000 00B5     		push	{lr}
 500              		.cfi_def_cfa_offset 4
 501              		.cfi_offset 14, -4
 502 0002 87B0     		sub	sp, sp, #28
 503              		.cfi_def_cfa_offset 32
 504              		.loc 1 256 0
 505 0004 03A8     		add	r0, sp, #12
 506 0006 0021     		movs	r1, #0
 507 0008 FFF7FEFF 		bl	chSemInit
 508              	.LVL39:
 509              		.loc 1 257 0
 510 000c 03A8     		add	r0, sp, #12
ARM GAS  /tmp/ccri66Zx.s 			page 10


 511 000e 0021     		movs	r1, #0
 512 0010 FFF7FEFF 		bl	chSemReset
 513              	.LVL40:
 514              		.loc 1 258 0
 515 0014 0599     		ldr	r1, [sp, #20]
 516 0016 0029     		cmp	r1, #0
 517 0018 CCBF     		ite	gt
 518 001a 0021     		movgt	r1, #0
 519 001c 0121     		movle	r1, #1
 520 001e 0120     		movs	r0, #1
 521 0020 FFF7FEFF 		bl	_test_assert
 522              	.LVL41:
 523 0024 10B1     		cbz	r0, .L33
 524              	.L28:
 525              		.loc 1 280 0
 526 0026 07B0     		add	sp, sp, #28
 527              		@ sp needed
 528 0028 5DF804FB 		ldr	pc, [sp], #4
 529              	.L33:
 530              		.loc 1 262 0
 531 002c 2F4B     		ldr	r3, .L36
 532              		.loc 1 261 0
 533 002e 304A     		ldr	r2, .L36+4
 534              		.loc 1 262 0
 535 0030 9B69     		ldr	r3, [r3, #24]
 536              		.loc 1 261 0
 537 0032 1068     		ldr	r0, [r2]
 538 0034 9A68     		ldr	r2, [r3, #8]
 539 0036 2F4B     		ldr	r3, .L36+8
 540 0038 03A9     		add	r1, sp, #12
 541 003a 0091     		str	r1, [sp]
 542 003c 013A     		subs	r2, r2, #1
 543 003e 4FF4A871 		mov	r1, #336
 544 0042 FFF7FEFF 		bl	chThdCreateStatic
 545              	.LVL42:
 546 0046 2C4B     		ldr	r3, .L36+12
 547 0048 1860     		str	r0, [r3]
 548              		.loc 1 265 0
 549 004a 03A8     		add	r0, sp, #12
 550 004c FFF7FEFF 		bl	chSemWait
 551              	.LVL43:
 552              		.loc 1 268 0
 553 0050 0599     		ldr	r1, [sp, #20]
 554 0052 0029     		cmp	r1, #0
 555 0054 CCBF     		ite	gt
 556 0056 0021     		movgt	r1, #0
 557 0058 0121     		movle	r1, #1
 558 005a 0220     		movs	r0, #2
 559 005c FFF7FEFF 		bl	_test_assert
 560              	.LVL44:
 561 0060 0028     		cmp	r0, #0
 562 0062 E0D1     		bne	.L28
 563              	.LBB9:
 564              		.loc 1 272 0
 565 0064 4023     		movs	r3, #64
 566              	@ 272 "../../test/testsem.c" 1
 567 0066 83F31188 		msr     BASEPRI, r3
ARM GAS  /tmp/ccri66Zx.s 			page 11


 568              	@ 0 "" 2
 569              		.thumb
 570              	.LBE9:
 571 006a 059B     		ldr	r3, [sp, #20]
 572 006c 002B     		cmp	r3, #0
 573 006e 34DD     		ble	.L34
 574              	.L30:
 575              		.loc 1 272 0 is_stmt 0 discriminator 2
 576 0070 FFF7FEFF 		bl	chSchRescheduleS
 577              	.LVL45:
 578              	.LBB10:
 579 0074 0023     		movs	r3, #0
 580              	@ 272 "../../test/testsem.c" 1
 581 0076 83F31188 		msr     BASEPRI, r3
 582              	@ 0 "" 2
 583              		.thumb
 584              	.LBE10:
 585              		.loc 1 273 0 is_stmt 1 discriminator 2
 586 007a 0599     		ldr	r1, [sp, #20]
 587 007c 9942     		cmp	r1, r3
 588 007e D4BF     		ite	le
 589 0080 0021     		movle	r1, #0
 590 0082 0121     		movgt	r1, #1
 591 0084 0320     		movs	r0, #3
 592 0086 FFF7FEFF 		bl	_test_assert
 593              	.LVL46:
 594 008a 0028     		cmp	r0, #0
 595 008c CBD1     		bne	.L28
 596              		.loc 1 274 0
 597 008e 0599     		ldr	r1, [sp, #20]
 598 0090 4A1E     		subs	r2, r1, #1
 599 0092 5142     		rsbs	r1, r2, #0
 600 0094 5141     		adcs	r1, r1, r2
 601 0096 0420     		movs	r0, #4
 602 0098 FFF7FEFF 		bl	_test_assert
 603              	.LVL47:
 604 009c 0028     		cmp	r0, #0
 605 009e C2D1     		bne	.L28
 606              	.LBB11:
 607              		.loc 1 277 0
 608 00a0 4023     		movs	r3, #64
 609              	@ 277 "../../test/testsem.c" 1
 610 00a2 83F31188 		msr     BASEPRI, r3
 611              	@ 0 "" 2
 612              		.thumb
 613              	.LBE11:
 614 00a6 059B     		ldr	r3, [sp, #20]
 615 00a8 002B     		cmp	r3, #0
 616 00aa 1ADD     		ble	.L35
 617              	.L31:
 618              		.loc 1 277 0 is_stmt 0 discriminator 2
 619 00ac FFF7FEFF 		bl	chSchRescheduleS
 620              	.LVL48:
 621              	.LBB12:
 622 00b0 0023     		movs	r3, #0
 623              	@ 277 "../../test/testsem.c" 1
 624 00b2 83F31188 		msr     BASEPRI, r3
ARM GAS  /tmp/ccri66Zx.s 			page 12


 625              	@ 0 "" 2
 626              		.thumb
 627              	.LBE12:
 628              		.loc 1 278 0 is_stmt 1 discriminator 2
 629 00b6 0599     		ldr	r1, [sp, #20]
 630 00b8 9942     		cmp	r1, r3
 631 00ba D4BF     		ite	le
 632 00bc 0021     		movle	r1, #0
 633 00be 0121     		movgt	r1, #1
 634 00c0 0320     		movs	r0, #3
 635 00c2 FFF7FEFF 		bl	_test_assert
 636              	.LVL49:
 637 00c6 0028     		cmp	r0, #0
 638 00c8 ADD1     		bne	.L28
 639              		.loc 1 279 0
 640 00ca 0599     		ldr	r1, [sp, #20]
 641 00cc 4B1E     		subs	r3, r1, #1
 642 00ce 5942     		rsbs	r1, r3, #0
 643 00d0 5941     		adcs	r1, r1, r3
 644 00d2 0520     		movs	r0, #5
 645 00d4 FFF7FEFF 		bl	_test_assert
 646              	.LVL50:
 647 00d8 A5E7     		b	.L28
 648              	.L34:
 649              		.loc 1 272 0 discriminator 1
 650 00da 03A8     		add	r0, sp, #12
 651 00dc FFF7FEFF 		bl	chSemSignalI
 652              	.LVL51:
 653 00e0 C6E7     		b	.L30
 654              	.L35:
 655              		.loc 1 277 0 discriminator 1
 656 00e2 03A8     		add	r0, sp, #12
 657 00e4 FFF7FEFF 		bl	chSemSignalI
 658              	.LVL52:
 659 00e8 E0E7     		b	.L31
 660              	.L37:
 661 00ea 00BF     		.align	2
 662              	.L36:
 663 00ec 00000000 		.word	rlist
 664 00f0 00000000 		.word	wa
 665 00f4 00000000 		.word	thread4
 666 00f8 00000000 		.word	threads
 667              		.cfi_endproc
 668              	.LFE128:
 669              		.size	sem4_execute, .-sem4_execute
 670 00fc AFF30080 		.section	.text.sem2_execute,"ax",%progbits
 671              		.align	2
 672              		.p2align 4,,15
 673              		.thumb
 674              		.thumb_func
 675              		.type	sem2_execute, %function
 676              	sem2_execute:
 677              	.LFB123:
 678              		.loc 1 145 0
 679              		.cfi_startproc
 680              		@ args = 0, pretend = 0, frame = 0
 681              		@ frame_needed = 0, uses_anonymous_args = 0
ARM GAS  /tmp/ccri66Zx.s 			page 13


 682 0000 70B5     		push	{r4, r5, r6, lr}
 683              		.cfi_def_cfa_offset 16
 684              		.cfi_offset 4, -16
 685              		.cfi_offset 5, -12
 686              		.cfi_offset 6, -8
 687              		.cfi_offset 14, -4
 688              		.loc 1 153 0
 689 0002 4B4C     		ldr	r4, .L45
 690              		.loc 1 145 0
 691 0004 82B0     		sub	sp, sp, #8
 692              		.cfi_def_cfa_offset 24
 693              		.loc 1 153 0
 694 0006 0021     		movs	r1, #0
 695 0008 2046     		mov	r0, r4
 696 000a FFF7FEFF 		bl	chSemWaitTimeout
 697              	.LVL53:
 698              		.loc 1 154 0
 699 000e B0F1FF3E 		subs	lr, r0, #-1
 700 0012 DEF10001 		rsbs	r1, lr, #0
 701 0016 51EB0E01 		adcs	r1, r1, lr
 702 001a 0120     		movs	r0, #1
 703              	.LVL54:
 704 001c FFF7FEFF 		bl	_test_assert
 705              	.LVL55:
 706 0020 08B1     		cbz	r0, .L44
 707              	.L38:
 708              		.loc 1 183 0
 709 0022 02B0     		add	sp, sp, #8
 710              		@ sp needed
 711 0024 70BD     		pop	{r4, r5, r6, pc}
 712              	.L44:
 713              		.loc 1 155 0
 714 0026 2168     		ldr	r1, [r4]
 715 0028 0E1B     		subs	r6, r1, r4
 716 002a 7142     		rsbs	r1, r6, #0
 717 002c 7141     		adcs	r1, r1, r6
 718 002e 0220     		movs	r0, #2
 719 0030 FFF7FEFF 		bl	_test_assert
 720              	.LVL56:
 721 0034 0028     		cmp	r0, #0
 722 0036 F4D1     		bne	.L38
 723              		.loc 1 156 0
 724 0038 A168     		ldr	r1, [r4, #8]
 725 003a D1F10101 		rsbs	r1, r1, #1
 726 003e 38BF     		it	cc
 727 0040 0021     		movcc	r1, #0
 728 0042 0320     		movs	r0, #3
 729 0044 FFF7FEFF 		bl	_test_assert
 730              	.LVL57:
 731 0048 0028     		cmp	r0, #0
 732 004a EAD1     		bne	.L38
 733              	.LBB15:
 734              	.LBB16:
 735              		.loc 1 161 0
 736 004c 394B     		ldr	r3, .L45+4
 737 004e 3A4A     		ldr	r2, .L45+8
 738 0050 9B69     		ldr	r3, [r3, #24]
ARM GAS  /tmp/ccri66Zx.s 			page 14


 739 0052 1168     		ldr	r1, [r2]
 740 0054 9A68     		ldr	r2, [r3, #8]
 741 0056 394B     		ldr	r3, .L45+12
 742 0058 0090     		str	r0, [sp]
 743 005a 013A     		subs	r2, r2, #1
 744 005c 0846     		mov	r0, r1
 745 005e 4FF4A871 		mov	r1, #336
 746 0062 FFF7FEFF 		bl	chThdCreateStatic
 747              	.LVL58:
 748 0066 364B     		ldr	r3, .L45+16
 749              		.loc 1 163 0
 750 0068 41F28831 		movw	r1, #5000
 751              		.loc 1 161 0
 752 006c 1860     		str	r0, [r3]
 753              		.loc 1 163 0
 754 006e 2046     		mov	r0, r4
 755 0070 FFF7FEFF 		bl	chSemWaitTimeout
 756              	.LVL59:
 757 0074 0546     		mov	r5, r0
 758              	.LVL60:
 759              		.loc 1 164 0
 760 0076 FFF7FEFF 		bl	test_wait_threads
 761              	.LVL61:
 762              		.loc 1 165 0
 763 007a D5F10101 		rsbs	r1, r5, #1
 764 007e 38BF     		it	cc
 765 0080 0021     		movcc	r1, #0
 766 0082 0420     		movs	r0, #4
 767 0084 FFF7FEFF 		bl	_test_assert
 768              	.LVL62:
 769 0088 0028     		cmp	r0, #0
 770 008a CAD1     		bne	.L38
 771              		.loc 1 166 0
 772 008c 2168     		ldr	r1, [r4]
 773 008e 0D1B     		subs	r5, r1, r4
 774              	.LVL63:
 775 0090 6942     		rsbs	r1, r5, #0
 776 0092 6941     		adcs	r1, r1, r5
 777 0094 0520     		movs	r0, #5
 778 0096 FFF7FEFF 		bl	_test_assert
 779              	.LVL64:
 780 009a 0028     		cmp	r0, #0
 781 009c C1D1     		bne	.L38
 782              		.loc 1 167 0
 783 009e A168     		ldr	r1, [r4, #8]
 784 00a0 D1F10101 		rsbs	r1, r1, #1
 785 00a4 38BF     		it	cc
 786 00a6 0021     		movcc	r1, #0
 787 00a8 0620     		movs	r0, #6
 788 00aa FFF7FEFF 		bl	_test_assert
 789              	.LVL65:
 790 00ae 0028     		cmp	r0, #0
 791 00b0 B7D1     		bne	.L38
 792              		.loc 1 172 0
 793 00b2 FFF7FEFF 		bl	test_wait_tick
 794              	.LVL66:
 795              		.loc 1 173 0
ARM GAS  /tmp/ccri66Zx.s 			page 15


 796 00b6 234B     		ldr	r3, .L45+20
 797 00b8 DE68     		ldr	r6, [r3, #12]
 798              	.LVL67:
 799 00ba 4125     		movs	r5, #65
 800              	.LVL68:
 801              	.L43:
 802              		.loc 1 175 0
 803 00bc 2846     		mov	r0, r5
 804 00be FFF7FEFF 		bl	test_emit_token
 805              	.LVL69:
 806              		.loc 1 176 0
 807 00c2 41F28831 		movw	r1, #5000
 808 00c6 1A48     		ldr	r0, .L45
 809 00c8 FFF7FEFF 		bl	chSemWaitTimeout
 810              	.LVL70:
 811              		.loc 1 177 0
 812 00cc B0F1FF32 		subs	r2, r0, #-1
 813 00d0 5142     		rsbs	r1, r2, #0
 814 00d2 5141     		adcs	r1, r1, r2
 815 00d4 0720     		movs	r0, #7
 816              	.LVL71:
 817 00d6 FFF7FEFF 		bl	_test_assert
 818              	.LVL72:
 819 00da 0028     		cmp	r0, #0
 820 00dc A1D1     		bne	.L38
 821              		.loc 1 178 0
 822 00de 2168     		ldr	r1, [r4]
 823 00e0 0B1B     		subs	r3, r1, r4
 824 00e2 5942     		rsbs	r1, r3, #0
 825 00e4 5941     		adcs	r1, r1, r3
 826 00e6 0820     		movs	r0, #8
 827 00e8 FFF7FEFF 		bl	_test_assert
 828              	.LVL73:
 829 00ec 0028     		cmp	r0, #0
 830 00ee 98D1     		bne	.L38
 831              		.loc 1 179 0
 832 00f0 A168     		ldr	r1, [r4, #8]
 833 00f2 D1F10101 		rsbs	r1, r1, #1
 834 00f6 4FF00900 		mov	r0, #9
 835 00fa 38BF     		it	cc
 836 00fc 0021     		movcc	r1, #0
 837 00fe FFF7FEFF 		bl	_test_assert
 838              	.LVL74:
 839 0102 0135     		adds	r5, r5, #1
 840 0104 EDB2     		uxtb	r5, r5
 841 0106 0028     		cmp	r0, #0
 842 0108 8BD1     		bne	.L38
 843              		.loc 1 174 0
 844 010a 462D     		cmp	r5, #70
 845 010c D6D1     		bne	.L43
 846              		.loc 1 181 0
 847 010e 0A20     		movs	r0, #10
 848 0110 0D49     		ldr	r1, .L45+24
 849 0112 FFF7FEFF 		bl	_test_assert_sequence
 850              	.LVL75:
 851 0116 0028     		cmp	r0, #0
 852 0118 83D1     		bne	.L38
ARM GAS  /tmp/ccri66Zx.s 			page 16


 853              		.loc 1 182 0
 854 011a 06F5C341 		add	r1, r6, #24960
 855 011e 0A46     		mov	r2, r1
 856 0120 5A32     		adds	r2, r2, #90
 857 0122 2831     		adds	r1, r1, #40
 858 0124 0B20     		movs	r0, #11
 859              	.LBE16:
 860              	.LBE15:
 861              		.loc 1 183 0
 862 0126 02B0     		add	sp, sp, #8
 863              		@ sp needed
 864 0128 BDE87040 		pop	{r4, r5, r6, lr}
 865              	.LVL76:
 866              	.LBB18:
 867              	.LBB17:
 868              		.loc 1 182 0
 869 012c FFF7FEBF 		b	_test_assert_time_window
 870              	.LVL77:
 871              	.L46:
 872              		.align	2
 873              	.L45:
 874 0130 00000000 		.word	.LANCHOR0
 875 0134 00000000 		.word	rlist
 876 0138 00000000 		.word	wa
 877 013c 00000000 		.word	thread2
 878 0140 00000000 		.word	threads
 879 0144 00000000 		.word	vtlist
 880 0148 14000000 		.word	.LC5
 881              	.LBE17:
 882              	.LBE18:
 883              		.cfi_endproc
 884              	.LFE123:
 885              		.size	sem2_execute, .-sem2_execute
 886 014c AFF30080 		.section	.text.sem3_execute,"ax",%progbits
 887              		.align	2
 888              		.p2align 4,,15
 889              		.thumb
 890              		.thumb_func
 891              		.type	sem3_execute, %function
 892              	sem3_execute:
 893              	.LFB126:
 894              		.loc 1 218 0
 895              		.cfi_startproc
 896              		@ args = 0, pretend = 0, frame = 0
 897              		@ frame_needed = 0, uses_anonymous_args = 0
 898 0000 10B5     		push	{r4, lr}
 899              		.cfi_def_cfa_offset 8
 900              		.cfi_offset 4, -8
 901              		.cfi_offset 14, -4
 902              		.loc 1 220 0
 903 0002 214B     		ldr	r3, .L52
 904 0004 214A     		ldr	r2, .L52+4
 905 0006 9B69     		ldr	r3, [r3, #24]
 906 0008 1068     		ldr	r0, [r2]
 907 000a 9A68     		ldr	r2, [r3, #8]
 908 000c 204B     		ldr	r3, .L52+8
 909              		.loc 1 221 0
ARM GAS  /tmp/ccri66Zx.s 			page 17


 910 000e 214C     		ldr	r4, .L52+12
 911              		.loc 1 218 0
 912 0010 82B0     		sub	sp, sp, #8
 913              		.cfi_def_cfa_offset 16
 914              		.loc 1 220 0
 915 0012 0021     		movs	r1, #0
 916 0014 0132     		adds	r2, r2, #1
 917 0016 0091     		str	r1, [sp]
 918 0018 4FF4A871 		mov	r1, #336
 919 001c FFF7FEFF 		bl	chThdCreateStatic
 920              	.LVL78:
 921 0020 1D4B     		ldr	r3, .L52+16
 922              		.loc 1 221 0
 923 0022 2146     		mov	r1, r4
 924              		.loc 1 220 0
 925 0024 1860     		str	r0, [r3]
 926              		.loc 1 221 0
 927 0026 2046     		mov	r0, r4
 928 0028 FFF7FEFF 		bl	chSemSignalWait
 929              	.LVL79:
 930              		.loc 1 222 0
 931 002c 2168     		ldr	r1, [r4]
 932 002e 0A1B     		subs	r2, r1, r4
 933 0030 5142     		rsbs	r1, r2, #0
 934 0032 5141     		adcs	r1, r1, r2
 935 0034 0120     		movs	r0, #1
 936 0036 FFF7FEFF 		bl	_test_assert
 937              	.LVL80:
 938 003a 08B1     		cbz	r0, .L51
 939              	.L47:
 940              		.loc 1 228 0
 941 003c 02B0     		add	sp, sp, #8
 942              		@ sp needed
 943 003e 10BD     		pop	{r4, pc}
 944              	.L51:
 945              		.loc 1 223 0
 946 0040 A168     		ldr	r1, [r4, #8]
 947 0042 D1F10101 		rsbs	r1, r1, #1
 948 0046 38BF     		it	cc
 949 0048 0021     		movcc	r1, #0
 950 004a 0220     		movs	r0, #2
 951 004c FFF7FEFF 		bl	_test_assert
 952              	.LVL81:
 953 0050 0028     		cmp	r0, #0
 954 0052 F3D1     		bne	.L47
 955              	.LBB21:
 956              	.LBB22:
 957              		.loc 1 225 0
 958 0054 2146     		mov	r1, r4
 959 0056 2046     		mov	r0, r4
 960 0058 FFF7FEFF 		bl	chSemSignalWait
 961              	.LVL82:
 962              		.loc 1 226 0
 963 005c 2168     		ldr	r1, [r4]
 964 005e 0B1B     		subs	r3, r1, r4
 965 0060 5942     		rsbs	r1, r3, #0
 966 0062 5941     		adcs	r1, r1, r3
ARM GAS  /tmp/ccri66Zx.s 			page 18


 967 0064 0320     		movs	r0, #3
 968 0066 FFF7FEFF 		bl	_test_assert
 969              	.LVL83:
 970 006a 0028     		cmp	r0, #0
 971 006c E6D1     		bne	.L47
 972              		.loc 1 227 0
 973 006e A168     		ldr	r1, [r4, #8]
 974 0070 D1F10101 		rsbs	r1, r1, #1
 975 0074 4FF00400 		mov	r0, #4
 976 0078 38BF     		it	cc
 977 007a 0021     		movcc	r1, #0
 978              	.LBE22:
 979              	.LBE21:
 980              		.loc 1 228 0
 981 007c 02B0     		add	sp, sp, #8
 982              		@ sp needed
 983 007e BDE81040 		pop	{r4, lr}
 984              	.LBB24:
 985              	.LBB23:
 986              		.loc 1 227 0
 987 0082 FFF7FEBF 		b	_test_assert
 988              	.LVL84:
 989              	.L53:
 990 0086 00BF     		.align	2
 991              	.L52:
 992 0088 00000000 		.word	rlist
 993 008c 00000000 		.word	wa
 994 0090 00000000 		.word	thread3
 995 0094 00000000 		.word	.LANCHOR0
 996 0098 00000000 		.word	threads
 997              	.LBE23:
 998              	.LBE24:
 999              		.cfi_endproc
 1000              	.LFE126:
 1001              		.size	sem3_execute, .-sem3_execute
 1002              		.global	patternsem
 1003              		.global	testsem4
 1004              		.global	testsem3
 1005              		.global	testsem2
 1006              		.global	testsem1
 1007 009c AFF30080 		.section	.rodata.testsem1,"a",%progbits
 1008              		.align	2
 1009              		.type	testsem1, %object
 1010              		.size	testsem1, 16
 1011              	testsem1:
 1012 0000 74000000 		.word	.LC9
 1013 0004 00000000 		.word	sem1_setup
 1014 0008 00000000 		.word	0
 1015 000c 00000000 		.word	sem1_execute
 1016              		.section	.rodata.testsem2,"a",%progbits
 1017              		.align	2
 1018              		.type	testsem2, %object
 1019              		.size	testsem2, 16
 1020              	testsem2:
 1021 0000 60000000 		.word	.LC8
 1022 0004 00000000 		.word	sem2_setup
 1023 0008 00000000 		.word	0
ARM GAS  /tmp/ccri66Zx.s 			page 19


 1024 000c 00000000 		.word	sem2_execute
 1025              		.section	.rodata.testsem3,"a",%progbits
 1026              		.align	2
 1027              		.type	testsem3, %object
 1028              		.size	testsem3, 16
 1029              	testsem3:
 1030 0000 40000000 		.word	.LC7
 1031 0004 00000000 		.word	sem3_setup
 1032 0008 00000000 		.word	0
 1033 000c 00000000 		.word	sem3_execute
 1034              		.section	.rodata.testsem4,"a",%progbits
 1035              		.align	2
 1036              		.type	testsem4, %object
 1037              		.size	testsem4, 16
 1038              	testsem4:
 1039 0000 1C000000 		.word	.LC6
 1040 0004 00000000 		.word	0
 1041 0008 00000000 		.word	0
 1042 000c 00000000 		.word	sem4_execute
 1043              		.section	.data.sem1,"aw",%progbits
 1044              		.align	2
 1045              		.set	.LANCHOR0,. + 0
 1046              		.type	sem1, %object
 1047              		.size	sem1, 12
 1048              	sem1:
 1049 0000 00000000 		.word	sem1
 1050 0004 00000000 		.word	sem1
 1051 0008 00000000 		.word	0
 1052              		.section	.rodata.patternsem,"a",%progbits
 1053              		.align	2
 1054              		.type	patternsem, %object
 1055              		.size	patternsem, 20
 1056              	patternsem:
 1057 0000 00000000 		.word	testsem1
 1058 0004 00000000 		.word	testsem2
 1059 0008 00000000 		.word	testsem3
 1060 000c 00000000 		.word	testsem4
 1061 0010 00000000 		.word	0
 1062              		.section	.rodata.str1.4,"aMS",%progbits,1
 1063              		.align	2
 1064              	.LC0:
 1065 0000 4100     		.ascii	"A\000"
 1066 0002 0000     		.space	2
 1067              	.LC1:
 1068 0004 4200     		.ascii	"B\000"
 1069 0006 0000     		.space	2
 1070              	.LC2:
 1071 0008 4300     		.ascii	"C\000"
 1072 000a 0000     		.space	2
 1073              	.LC3:
 1074 000c 4400     		.ascii	"D\000"
 1075 000e 0000     		.space	2
 1076              	.LC4:
 1077 0010 4500     		.ascii	"E\000"
 1078 0012 0000     		.space	2
 1079              	.LC5:
 1080 0014 41424344 		.ascii	"ABCDE\000"
ARM GAS  /tmp/ccri66Zx.s 			page 20


 1080      4500
 1081 001a 0000     		.space	2
 1082              	.LC6:
 1083 001c 42696E61 		.ascii	"Binary Semaphores, functionality\000"
 1083      72792053 
 1083      656D6170 
 1083      686F7265 
 1083      732C2066 
 1084 003d 000000   		.space	3
 1085              	.LC7:
 1086 0040 53656D61 		.ascii	"Semaphores, atomic signal-wait\000"
 1086      70686F72 
 1086      65732C20 
 1086      61746F6D 
 1086      69632073 
 1087 005f 00       		.space	1
 1088              	.LC8:
 1089 0060 53656D61 		.ascii	"Semaphores, timeout\000"
 1089      70686F72 
 1089      65732C20 
 1089      74696D65 
 1089      6F757400 
 1090              	.LC9:
 1091 0074 53656D61 		.ascii	"Semaphores, enqueuing\000"
 1091      70686F72 
 1091      65732C20 
 1091      656E7175 
 1091      6575696E 
 1092 008a 0000     		.text
 1093              	.Letext0:
 1094              		.file 2 "/usr/lib/gcc/arm-none-eabi/4.8/include/stddef.h"
 1095              		.file 3 "/usr/include/newlib/machine/_default_types.h"
 1096              		.file 4 "/usr/include/newlib/stdint.h"
 1097              		.file 5 "../../os/ports/GCC/ARMCMx/chtypes.h"
 1098              		.file 6 "../../os/kernel/include/chlists.h"
 1099              		.file 7 "../../os/kernel/include/chthreads.h"
 1100              		.file 8 "../../os/ports/GCC/ARMCMx/chcore_v7m.h"
 1101              		.file 9 "../../os/kernel/include/chvt.h"
 1102              		.file 10 "../../os/kernel/include/chschd.h"
 1103              		.file 11 "../../os/kernel/include/chsem.h"
 1104              		.file 12 "../../os/kernel/include/chbsem.h"
 1105              		.file 13 "../../os/kernel/include/chmtx.h"
 1106              		.file 14 "../../test/test.h"
 1107              		.file 15 "../../os/ports/common/ARMCMx/CMSIS/include/core_cm4.h"