ARM GAS  /tmp/ccAlBCQ4.s 			page 1


   1              		.syntax unified
   2              		.cpu cortex-m4
   3              		.fpu softvfp
   4              		.eabi_attribute 20, 1
   5              		.eabi_attribute 21, 1
   6              		.eabi_attribute 23, 3
   7              		.eabi_attribute 24, 1
   8              		.eabi_attribute 25, 1
   9              		.eabi_attribute 26, 1
  10              		.eabi_attribute 30, 2
  11              		.eabi_attribute 34, 1
  12              		.eabi_attribute 18, 4
  13              		.thumb
  14              		.file	"testpools.c"
  15              		.text
  16              	.Ltext0:
  17              		.cfi_sections	.debug_frame
  18              		.section	.text.null_provider,"ax",%progbits
  19              		.align	2
  20              		.p2align 4,,15
  21              		.thumb
  22              		.thumb_func
  23              		.type	null_provider, %function
  24              	null_provider:
  25              	.LFB118:
  26              		.file 1 "../../test/testpools.c"
  27              		.loc 1 60 0
  28              		.cfi_startproc
  29              		@ args = 0, pretend = 0, frame = 0
  30              		@ frame_needed = 0, uses_anonymous_args = 0
  31              		@ link register save eliminated.
  32              	.LVL0:
  33              		.loc 1 64 0
  34 0000 0020     		movs	r0, #0
  35              	.LVL1:
  36 0002 7047     		bx	lr
  37              		.cfi_endproc
  38              	.LFE118:
  39              		.size	null_provider, .-null_provider
  40 0004 AFF30080 		.section	.text.pools1_setup,"ax",%progbits
  40      AFF30080 
  40      AFF30080 
  41              		.align	2
  42              		.p2align 4,,15
  43              		.thumb
  44              		.thumb_func
  45              		.type	pools1_setup, %function
  46              	pools1_setup:
  47              	.LFB119:
  48              		.loc 1 66 0
  49              		.cfi_startproc
  50              		@ args = 0, pretend = 0, frame = 0
  51              		@ frame_needed = 0, uses_anonymous_args = 0
  52              		@ link register save eliminated.
  53              		.loc 1 68 0
  54 0000 0248     		ldr	r0, .L3
  55 0002 4FF4A871 		mov	r1, #336
ARM GAS  /tmp/ccAlBCQ4.s 			page 2


  56 0006 0022     		movs	r2, #0
  57 0008 FFF7FEBF 		b	chPoolInit
  58              	.LVL2:
  59              	.L4:
  60              		.align	2
  61              	.L3:
  62 000c 00000000 		.word	.LANCHOR0
  63              		.cfi_endproc
  64              	.LFE119:
  65              		.size	pools1_setup, .-pools1_setup
  66              		.section	.text.pools1_execute,"ax",%progbits
  67              		.align	2
  68              		.p2align 4,,15
  69              		.thumb
  70              		.thumb_func
  71              		.type	pools1_execute, %function
  72              	pools1_execute:
  73              	.LFB120:
  74              		.loc 1 71 0
  75              		.cfi_startproc
  76              		@ args = 0, pretend = 0, frame = 0
  77              		@ frame_needed = 0, uses_anonymous_args = 0
  78 0000 38B5     		push	{r3, r4, r5, lr}
  79              		.cfi_def_cfa_offset 16
  80              		.cfi_offset 3, -16
  81              		.cfi_offset 4, -12
  82              		.cfi_offset 5, -8
  83              		.cfi_offset 14, -4
  84              		.loc 1 75 0
  85 0002 2C4B     		ldr	r3, .L18
  86 0004 2C48     		ldr	r0, .L18+4
  87 0006 1D68     		ldr	r5, [r3]
  88 0008 0522     		movs	r2, #5
  89 000a 2946     		mov	r1, r5
  90 000c FFF7FEFF 		bl	chPoolLoadArray
  91              	.LVL3:
  92 0010 0524     		movs	r4, #5
  93              	.LVL4:
  94              	.L9:
  95              		.loc 1 79 0
  96 0012 2948     		ldr	r0, .L18+4
  97 0014 FFF7FEFF 		bl	chPoolAlloc
  98              	.LVL5:
  99 0018 011C     		adds	r1, r0, #0
 100 001a 18BF     		it	ne
 101 001c 0121     		movne	r1, #1
 102 001e 0120     		movs	r0, #1
 103 0020 FFF7FEFF 		bl	_test_assert
 104              	.LVL6:
 105 0024 A0BB     		cbnz	r0, .L5
 106              		.loc 1 78 0
 107 0026 013C     		subs	r4, r4, #1
 108              	.LVL7:
 109 0028 F3D1     		bne	.L9
 110              		.loc 1 82 0
 111 002a 2348     		ldr	r0, .L18+4
 112 002c FFF7FEFF 		bl	chPoolAlloc
ARM GAS  /tmp/ccAlBCQ4.s 			page 3


 113              	.LVL8:
 114 0030 D0F10101 		rsbs	r1, r0, #1
 115 0034 38BF     		it	cc
 116 0036 0021     		movcc	r1, #0
 117 0038 0220     		movs	r0, #2
 118 003a FFF7FEFF 		bl	_test_assert
 119              	.LVL9:
 120 003e 38BB     		cbnz	r0, .L5
 121 0040 1C4C     		ldr	r4, .L18
 122              	.LVL10:
 123              	.LBB4:
 124              	.LBB5:
 125              		.loc 1 86 0
 126 0042 1D48     		ldr	r0, .L18+4
 127              	.LBE5:
 128              	.LBE4:
 129              		.loc 1 82 0
 130 0044 2946     		mov	r1, r5
 131 0046 04F11005 		add	r5, r4, #16
 132              	.LBB8:
 133              	.LBB6:
 134              		.loc 1 86 0
 135 004a FFF7FEFF 		bl	chPoolFree
 136              	.LVL11:
 137              		.loc 1 85 0
 138 004e AC42     		cmp	r4, r5
 139 0050 06D0     		beq	.L11
 140              	.L16:
 141 0052 54F8041F 		ldr	r1, [r4, #4]!
 142              		.loc 1 86 0
 143 0056 1848     		ldr	r0, .L18+4
 144 0058 FFF7FEFF 		bl	chPoolFree
 145              	.LVL12:
 146              		.loc 1 85 0
 147 005c AC42     		cmp	r4, r5
 148 005e F8D1     		bne	.L16
 149              	.L11:
 150 0060 0524     		movs	r4, #5
 151              	.L14:
 152              	.LVL13:
 153              		.loc 1 90 0
 154 0062 1548     		ldr	r0, .L18+4
 155 0064 FFF7FEFF 		bl	chPoolAlloc
 156              	.LVL14:
 157 0068 011C     		adds	r1, r0, #0
 158 006a 18BF     		it	ne
 159 006c 0121     		movne	r1, #1
 160 006e 0320     		movs	r0, #3
 161 0070 FFF7FEFF 		bl	_test_assert
 162              	.LVL15:
 163 0074 60B9     		cbnz	r0, .L5
 164              		.loc 1 89 0
 165 0076 013C     		subs	r4, r4, #1
 166              	.LVL16:
 167 0078 F3D1     		bne	.L14
 168              		.loc 1 93 0
 169 007a 0F48     		ldr	r0, .L18+4
ARM GAS  /tmp/ccAlBCQ4.s 			page 4


 170 007c FFF7FEFF 		bl	chPoolAlloc
 171              	.LVL17:
 172 0080 D0F10101 		rsbs	r1, r0, #1
 173 0084 38BF     		it	cc
 174 0086 0021     		movcc	r1, #0
 175 0088 0420     		movs	r0, #4
 176 008a FFF7FEFF 		bl	_test_assert
 177              	.LVL18:
 178 008e 00B1     		cbz	r0, .L17
 179              	.LVL19:
 180              	.L5:
 181 0090 38BD     		pop	{r3, r4, r5, pc}
 182              	.LVL20:
 183              	.L17:
 184              		.loc 1 96 0
 185 0092 1021     		movs	r1, #16
 186 0094 0848     		ldr	r0, .L18+4
 187 0096 094A     		ldr	r2, .L18+8
 188 0098 FFF7FEFF 		bl	chPoolInit
 189              	.LVL21:
 190              		.loc 1 97 0
 191 009c 0648     		ldr	r0, .L18+4
 192 009e FFF7FEFF 		bl	chPoolAlloc
 193              	.LVL22:
 194 00a2 D0F10101 		rsbs	r1, r0, #1
 195 00a6 38BF     		it	cc
 196 00a8 0021     		movcc	r1, #0
 197 00aa 0520     		movs	r0, #5
 198              	.LBE6:
 199              	.LBE8:
 200              		.loc 1 98 0
 201 00ac BDE83840 		pop	{r3, r4, r5, lr}
 202              	.LVL23:
 203              	.LBB9:
 204              	.LBB7:
 205              		.loc 1 97 0
 206 00b0 FFF7FEBF 		b	_test_assert
 207              	.LVL24:
 208              	.L19:
 209              		.align	2
 210              	.L18:
 211 00b4 00000000 		.word	wa
 212 00b8 00000000 		.word	.LANCHOR0
 213 00bc 00000000 		.word	null_provider
 214              	.LBE7:
 215              	.LBE9:
 216              		.cfi_endproc
 217              	.LFE120:
 218              		.size	pools1_execute, .-pools1_execute
 219              		.global	patternpools
 220              		.global	testpools1
 221              		.section	.rodata.str1.4,"aMS",%progbits,1
 222              		.align	2
 223              	.LC0:
 224 0000 4D656D6F 		.ascii	"Memory Pools, queue/dequeue\000"
 224      72792050 
 224      6F6F6C73 
ARM GAS  /tmp/ccAlBCQ4.s 			page 5


 224      2C207175 
 224      6575652F 
 225              		.section	.rodata.patternpools,"a",%progbits
 226              		.align	2
 227              		.type	patternpools, %object
 228              		.size	patternpools, 8
 229              	patternpools:
 230 0000 00000000 		.word	testpools1
 231 0004 00000000 		.word	0
 232              		.section	.data.mp1,"aw",%progbits
 233              		.align	2
 234              		.set	.LANCHOR0,. + 0
 235              		.type	mp1, %object
 236              		.size	mp1, 12
 237              	mp1:
 238 0000 00000000 		.word	0
 239 0004 50010000 		.word	336
 240 0008 00000000 		.word	0
 241              		.section	.rodata.testpools1,"a",%progbits
 242              		.align	2
 243              		.type	testpools1, %object
 244              		.size	testpools1, 16
 245              	testpools1:
 246 0000 00000000 		.word	.LC0
 247 0004 00000000 		.word	pools1_setup
 248 0008 00000000 		.word	0
 249 000c 00000000 		.word	pools1_execute
 250              		.text
 251              	.Letext0:
 252              		.file 2 "/usr/lib/gcc/arm-none-eabi/4.8/include/stddef.h"
 253              		.file 3 "/usr/include/newlib/machine/_default_types.h"
 254              		.file 4 "/usr/include/newlib/stdint.h"
 255              		.file 5 "../../os/ports/GCC/ARMCMx/chtypes.h"
 256              		.file 6 "../../os/kernel/include/chmemcore.h"
 257              		.file 7 "../../os/kernel/include/chmempools.h"
 258              		.file 8 "../../test/test.h"
 259              		.file 9 "../../os/ports/common/ARMCMx/CMSIS/include/core_cm4.h"