ARM GAS  /tmp/ccAlBCQ4.s 			page 1


   1              		.syntax unified
   2              		.cpu cortex-m4
   3              		.fpu softvfp
   4              		.eabi_attribute 20, 1
   5              		.eabi_attribute 21, 1
   6              		.eabi_attribute 23, 3
   7              		.eabi_attribute 24, 1
   8              		.eabi_attribute 25, 1
   9              		.eabi_attribute 26, 1
  10              		.eabi_attribute 30, 2
  11              		.eabi_attribute 34, 1
  12              		.eabi_attribute 18, 4
  13              		.thumb
  14              		.file	"testpools.c"
  15              		.text
  16              	.Ltext0:
  17              		.cfi_sections	.debug_frame
  18              		.section	.text.null_provider,"ax",%progbits
  19              		.align	2
  20              		.p2align 4,,15
  21              		.thumb
  22              		.thumb_func
  23              		.type	null_provider, %function
  24              	null_provider:
  25              	.LFB118:
  26              		.file 1 "../../test/testpools.c"
  27              		.loc 1 60 0
  28              		.cfi_startproc
  29              		@ args = 0, pretend = 0, frame = 0
  30              		@ frame_needed = 0, uses_anonymous_args = 0
  31              		@ link register save eliminated.
  32              	.LVL0:
  33              		.loc 1 64 0
  34 0000 0020     		movs	r0, #0
  35              	.LVL1:
  36 0002 7047     		bx	lr
  37              		.cfi_endproc
  38              	.LFE118:
  39              		.size	null_provider, .-null_provider
  40 0004 AFF30080 		.section	.text.pools1_setup,"ax",%progbits
  40      AFF30080 
  40      AFF30080 
  41              		.align	2
  42              		.p2align 4,,15
  43              		.thumb
  44              		.thumb_func
  45              		.type	pools1_setup, %function
  46              	pools1_setup:
  47              	.LFB119:
  48              		.loc 1 66 0
  49              		.cfi_startproc
  50              		@ args = 0, pretend = 0, frame = 0
  51              		@ frame_needed = 0, uses_anonymous_args = 0
  52              		@ link register save eliminated.
  53              		.loc 1 68 0
  54 0000 0248     		ldr	r0, .L3
  55 0002 4FF4A871 		mov	r1, #336
ARM GAS  /tmp/ccAlBCQ4.s 			page 2


  56 0006 0022     		movs	r2, #0
  57 0008 FFF7FEBF 		b	chPoolInit
  58              	.LVL2:
  59              	.L4:
  60              		.align	2
  61              	.L3:
  62 000c 00000000 		.word	.LANCHOR0
  63              		.cfi_endproc
  64              	.LFE119:
  65              		.size	pools1_setup, .-pools1_setup
  66              		.section	.text.pools1_execute,"ax",%progbits
  67              		.align	2
  68              		.p2align 4,,15
  69              		.thumb
  70              		.thumb_func
  71              		.type	pools1_execute, %function
  72              	pools1_execute:
  73              	.LFB120:
  74              		.loc 1 71 0
  75              		.cfi_startproc
  76              		@ args = 0, pretend = 0, frame = 0
  77              		@ frame_needed = 0, uses_anonymous_args = 0
  78 0000 38B5     		push	{r3, r4, r5, lr}
  79              		.cfi_def_cfa_offset 16
  80              		.cfi_offset 3, -16
  81              		.cfi_offset 4, -12
  82              		.cfi_offset 5, -8
  83              		.cfi_offset 14, -4
  84              		.loc 1 75 0
  85 0002 2C4B     		ldr	r3, .L18
  86 0004 2C48     		ldr	r0, .L18+4
  87 0006 1D68     		ldr	r5, [r3]
  88 0008 0522     		movs	r2, #5
  89 000a 2946     		mov	r1, r5
  90 000c FFF7FEFF 		bl	chPoolLoadArray
  91              	.LVL3:
  92 0010 0524     		movs	r4, #5
  93              	.LVL4:
  94              	.L9:
  95              		.loc 1 79 0
  96 0012 2948     		ldr	r0, .L18+4
  97 0014 FFF7FEFF 		bl	chPoolAlloc
  98              	.LVL5:
  99 0018 011C     		adds	r1, r0, #0
 100 001a 18BF     		it	ne
 101 001c 0121     		movne	r1, #1
 102 001e 0120     		movs	r0, #1
 103 0020 FFF7FEFF 		bl	_test_assert
 104              	.LVL6:
 105 0024 A0BB     		cbnz	r0, .L5
 106              		.loc 1 78 0
 107 0026 013C     		subs	r4, r4, #1
 108              	.LVL7:
 109 0028 F3D1     		bne	.L9
 110              		.loc 1 82 0
 111 002a 2348     		ldr	r0, .L18+4
 112 002c FFF7FEFF 		bl	chPoolAlloc
ARM GAS  /tmp/ccAlBCQ4.s 			page 3


 113              	.LVL8:
 114 0030 D0F10101 		rsbs	r1, r0, #1
 115 0034 38BF     		it	cc
 116 0036 0021     		movcc	r1, #0
 117 0038 0220     		movs	r0, #2
 118 003a FFF7FEFF 		bl	_test_assert
 119              	.LVL9:
 120 003e 38BB     		cbnz	r0, .L5
 121 0040 1C4C     		ldr	r4, .L18
 122              	.LVL10:
 123              	.LBB4:
 124              	.LBB5:
 125              		.loc 1 86 0
 126 0042 1D48     		ldr	r0, .L18+4
 127              	.LBE5:
 128              	.LBE4:
 129              		.loc 1 82 0
 130 0044 2946     		mov	r1, r5
 131 0046 04F11005 		add	r5, r4, #16
 132              	.LBB8:
 133              	.LBB6:
 134              		.loc 1 86 0
 135 004a FFF7FEFF 		bl	chPoolFree
 136              	.LVL11:
 137              		.loc 1 85 0
 138 004e AC42     		cmp	r4, r5
 139 0050 06D0     		beq	.L11
 140              	.L16:
 141 0052 54F8041F 		ldr	r1, [r4, #4]!
 142              		.loc 1 86 0
 143 0056 1848     		ldr	r0, .L18+4
 144 0058 FFF7FEFF 		bl	chPoolFree
 145              	.LVL12:
 146              		.loc 1 85 0
 147 005c AC42     		cmp	r4, r5
 148 005e F8D1     		bne	.L16
 149              	.L11:
 150 0060 0524     		movs	r4, #5
 151              	.L14:
 152              	.LVL13:
 153              		.loc 1 90 0
 154 0062 1548     		ldr	r0, .L18+4
 155 0064 FFF7FEFF 		bl	chPoolAlloc
 156              	.LVL14:
 157 0068 011C     		adds	r1, r0, #0
 158 006a 18BF     		it	ne
 159 006c 0121     		movne	r1, #1
 160 006e 0320     		movs	r0, #3
 161 0070 FFF7FEFF 		bl	_test_assert
 162              	.LVL15:
 163 0074 60B9     		cbnz	r0, .L5
 164              		.loc 1 89 0
 165 0076 013C     		subs	r4, r4, #1
 166              	.LVL16:
 167 0078 F3D1     		bne	.L14
 168              		.loc 1 93 0
 169 007a 0F48     		ldr	r0, .L18+4
ARM GAS  /tmp/ccAlBCQ4.s 			page 4


 170 007c FFF7FEFF 		bl	chPoolAlloc
 171              	.LVL17:
 172 0080 D0F10101 		rsbs	r1, r0, #1
 173 0084 38BF     		it	cc
 174 0086 0021     		movcc	r1, #0
 175 0088 0420     		movs	r0, #4
 176 008a FFF7FEFF 		bl	_test_assert
 177              	.LVL18:
 178 008e 00B1     		cbz	r0, .L17
 179              	.LVL19:
 180              	.L5:
 181 0090 38BD     		pop	{r3, r4, r5, pc}
 182              	.LVL20:
 183              	.L17:
 184              		.loc 1 96 0
 185 0092 1021     		movs	r1, #16
 186 0094 0848     		ldr	r0, .L18+4
 187 0096 094A     		ldr	r2, .L18+8
 188 0098 FFF7FEFF 		bl	chPoolInit
 189              	.LVL21:
 190              		.loc 1 97 0
 191 009c 0648     		ldr	r0, .L18+4
 192 009e FFF7FEFF 		bl	chPoolAlloc
 193              	.LVL22:
 194 00a2 D0F10101 		rsbs	r1, r0, #1
 195 00a6 38BF     		it	cc
 196 00a8 0021     		movcc	r1, #0
 197 00aa 0520     		movs	r0, #5
 198              	.LBE6:
 199              	.LBE8:
 200              		.loc 1 98 0
 201 00ac BDE83840 		pop	{r3, r4, r5, lr}
 202              	.LVL23:
 203              	.LBB9:
 204              	.LBB7:
 205              		.loc 1 97 0
 206 00b0 FFF7FEBF 		b	_test_assert
 207              	.LVL24:
 208              	.L19:
 209              		.align	2
 210              	.L18:
 211 00b4 00000000 		.word	wa
 212 00b8 00000000 		.word	.LANCHOR0
 213 00bc 00000000 		.word	null_provider
 214              	.LBE7:
 215              	.LBE9:
 216              		.cfi_endproc
 217              	.LFE120:
 218              		.size	pools1_execute, .-pools1_execute
 219              		.global	patternpools
 220              		.global	testpools1
 221              		.section	.rodata.str1.4,"aMS",%progbits,1
 222              		.align	2
 223              	.LC0:
 224 0000 4D656D6F 		.ascii	"Memory Pools, queue/dequeue\000"
 224      72792050 
 224      6F6F6C73 
ARM GAS  /tmp/ccAlBCQ4.s 			page 5


 224      2C207175 
 224      6575652F 
 225              		.section	.rodata.patternpools,"a",%progbits
 226              		.align	2
 227              		.type	patternpools, %object
 228              		.size	patternpools, 8
 229              	patternpools:
 230 0000 00000000 		.word	testpools1
 231 0004 00000000 		.word	0
 232              		.section	.data.mp1,"aw",%progbits
 233              		.align	2
 234              		.set	.LANCHOR0,. + 0
 235              		.type	mp1, %object
 236              		.size	mp1, 12
 237              	mp1:
 238 0000 00000000 		.word	0
 239 0004 50010000 		.word	336
 240 0008 00000000 		.word	0
 241              		.section	.rodata.testpools1,"a",%progbits
 242              		.align	2
 243              		.type	testpools1, %object
 244              		.size	testpools1, 16
 245              	testpools1:
 246 0000 00000000 		.word	.LC0
 247 0004 00000000 		.word	pools1_setup
 248 0008 00000000 		.word	0
 249 000c 00000000 		.word	pools1_execute
 250              		.text
 251              	.Letext0:
 252              		.file 2 "/usr/lib/gcc/arm-none-eabi/4.8/include/stddef.h"
 253              		.file 3 "/usr/include/newlib/machine/_default_types.h"
 254              		.file 4 "/usr/include/newlib/stdint.h"
 255              		.file 5 "../../os/ports/GCC/ARMCMx/chtypes.h"
 256              		.file 6 "../../os/kernel/include/chmemcore.h"
 257              		.file 7 "../../os/kernel/include/chmempools.h"
 258              		.file 8 "../../test/test.h"
 259              		.file 9 "../../os/ports/common/ARMCMx/CMSIS/include/core_cm4.h"
 260              		.section	.debug_info,"",%progbits
 261              	.Ldebug_info0:
 262 0000 56040000 		.4byte	0x456
 263 0004 0400     		.2byte	0x4
 264 0006 00000000 		.4byte	.Ldebug_abbrev0
 265 000a 04       		.byte	0x4
 266 000b 01       		.uleb128 0x1
 267 000c 57010000 		.4byte	.LASF35
 268 0010 01       		.byte	0x1
 269 0011 3B020000 		.4byte	.LASF36
 270 0015 5E000000 		.4byte	.LASF37
 271 0019 20000000 		.4byte	.Ldebug_ranges0+0x20
 272 001d 00000000 		.4byte	0
 273 0021 00000000 		.4byte	.Ldebug_line0
 274 0025 02       		.uleb128 0x2
 275 0026 04       		.byte	0x4
 276 0027 05       		.byte	0x5
 277 0028 696E7400 		.ascii	"int\000"
 278 002c 03       		.uleb128 0x3
 279 002d 00000000 		.4byte	.LASF5
ARM GAS  /tmp/ccAlBCQ4.s 			page 6


 280 0031 02       		.byte	0x2
 281 0032 D4       		.byte	0xd4
 282 0033 37000000 		.4byte	0x37
 283 0037 04       		.uleb128 0x4
 284 0038 04       		.byte	0x4
 285 0039 07       		.byte	0x7
 286 003a 45010000 		.4byte	.LASF0
 287 003e 04       		.uleb128 0x4
 288 003f 01       		.byte	0x1
 289 0040 06       		.byte	0x6
 290 0041 9C020000 		.4byte	.LASF1
 291 0045 04       		.uleb128 0x4
 292 0046 01       		.byte	0x1
 293 0047 08       		.byte	0x8
 294 0048 BE000000 		.4byte	.LASF2
 295 004c 04       		.uleb128 0x4
 296 004d 02       		.byte	0x2
 297 004e 05       		.byte	0x5
 298 004f 7D020000 		.4byte	.LASF3
 299 0053 04       		.uleb128 0x4
 300 0054 02       		.byte	0x2
 301 0055 07       		.byte	0x7
 302 0056 ED000000 		.4byte	.LASF4
 303 005a 03       		.uleb128 0x3
 304 005b 1A000000 		.4byte	.LASF6
 305 005f 03       		.byte	0x3
 306 0060 3F       		.byte	0x3f
 307 0061 65000000 		.4byte	0x65
 308 0065 04       		.uleb128 0x4
 309 0066 04       		.byte	0x4
 310 0067 05       		.byte	0x5
 311 0068 93020000 		.4byte	.LASF7
 312 006c 04       		.uleb128 0x4
 313 006d 04       		.byte	0x4
 314 006e 07       		.byte	0x7
 315 006f CC000000 		.4byte	.LASF8
 316 0073 04       		.uleb128 0x4
 317 0074 08       		.byte	0x8
 318 0075 05       		.byte	0x5
 319 0076 2D020000 		.4byte	.LASF9
 320 007a 04       		.uleb128 0x4
 321 007b 08       		.byte	0x8
 322 007c 07       		.byte	0x7
 323 007d 9E000000 		.4byte	.LASF10
 324 0081 03       		.uleb128 0x3
 325 0082 0F020000 		.4byte	.LASF11
 326 0086 04       		.byte	0x4
 327 0087 41       		.byte	0x41
 328 0088 5A000000 		.4byte	0x5a
 329 008c 03       		.uleb128 0x3
 330 008d 3B000000 		.4byte	.LASF12
 331 0091 05       		.byte	0x5
 332 0092 2B       		.byte	0x2b
 333 0093 97000000 		.4byte	0x97
 334 0097 04       		.uleb128 0x4
 335 0098 01       		.byte	0x1
 336 0099 02       		.byte	0x2
ARM GAS  /tmp/ccAlBCQ4.s 			page 7


 337 009a B5020000 		.4byte	.LASF13
 338 009e 04       		.uleb128 0x4
 339 009f 04       		.byte	0x4
 340 00a0 07       		.byte	0x7
 341 00a1 17020000 		.4byte	.LASF14
 342 00a5 05       		.uleb128 0x5
 343 00a6 04       		.byte	0x4
 344 00a7 03       		.uleb128 0x3
 345 00a8 57020000 		.4byte	.LASF15
 346 00ac 06       		.byte	0x6
 347 00ad 2C       		.byte	0x2c
 348 00ae B2000000 		.4byte	0xb2
 349 00b2 06       		.uleb128 0x6
 350 00b3 04       		.byte	0x4
 351 00b4 B8000000 		.4byte	0xb8
 352 00b8 07       		.uleb128 0x7
 353 00b9 A5000000 		.4byte	0xa5
 354 00bd C7000000 		.4byte	0xc7
 355 00c1 08       		.uleb128 0x8
 356 00c2 2C000000 		.4byte	0x2c
 357 00c6 00       		.byte	0
 358 00c7 09       		.uleb128 0x9
 359 00c8 52000000 		.4byte	.LASF22
 360 00cc 04       		.byte	0x4
 361 00cd 07       		.byte	0x7
 362 00ce 2C       		.byte	0x2c
 363 00cf E0000000 		.4byte	0xe0
 364 00d3 0A       		.uleb128 0xa
 365 00d4 07020000 		.4byte	.LASF16
 366 00d8 07       		.byte	0x7
 367 00d9 2D       		.byte	0x2d
 368 00da E0000000 		.4byte	0xe0
 369 00de 00       		.byte	0
 370 00df 00       		.byte	0
 371 00e0 06       		.uleb128 0x6
 372 00e1 04       		.byte	0x4
 373 00e2 C7000000 		.4byte	0xc7
 374 00e6 0B       		.uleb128 0xb
 375 00e7 0C       		.byte	0xc
 376 00e8 07       		.byte	0x7
 377 00e9 34       		.byte	0x34
 378 00ea 13010000 		.4byte	0x113
 379 00ee 0A       		.uleb128 0xa
 380 00ef A8020000 		.4byte	.LASF17
 381 00f3 07       		.byte	0x7
 382 00f4 35       		.byte	0x35
 383 00f5 E0000000 		.4byte	0xe0
 384 00f9 00       		.byte	0
 385 00fa 0A       		.uleb128 0xa
 386 00fb 24000000 		.4byte	.LASF18
 387 00ff 07       		.byte	0x7
 388 0100 36       		.byte	0x36
 389 0101 2C000000 		.4byte	0x2c
 390 0105 04       		.byte	0x4
 391 0106 0A       		.uleb128 0xa
 392 0107 64020000 		.4byte	.LASF19
 393 010b 07       		.byte	0x7
ARM GAS  /tmp/ccAlBCQ4.s 			page 8


 394 010c 38       		.byte	0x38
 395 010d A7000000 		.4byte	0xa7
 396 0111 08       		.byte	0x8
 397 0112 00       		.byte	0
 398 0113 03       		.uleb128 0x3
 399 0114 2F010000 		.4byte	.LASF20
 400 0118 07       		.byte	0x7
 401 0119 3A       		.byte	0x3a
 402 011a E6000000 		.4byte	0xe6
 403 011e 06       		.uleb128 0x6
 404 011f 04       		.byte	0x4
 405 0120 24010000 		.4byte	0x124
 406 0124 0C       		.uleb128 0xc
 407 0125 29010000 		.4byte	0x129
 408 0129 04       		.uleb128 0x4
 409 012a 01       		.byte	0x1
 410 012b 08       		.byte	0x8
 411 012c 52010000 		.4byte	.LASF21
 412 0130 09       		.uleb128 0x9
 413 0131 B5000000 		.4byte	.LASF23
 414 0135 10       		.byte	0x10
 415 0136 08       		.byte	0x8
 416 0137 3B       		.byte	0x3b
 417 0138 6D010000 		.4byte	0x16d
 418 013c 0A       		.uleb128 0xa
 419 013d 52020000 		.4byte	.LASF24
 420 0141 08       		.byte	0x8
 421 0142 3C       		.byte	0x3c
 422 0143 1E010000 		.4byte	0x11e
 423 0147 00       		.byte	0
 424 0148 0A       		.uleb128 0xa
 425 0149 14000000 		.4byte	.LASF25
 426 014d 08       		.byte	0x8
 427 014e 3D       		.byte	0x3d
 428 014f 6E010000 		.4byte	0x16e
 429 0153 04       		.byte	0x4
 430 0154 0A       		.uleb128 0xa
 431 0155 00010000 		.4byte	.LASF26
 432 0159 08       		.byte	0x8
 433 015a 3E       		.byte	0x3e
 434 015b 6E010000 		.4byte	0x16e
 435 015f 08       		.byte	0x8
 436 0160 0A       		.uleb128 0xa
 437 0161 33000000 		.4byte	.LASF27
 438 0165 08       		.byte	0x8
 439 0166 3F       		.byte	0x3f
 440 0167 6E010000 		.4byte	0x16e
 441 016b 0C       		.byte	0xc
 442 016c 00       		.byte	0
 443 016d 0D       		.uleb128 0xd
 444 016e 06       		.uleb128 0x6
 445 016f 04       		.byte	0x4
 446 0170 6D010000 		.4byte	0x16d
 447 0174 0E       		.uleb128 0xe
 448 0175 DE000000 		.4byte	.LASF38
 449 0179 01       		.byte	0x1
 450 017a 47       		.byte	0x47
ARM GAS  /tmp/ccAlBCQ4.s 			page 9


 451 017b 01       		.byte	0x1
 452 017c 8A010000 		.4byte	0x18a
 453 0180 0F       		.uleb128 0xf
 454 0181 6900     		.ascii	"i\000"
 455 0183 01       		.byte	0x1
 456 0184 48       		.byte	0x48
 457 0185 25000000 		.4byte	0x25
 458 0189 00       		.byte	0
 459 018a 10       		.uleb128 0x10
 460 018b 09010000 		.4byte	.LASF39
 461 018f 01       		.byte	0x1
 462 0190 3C       		.byte	0x3c
 463 0191 A5000000 		.4byte	0xa5
 464 0195 00000000 		.4byte	.LFB118
 465 0199 04000000 		.4byte	.LFE118-.LFB118
 466 019d 01       		.uleb128 0x1
 467 019e 9C       		.byte	0x9c
 468 019f B3010000 		.4byte	0x1b3
 469 01a3 11       		.uleb128 0x11
 470 01a4 B0020000 		.4byte	.LASF40
 471 01a8 01       		.byte	0x1
 472 01a9 3C       		.byte	0x3c
 473 01aa 2C000000 		.4byte	0x2c
 474 01ae 00000000 		.4byte	.LLST0
 475 01b2 00       		.byte	0
 476 01b3 12       		.uleb128 0x12
 477 01b4 07000000 		.4byte	.LASF41
 478 01b8 01       		.byte	0x1
 479 01b9 42       		.byte	0x42
 480 01ba 00000000 		.4byte	.LFB119
 481 01be 10000000 		.4byte	.LFE119-.LFB119
 482 01c2 01       		.uleb128 0x1
 483 01c3 9C       		.byte	0x9c
 484 01c4 E8010000 		.4byte	0x1e8
 485 01c8 13       		.uleb128 0x13
 486 01c9 0C000000 		.4byte	.LVL2
 487 01cd DC030000 		.4byte	0x3dc
 488 01d1 14       		.uleb128 0x14
 489 01d2 01       		.uleb128 0x1
 490 01d3 52       		.byte	0x52
 491 01d4 01       		.uleb128 0x1
 492 01d5 30       		.byte	0x30
 493 01d6 14       		.uleb128 0x14
 494 01d7 01       		.uleb128 0x1
 495 01d8 51       		.byte	0x51
 496 01d9 03       		.uleb128 0x3
 497 01da 0A       		.byte	0xa
 498 01db 5001     		.2byte	0x150
 499 01dd 14       		.uleb128 0x14
 500 01de 01       		.uleb128 0x1
 501 01df 50       		.byte	0x50
 502 01e0 05       		.uleb128 0x5
 503 01e1 03       		.byte	0x3
 504 01e2 00000000 		.4byte	.LANCHOR0
 505 01e6 00       		.byte	0
 506 01e7 00       		.byte	0
 507 01e8 15       		.uleb128 0x15
ARM GAS  /tmp/ccAlBCQ4.s 			page 10


 508 01e9 74010000 		.4byte	0x174
 509 01ed 00000000 		.4byte	.LFB120
 510 01f1 C0000000 		.4byte	.LFE120-.LFB120
 511 01f5 01       		.uleb128 0x1
 512 01f6 9C       		.byte	0x9c
 513 01f7 5E030000 		.4byte	0x35e
 514 01fb 16       		.uleb128 0x16
 515 01fc 80010000 		.4byte	0x180
 516 0200 21000000 		.4byte	.LLST1
 517 0204 17       		.uleb128 0x17
 518 0205 00000000 		.4byte	.Ldebug_ranges0+0
 519 0209 EB020000 		.4byte	0x2eb
 520 020d 16       		.uleb128 0x16
 521 020e 80010000 		.4byte	0x180
 522 0212 62000000 		.4byte	.LLST2
 523 0216 18       		.uleb128 0x18
 524 0217 4E000000 		.4byte	.LVL11
 525 021b FD030000 		.4byte	0x3fd
 526 021f 34020000 		.4byte	0x234
 527 0223 14       		.uleb128 0x14
 528 0224 01       		.uleb128 0x1
 529 0225 51       		.byte	0x51
 530 0226 03       		.uleb128 0x3
 531 0227 74       		.byte	0x74
 532 0228 00       		.sleb128 0
 533 0229 06       		.byte	0x6
 534 022a 14       		.uleb128 0x14
 535 022b 01       		.uleb128 0x1
 536 022c 50       		.byte	0x50
 537 022d 05       		.uleb128 0x5
 538 022e 03       		.byte	0x3
 539 022f 00000000 		.4byte	.LANCHOR0
 540 0233 00       		.byte	0
 541 0234 18       		.uleb128 0x18
 542 0235 5C000000 		.4byte	.LVL12
 543 0239 FD030000 		.4byte	0x3fd
 544 023d 4B020000 		.4byte	0x24b
 545 0241 14       		.uleb128 0x14
 546 0242 01       		.uleb128 0x1
 547 0243 50       		.byte	0x50
 548 0244 05       		.uleb128 0x5
 549 0245 03       		.byte	0x3
 550 0246 00000000 		.4byte	.LANCHOR0
 551 024a 00       		.byte	0
 552 024b 18       		.uleb128 0x18
 553 024c 68000000 		.4byte	.LVL14
 554 0250 13040000 		.4byte	0x413
 555 0254 62020000 		.4byte	0x262
 556 0258 14       		.uleb128 0x14
 557 0259 01       		.uleb128 0x1
 558 025a 50       		.byte	0x50
 559 025b 05       		.uleb128 0x5
 560 025c 03       		.byte	0x3
 561 025d 00000000 		.4byte	.LANCHOR0
 562 0261 00       		.byte	0
 563 0262 18       		.uleb128 0x18
 564 0263 74000000 		.4byte	.LVL15
ARM GAS  /tmp/ccAlBCQ4.s 			page 11


 565 0267 28040000 		.4byte	0x428
 566 026b 75020000 		.4byte	0x275
 567 026f 14       		.uleb128 0x14
 568 0270 01       		.uleb128 0x1
 569 0271 50       		.byte	0x50
 570 0272 01       		.uleb128 0x1
 571 0273 33       		.byte	0x33
 572 0274 00       		.byte	0
 573 0275 18       		.uleb128 0x18
 574 0276 80000000 		.4byte	.LVL17
 575 027a 13040000 		.4byte	0x413
 576 027e 8C020000 		.4byte	0x28c
 577 0282 14       		.uleb128 0x14
 578 0283 01       		.uleb128 0x1
 579 0284 50       		.byte	0x50
 580 0285 05       		.uleb128 0x5
 581 0286 03       		.byte	0x3
 582 0287 00000000 		.4byte	.LANCHOR0
 583 028b 00       		.byte	0
 584 028c 18       		.uleb128 0x18
 585 028d 8E000000 		.4byte	.LVL18
 586 0291 28040000 		.4byte	0x428
 587 0295 9F020000 		.4byte	0x29f
 588 0299 14       		.uleb128 0x14
 589 029a 01       		.uleb128 0x1
 590 029b 50       		.byte	0x50
 591 029c 01       		.uleb128 0x1
 592 029d 34       		.byte	0x34
 593 029e 00       		.byte	0
 594 029f 18       		.uleb128 0x18
 595 02a0 9C000000 		.4byte	.LVL21
 596 02a4 DC030000 		.4byte	0x3dc
 597 02a8 C4020000 		.4byte	0x2c4
 598 02ac 14       		.uleb128 0x14
 599 02ad 01       		.uleb128 0x1
 600 02ae 52       		.byte	0x52
 601 02af 05       		.uleb128 0x5
 602 02b0 03       		.byte	0x3
 603 02b1 00000000 		.4byte	null_provider
 604 02b5 14       		.uleb128 0x14
 605 02b6 01       		.uleb128 0x1
 606 02b7 51       		.byte	0x51
 607 02b8 01       		.uleb128 0x1
 608 02b9 40       		.byte	0x40
 609 02ba 14       		.uleb128 0x14
 610 02bb 01       		.uleb128 0x1
 611 02bc 50       		.byte	0x50
 612 02bd 05       		.uleb128 0x5
 613 02be 03       		.byte	0x3
 614 02bf 00000000 		.4byte	.LANCHOR0
 615 02c3 00       		.byte	0
 616 02c4 18       		.uleb128 0x18
 617 02c5 A2000000 		.4byte	.LVL22
 618 02c9 13040000 		.4byte	0x413
 619 02cd DB020000 		.4byte	0x2db
 620 02d1 14       		.uleb128 0x14
 621 02d2 01       		.uleb128 0x1
ARM GAS  /tmp/ccAlBCQ4.s 			page 12


 622 02d3 50       		.byte	0x50
 623 02d4 05       		.uleb128 0x5
 624 02d5 03       		.byte	0x3
 625 02d6 00000000 		.4byte	.LANCHOR0
 626 02da 00       		.byte	0
 627 02db 13       		.uleb128 0x13
 628 02dc B4000000 		.4byte	.LVL24
 629 02e0 28040000 		.4byte	0x428
 630 02e4 14       		.uleb128 0x14
 631 02e5 01       		.uleb128 0x1
 632 02e6 50       		.byte	0x50
 633 02e7 01       		.uleb128 0x1
 634 02e8 35       		.byte	0x35
 635 02e9 00       		.byte	0
 636 02ea 00       		.byte	0
 637 02eb 18       		.uleb128 0x18
 638 02ec 10000000 		.4byte	.LVL3
 639 02f0 42040000 		.4byte	0x442
 640 02f4 0D030000 		.4byte	0x30d
 641 02f8 14       		.uleb128 0x14
 642 02f9 01       		.uleb128 0x1
 643 02fa 52       		.byte	0x52
 644 02fb 01       		.uleb128 0x1
 645 02fc 35       		.byte	0x35
 646 02fd 14       		.uleb128 0x14
 647 02fe 01       		.uleb128 0x1
 648 02ff 51       		.byte	0x51
 649 0300 02       		.uleb128 0x2
 650 0301 75       		.byte	0x75
 651 0302 00       		.sleb128 0
 652 0303 14       		.uleb128 0x14
 653 0304 01       		.uleb128 0x1
 654 0305 50       		.byte	0x50
 655 0306 05       		.uleb128 0x5
 656 0307 03       		.byte	0x3
 657 0308 00000000 		.4byte	.LANCHOR0
 658 030c 00       		.byte	0
 659 030d 18       		.uleb128 0x18
 660 030e 18000000 		.4byte	.LVL5
 661 0312 13040000 		.4byte	0x413
 662 0316 24030000 		.4byte	0x324
 663 031a 14       		.uleb128 0x14
 664 031b 01       		.uleb128 0x1
 665 031c 50       		.byte	0x50
 666 031d 05       		.uleb128 0x5
 667 031e 03       		.byte	0x3
 668 031f 00000000 		.4byte	.LANCHOR0
 669 0323 00       		.byte	0
 670 0324 18       		.uleb128 0x18
 671 0325 24000000 		.4byte	.LVL6
 672 0329 28040000 		.4byte	0x428
 673 032d 37030000 		.4byte	0x337
 674 0331 14       		.uleb128 0x14
 675 0332 01       		.uleb128 0x1
 676 0333 50       		.byte	0x50
 677 0334 01       		.uleb128 0x1
 678 0335 31       		.byte	0x31
ARM GAS  /tmp/ccAlBCQ4.s 			page 13


 679 0336 00       		.byte	0
 680 0337 18       		.uleb128 0x18
 681 0338 30000000 		.4byte	.LVL8
 682 033c 13040000 		.4byte	0x413
 683 0340 4E030000 		.4byte	0x34e
 684 0344 14       		.uleb128 0x14
 685 0345 01       		.uleb128 0x1
 686 0346 50       		.byte	0x50
 687 0347 05       		.uleb128 0x5
 688 0348 03       		.byte	0x3
 689 0349 00000000 		.4byte	.LANCHOR0
 690 034d 00       		.byte	0
 691 034e 19       		.uleb128 0x19
 692 034f 3E000000 		.4byte	.LVL9
 693 0353 28040000 		.4byte	0x428
 694 0357 14       		.uleb128 0x14
 695 0358 01       		.uleb128 0x1
 696 0359 50       		.byte	0x50
 697 035a 01       		.uleb128 0x1
 698 035b 32       		.byte	0x32
 699 035c 00       		.byte	0
 700 035d 00       		.byte	0
 701 035e 1A       		.uleb128 0x1a
 702 035f 6D703100 		.ascii	"mp1\000"
 703 0363 01       		.byte	0x1
 704 0364 31       		.byte	0x31
 705 0365 13010000 		.4byte	0x113
 706 0369 05       		.uleb128 0x5
 707 036a 03       		.byte	0x3
 708 036b 00000000 		.4byte	mp1
 709 036f 1B       		.uleb128 0x1b
 710 0370 17010000 		.4byte	.LASF28
 711 0374 09       		.byte	0x9
 712 0375 9806     		.2byte	0x698
 713 0377 7B030000 		.4byte	0x37b
 714 037b 1C       		.uleb128 0x1c
 715 037c 81000000 		.4byte	0x81
 716 0380 1D       		.uleb128 0x1d
 717 0381 A5000000 		.4byte	0xa5
 718 0385 8B030000 		.4byte	0x38b
 719 0389 1E       		.uleb128 0x1e
 720 038a 00       		.byte	0
 721 038b 1F       		.uleb128 0x1f
 722 038c 776100   		.ascii	"wa\000"
 723 038f 08       		.byte	0x8
 724 0390 A7       		.byte	0xa7
 725 0391 95030000 		.4byte	0x395
 726 0395 0C       		.uleb128 0xc
 727 0396 80030000 		.4byte	0x380
 728 039a 20       		.uleb128 0x20
 729 039b 3A010000 		.4byte	.LASF29
 730 039f 01       		.byte	0x1
 731 03a0 64       		.byte	0x64
 732 03a1 AB030000 		.4byte	0x3ab
 733 03a5 05       		.uleb128 0x5
 734 03a6 03       		.byte	0x3
 735 03a7 00000000 		.4byte	testpools1
ARM GAS  /tmp/ccAlBCQ4.s 			page 14


 736 03ab 0C       		.uleb128 0xc
 737 03ac 30010000 		.4byte	0x130
 738 03b0 1D       		.uleb128 0x1d
 739 03b1 C0030000 		.4byte	0x3c0
 740 03b5 C0030000 		.4byte	0x3c0
 741 03b9 21       		.uleb128 0x21
 742 03ba 9E000000 		.4byte	0x9e
 743 03be 01       		.byte	0x1
 744 03bf 00       		.byte	0
 745 03c0 06       		.uleb128 0x6
 746 03c1 04       		.byte	0x4
 747 03c2 AB030000 		.4byte	0x3ab
 748 03c6 20       		.uleb128 0x20
 749 03c7 20020000 		.4byte	.LASF30
 750 03cb 01       		.byte	0x1
 751 03cc 70       		.byte	0x70
 752 03cd D7030000 		.4byte	0x3d7
 753 03d1 05       		.uleb128 0x5
 754 03d2 03       		.byte	0x3
 755 03d3 00000000 		.4byte	patternpools
 756 03d7 0C       		.uleb128 0xc
 757 03d8 B0030000 		.4byte	0x3b0
 758 03dc 22       		.uleb128 0x22
 759 03dd BB020000 		.4byte	.LASF31
 760 03e1 07       		.byte	0x7
 761 03e2 7F       		.byte	0x7f
 762 03e3 F7030000 		.4byte	0x3f7
 763 03e7 08       		.uleb128 0x8
 764 03e8 F7030000 		.4byte	0x3f7
 765 03ec 08       		.uleb128 0x8
 766 03ed 2C000000 		.4byte	0x2c
 767 03f1 08       		.uleb128 0x8
 768 03f2 A7000000 		.4byte	0xa7
 769 03f6 00       		.byte	0
 770 03f7 06       		.uleb128 0x6
 771 03f8 04       		.byte	0x4
 772 03f9 13010000 		.4byte	0x113
 773 03fd 22       		.uleb128 0x22
 774 03fe 24010000 		.4byte	.LASF32
 775 0402 07       		.byte	0x7
 776 0403 84       		.byte	0x84
 777 0404 13040000 		.4byte	0x413
 778 0408 08       		.uleb128 0x8
 779 0409 F7030000 		.4byte	0x3f7
 780 040d 08       		.uleb128 0x8
 781 040e A5000000 		.4byte	0xa5
 782 0412 00       		.byte	0
 783 0413 23       		.uleb128 0x23
 784 0414 87020000 		.4byte	.LASF33
 785 0418 07       		.byte	0x7
 786 0419 82       		.byte	0x82
 787 041a A5000000 		.4byte	0xa5
 788 041e 28040000 		.4byte	0x428
 789 0422 08       		.uleb128 0x8
 790 0423 F7030000 		.4byte	0x3f7
 791 0427 00       		.byte	0
 792 0428 23       		.uleb128 0x23
ARM GAS  /tmp/ccAlBCQ4.s 			page 15


 793 0429 70020000 		.4byte	.LASF34
 794 042d 08       		.byte	0x8
 795 042e 58       		.byte	0x58
 796 042f 8C000000 		.4byte	0x8c
 797 0433 42040000 		.4byte	0x442
 798 0437 08       		.uleb128 0x8
 799 0438 37000000 		.4byte	0x37
 800 043c 08       		.uleb128 0x8
 801 043d 8C000000 		.4byte	0x8c
 802 0441 00       		.byte	0
 803 0442 24       		.uleb128 0x24
 804 0443 42000000 		.4byte	.LASF42
 805 0447 07       		.byte	0x7
 806 0448 80       		.byte	0x80
 807 0449 08       		.uleb128 0x8
 808 044a F7030000 		.4byte	0x3f7
 809 044e 08       		.uleb128 0x8
 810 044f A5000000 		.4byte	0xa5
 811 0453 08       		.uleb128 0x8
 812 0454 2C000000 		.4byte	0x2c
 813 0458 00       		.byte	0
 814 0459 00       		.byte	0
 815              		.section	.debug_abbrev,"",%progbits
 816              	.Ldebug_abbrev0:
 817 0000 01       		.uleb128 0x1
 818 0001 11       		.uleb128 0x11
 819 0002 01       		.byte	0x1
 820 0003 25       		.uleb128 0x25
 821 0004 0E       		.uleb128 0xe
 822 0005 13       		.uleb128 0x13
 823 0006 0B       		.uleb128 0xb
 824 0007 03       		.uleb128 0x3
 825 0008 0E       		.uleb128 0xe
 826 0009 1B       		.uleb128 0x1b
 827 000a 0E       		.uleb128 0xe
 828 000b 55       		.uleb128 0x55
 829 000c 17       		.uleb128 0x17
 830 000d 11       		.uleb128 0x11
 831 000e 01       		.uleb128 0x1
 832 000f 10       		.uleb128 0x10
 833 0010 17       		.uleb128 0x17
 834 0011 00       		.byte	0
 835 0012 00       		.byte	0
 836 0013 02       		.uleb128 0x2
 837 0014 24       		.uleb128 0x24
 838 0015 00       		.byte	0
 839 0016 0B       		.uleb128 0xb
 840 0017 0B       		.uleb128 0xb
 841 0018 3E       		.uleb128 0x3e
 842 0019 0B       		.uleb128 0xb
 843 001a 03       		.uleb128 0x3
 844 001b 08       		.uleb128 0x8
 845 001c 00       		.byte	0
 846 001d 00       		.byte	0
 847 001e 03       		.uleb128 0x3
 848 001f 16       		.uleb128 0x16
 849 0020 00       		.byte	0
ARM GAS  /tmp/ccAlBCQ4.s 			page 16


 850 0021 03       		.uleb128 0x3
 851 0022 0E       		.uleb128 0xe
 852 0023 3A       		.uleb128 0x3a
 853 0024 0B       		.uleb128 0xb
 854 0025 3B       		.uleb128 0x3b
 855 0026 0B       		.uleb128 0xb
 856 0027 49       		.uleb128 0x49
 857 0028 13       		.uleb128 0x13
 858 0029 00       		.byte	0
 859 002a 00       		.byte	0
 860 002b 04       		.uleb128 0x4
 861 002c 24       		.uleb128 0x24
 862 002d 00       		.byte	0
 863 002e 0B       		.uleb128 0xb
 864 002f 0B       		.uleb128 0xb
 865 0030 3E       		.uleb128 0x3e
 866 0031 0B       		.uleb128 0xb
 867 0032 03       		.uleb128 0x3
 868 0033 0E       		.uleb128 0xe
 869 0034 00       		.byte	0
 870 0035 00       		.byte	0
 871 0036 05       		.uleb128 0x5
 872 0037 0F       		.uleb128 0xf
 873 0038 00       		.byte	0
 874 0039 0B       		.uleb128 0xb
 875 003a 0B       		.uleb128 0xb
 876 003b 00       		.byte	0
 877 003c 00       		.byte	0
 878 003d 06       		.uleb128 0x6
 879 003e 0F       		.uleb128 0xf
 880 003f 00       		.byte	0
 881 0040 0B       		.uleb128 0xb
 882 0041 0B       		.uleb128 0xb
 883 0042 49       		.uleb128 0x49
 884 0043 13       		.uleb128 0x13
 885 0044 00       		.byte	0
 886 0045 00       		.byte	0
 887 0046 07       		.uleb128 0x7
 888 0047 15       		.uleb128 0x15
 889 0048 01       		.byte	0x1
 890 0049 27       		.uleb128 0x27
 891 004a 19       		.uleb128 0x19
 892 004b 49       		.uleb128 0x49
 893 004c 13       		.uleb128 0x13
 894 004d 01       		.uleb128 0x1
 895 004e 13       		.uleb128 0x13
 896 004f 00       		.byte	0
 897 0050 00       		.byte	0
 898 0051 08       		.uleb128 0x8
 899 0052 05       		.uleb128 0x5
 900 0053 00       		.byte	0
 901 0054 49       		.uleb128 0x49
 902 0055 13       		.uleb128 0x13
 903 0056 00       		.byte	0
 904 0057 00       		.byte	0
 905 0058 09       		.uleb128 0x9
 906 0059 13       		.uleb128 0x13
ARM GAS  /tmp/ccAlBCQ4.s 			page 17


 907 005a 01       		.byte	0x1
 908 005b 03       		.uleb128 0x3
 909 005c 0E       		.uleb128 0xe
 910 005d 0B       		.uleb128 0xb
 911 005e 0B       		.uleb128 0xb
 912 005f 3A       		.uleb128 0x3a
 913 0060 0B       		.uleb128 0xb
 914 0061 3B       		.uleb128 0x3b
 915 0062 0B       		.uleb128 0xb
 916 0063 01       		.uleb128 0x1
 917 0064 13       		.uleb128 0x13
 918 0065 00       		.byte	0
 919 0066 00       		.byte	0
 920 0067 0A       		.uleb128 0xa
 921 0068 0D       		.uleb128 0xd
 922 0069 00       		.byte	0
 923 006a 03       		.uleb128 0x3
 924 006b 0E       		.uleb128 0xe
 925 006c 3A       		.uleb128 0x3a
 926 006d 0B       		.uleb128 0xb
 927 006e 3B       		.uleb128 0x3b
 928 006f 0B       		.uleb128 0xb
 929 0070 49       		.uleb128 0x49
 930 0071 13       		.uleb128 0x13
 931 0072 38       		.uleb128 0x38
 932 0073 0B       		.uleb128 0xb
 933 0074 00       		.byte	0
 934 0075 00       		.byte	0
 935 0076 0B       		.uleb128 0xb
 936 0077 13       		.uleb128 0x13
 937 0078 01       		.byte	0x1
 938 0079 0B       		.uleb128 0xb
 939 007a 0B       		.uleb128 0xb
 940 007b 3A       		.uleb128 0x3a
 941 007c 0B       		.uleb128 0xb
 942 007d 3B       		.uleb128 0x3b
 943 007e 0B       		.uleb128 0xb
 944 007f 01       		.uleb128 0x1
 945 0080 13       		.uleb128 0x13
 946 0081 00       		.byte	0
 947 0082 00       		.byte	0
 948 0083 0C       		.uleb128 0xc
 949 0084 26       		.uleb128 0x26
 950 0085 00       		.byte	0
 951 0086 49       		.uleb128 0x49
 952 0087 13       		.uleb128 0x13
 953 0088 00       		.byte	0
 954 0089 00       		.byte	0
 955 008a 0D       		.uleb128 0xd
 956 008b 15       		.uleb128 0x15
 957 008c 00       		.byte	0
 958 008d 27       		.uleb128 0x27
 959 008e 19       		.uleb128 0x19
 960 008f 00       		.byte	0
 961 0090 00       		.byte	0
 962 0091 0E       		.uleb128 0xe
 963 0092 2E       		.uleb128 0x2e
ARM GAS  /tmp/ccAlBCQ4.s 			page 18


 964 0093 01       		.byte	0x1
 965 0094 03       		.uleb128 0x3
 966 0095 0E       		.uleb128 0xe
 967 0096 3A       		.uleb128 0x3a
 968 0097 0B       		.uleb128 0xb
 969 0098 3B       		.uleb128 0x3b
 970 0099 0B       		.uleb128 0xb
 971 009a 27       		.uleb128 0x27
 972 009b 19       		.uleb128 0x19
 973 009c 20       		.uleb128 0x20
 974 009d 0B       		.uleb128 0xb
 975 009e 01       		.uleb128 0x1
 976 009f 13       		.uleb128 0x13
 977 00a0 00       		.byte	0
 978 00a1 00       		.byte	0
 979 00a2 0F       		.uleb128 0xf
 980 00a3 34       		.uleb128 0x34
 981 00a4 00       		.byte	0
 982 00a5 03       		.uleb128 0x3
 983 00a6 08       		.uleb128 0x8
 984 00a7 3A       		.uleb128 0x3a
 985 00a8 0B       		.uleb128 0xb
 986 00a9 3B       		.uleb128 0x3b
 987 00aa 0B       		.uleb128 0xb
 988 00ab 49       		.uleb128 0x49
 989 00ac 13       		.uleb128 0x13
 990 00ad 00       		.byte	0
 991 00ae 00       		.byte	0
 992 00af 10       		.uleb128 0x10
 993 00b0 2E       		.uleb128 0x2e
 994 00b1 01       		.byte	0x1
 995 00b2 03       		.uleb128 0x3
 996 00b3 0E       		.uleb128 0xe
 997 00b4 3A       		.uleb128 0x3a
 998 00b5 0B       		.uleb128 0xb
 999 00b6 3B       		.uleb128 0x3b
 1000 00b7 0B       		.uleb128 0xb
 1001 00b8 27       		.uleb128 0x27
 1002 00b9 19       		.uleb128 0x19
 1003 00ba 49       		.uleb128 0x49
 1004 00bb 13       		.uleb128 0x13
 1005 00bc 11       		.uleb128 0x11
 1006 00bd 01       		.uleb128 0x1
 1007 00be 12       		.uleb128 0x12
 1008 00bf 06       		.uleb128 0x6
 1009 00c0 40       		.uleb128 0x40
 1010 00c1 18       		.uleb128 0x18
 1011 00c2 9742     		.uleb128 0x2117
 1012 00c4 19       		.uleb128 0x19
 1013 00c5 01       		.uleb128 0x1
 1014 00c6 13       		.uleb128 0x13
 1015 00c7 00       		.byte	0
 1016 00c8 00       		.byte	0
 1017 00c9 11       		.uleb128 0x11
 1018 00ca 05       		.uleb128 0x5
 1019 00cb 00       		.byte	0
 1020 00cc 03       		.uleb128 0x3
ARM GAS  /tmp/ccAlBCQ4.s 			page 19


 1021 00cd 0E       		.uleb128 0xe
 1022 00ce 3A       		.uleb128 0x3a
 1023 00cf 0B       		.uleb128 0xb
 1024 00d0 3B       		.uleb128 0x3b
 1025 00d1 0B       		.uleb128 0xb
 1026 00d2 49       		.uleb128 0x49
 1027 00d3 13       		.uleb128 0x13
 1028 00d4 02       		.uleb128 0x2
 1029 00d5 17       		.uleb128 0x17
 1030 00d6 00       		.byte	0
 1031 00d7 00       		.byte	0
 1032 00d8 12       		.uleb128 0x12
 1033 00d9 2E       		.uleb128 0x2e
 1034 00da 01       		.byte	0x1
 1035 00db 03       		.uleb128 0x3
 1036 00dc 0E       		.uleb128 0xe
 1037 00dd 3A       		.uleb128 0x3a
 1038 00de 0B       		.uleb128 0xb
 1039 00df 3B       		.uleb128 0x3b
 1040 00e0 0B       		.uleb128 0xb
 1041 00e1 27       		.uleb128 0x27
 1042 00e2 19       		.uleb128 0x19
 1043 00e3 11       		.uleb128 0x11
 1044 00e4 01       		.uleb128 0x1
 1045 00e5 12       		.uleb128 0x12
 1046 00e6 06       		.uleb128 0x6
 1047 00e7 40       		.uleb128 0x40
 1048 00e8 18       		.uleb128 0x18
 1049 00e9 9742     		.uleb128 0x2117
 1050 00eb 19       		.uleb128 0x19
 1051 00ec 01       		.uleb128 0x1
 1052 00ed 13       		.uleb128 0x13
 1053 00ee 00       		.byte	0
 1054 00ef 00       		.byte	0
 1055 00f0 13       		.uleb128 0x13
 1056 00f1 898201   		.uleb128 0x4109
 1057 00f4 01       		.byte	0x1
 1058 00f5 11       		.uleb128 0x11
 1059 00f6 01       		.uleb128 0x1
 1060 00f7 9542     		.uleb128 0x2115
 1061 00f9 19       		.uleb128 0x19
 1062 00fa 31       		.uleb128 0x31
 1063 00fb 13       		.uleb128 0x13
 1064 00fc 00       		.byte	0
 1065 00fd 00       		.byte	0
 1066 00fe 14       		.uleb128 0x14
 1067 00ff 8A8201   		.uleb128 0x410a
 1068 0102 00       		.byte	0
 1069 0103 02       		.uleb128 0x2
 1070 0104 18       		.uleb128 0x18
 1071 0105 9142     		.uleb128 0x2111
 1072 0107 18       		.uleb128 0x18
 1073 0108 00       		.byte	0
 1074 0109 00       		.byte	0
 1075 010a 15       		.uleb128 0x15
 1076 010b 2E       		.uleb128 0x2e
 1077 010c 01       		.byte	0x1
ARM GAS  /tmp/ccAlBCQ4.s 			page 20


 1078 010d 31       		.uleb128 0x31
 1079 010e 13       		.uleb128 0x13
 1080 010f 11       		.uleb128 0x11
 1081 0110 01       		.uleb128 0x1
 1082 0111 12       		.uleb128 0x12
 1083 0112 06       		.uleb128 0x6
 1084 0113 40       		.uleb128 0x40
 1085 0114 18       		.uleb128 0x18
 1086 0115 9742     		.uleb128 0x2117
 1087 0117 19       		.uleb128 0x19
 1088 0118 01       		.uleb128 0x1
 1089 0119 13       		.uleb128 0x13
 1090 011a 00       		.byte	0
 1091 011b 00       		.byte	0
 1092 011c 16       		.uleb128 0x16
 1093 011d 34       		.uleb128 0x34
 1094 011e 00       		.byte	0
 1095 011f 31       		.uleb128 0x31
 1096 0120 13       		.uleb128 0x13
 1097 0121 02       		.uleb128 0x2
 1098 0122 17       		.uleb128 0x17
 1099 0123 00       		.byte	0
 1100 0124 00       		.byte	0
 1101 0125 17       		.uleb128 0x17
 1102 0126 0B       		.uleb128 0xb
 1103 0127 01       		.byte	0x1
 1104 0128 55       		.uleb128 0x55
 1105 0129 17       		.uleb128 0x17
 1106 012a 01       		.uleb128 0x1
 1107 012b 13       		.uleb128 0x13
 1108 012c 00       		.byte	0
 1109 012d 00       		.byte	0
 1110 012e 18       		.uleb128 0x18
 1111 012f 898201   		.uleb128 0x4109
 1112 0132 01       		.byte	0x1
 1113 0133 11       		.uleb128 0x11
 1114 0134 01       		.uleb128 0x1
 1115 0135 31       		.uleb128 0x31
 1116 0136 13       		.uleb128 0x13
 1117 0137 01       		.uleb128 0x1
 1118 0138 13       		.uleb128 0x13
 1119 0139 00       		.byte	0
 1120 013a 00       		.byte	0
 1121 013b 19       		.uleb128 0x19
 1122 013c 898201   		.uleb128 0x4109
 1123 013f 01       		.byte	0x1
 1124 0140 11       		.uleb128 0x11
 1125 0141 01       		.uleb128 0x1
 1126 0142 31       		.uleb128 0x31
 1127 0143 13       		.uleb128 0x13
 1128 0144 00       		.byte	0
 1129 0145 00       		.byte	0
 1130 0146 1A       		.uleb128 0x1a
 1131 0147 34       		.uleb128 0x34
 1132 0148 00       		.byte	0
 1133 0149 03       		.uleb128 0x3
 1134 014a 08       		.uleb128 0x8
ARM GAS  /tmp/ccAlBCQ4.s 			page 21


 1135 014b 3A       		.uleb128 0x3a
 1136 014c 0B       		.uleb128 0xb
 1137 014d 3B       		.uleb128 0x3b
 1138 014e 0B       		.uleb128 0xb
 1139 014f 49       		.uleb128 0x49
 1140 0150 13       		.uleb128 0x13
 1141 0151 02       		.uleb128 0x2
 1142 0152 18       		.uleb128 0x18
 1143 0153 00       		.byte	0
 1144 0154 00       		.byte	0
 1145 0155 1B       		.uleb128 0x1b
 1146 0156 34       		.uleb128 0x34
 1147 0157 00       		.byte	0
 1148 0158 03       		.uleb128 0x3
 1149 0159 0E       		.uleb128 0xe
 1150 015a 3A       		.uleb128 0x3a
 1151 015b 0B       		.uleb128 0xb
 1152 015c 3B       		.uleb128 0x3b
 1153 015d 05       		.uleb128 0x5
 1154 015e 49       		.uleb128 0x49
 1155 015f 13       		.uleb128 0x13
 1156 0160 3F       		.uleb128 0x3f
 1157 0161 19       		.uleb128 0x19
 1158 0162 3C       		.uleb128 0x3c
 1159 0163 19       		.uleb128 0x19
 1160 0164 00       		.byte	0
 1161 0165 00       		.byte	0
 1162 0166 1C       		.uleb128 0x1c
 1163 0167 35       		.uleb128 0x35
 1164 0168 00       		.byte	0
 1165 0169 49       		.uleb128 0x49
 1166 016a 13       		.uleb128 0x13
 1167 016b 00       		.byte	0
 1168 016c 00       		.byte	0
 1169 016d 1D       		.uleb128 0x1d
 1170 016e 01       		.uleb128 0x1
 1171 016f 01       		.byte	0x1
 1172 0170 49       		.uleb128 0x49
 1173 0171 13       		.uleb128 0x13
 1174 0172 01       		.uleb128 0x1
 1175 0173 13       		.uleb128 0x13
 1176 0174 00       		.byte	0
 1177 0175 00       		.byte	0
 1178 0176 1E       		.uleb128 0x1e
 1179 0177 21       		.uleb128 0x21
 1180 0178 00       		.byte	0
 1181 0179 00       		.byte	0
 1182 017a 00       		.byte	0
 1183 017b 1F       		.uleb128 0x1f
 1184 017c 34       		.uleb128 0x34
 1185 017d 00       		.byte	0
 1186 017e 03       		.uleb128 0x3
 1187 017f 08       		.uleb128 0x8
 1188 0180 3A       		.uleb128 0x3a
 1189 0181 0B       		.uleb128 0xb
 1190 0182 3B       		.uleb128 0x3b
 1191 0183 0B       		.uleb128 0xb
ARM GAS  /tmp/ccAlBCQ4.s 			page 22


 1192 0184 49       		.uleb128 0x49
 1193 0185 13       		.uleb128 0x13
 1194 0186 3F       		.uleb128 0x3f
 1195 0187 19       		.uleb128 0x19
 1196 0188 3C       		.uleb128 0x3c
 1197 0189 19       		.uleb128 0x19
 1198 018a 00       		.byte	0
 1199 018b 00       		.byte	0
 1200 018c 20       		.uleb128 0x20
 1201 018d 34       		.uleb128 0x34
 1202 018e 00       		.byte	0
 1203 018f 03       		.uleb128 0x3
 1204 0190 0E       		.uleb128 0xe
 1205 0191 3A       		.uleb128 0x3a
 1206 0192 0B       		.uleb128 0xb
 1207 0193 3B       		.uleb128 0x3b
 1208 0194 0B       		.uleb128 0xb
 1209 0195 49       		.uleb128 0x49
 1210 0196 13       		.uleb128 0x13
 1211 0197 3F       		.uleb128 0x3f
 1212 0198 19       		.uleb128 0x19
 1213 0199 02       		.uleb128 0x2
 1214 019a 18       		.uleb128 0x18
 1215 019b 00       		.byte	0
 1216 019c 00       		.byte	0
 1217 019d 21       		.uleb128 0x21
 1218 019e 21       		.uleb128 0x21
 1219 019f 00       		.byte	0
 1220 01a0 49       		.uleb128 0x49
 1221 01a1 13       		.uleb128 0x13
 1222 01a2 2F       		.uleb128 0x2f
 1223 01a3 0B       		.uleb128 0xb
 1224 01a4 00       		.byte	0
 1225 01a5 00       		.byte	0
 1226 01a6 22       		.uleb128 0x22
 1227 01a7 2E       		.uleb128 0x2e
 1228 01a8 01       		.byte	0x1
 1229 01a9 3F       		.uleb128 0x3f
 1230 01aa 19       		.uleb128 0x19
 1231 01ab 03       		.uleb128 0x3
 1232 01ac 0E       		.uleb128 0xe
 1233 01ad 3A       		.uleb128 0x3a
 1234 01ae 0B       		.uleb128 0xb
 1235 01af 3B       		.uleb128 0x3b
 1236 01b0 0B       		.uleb128 0xb
 1237 01b1 27       		.uleb128 0x27
 1238 01b2 19       		.uleb128 0x19
 1239 01b3 3C       		.uleb128 0x3c
 1240 01b4 19       		.uleb128 0x19
 1241 01b5 01       		.uleb128 0x1
 1242 01b6 13       		.uleb128 0x13
 1243 01b7 00       		.byte	0
 1244 01b8 00       		.byte	0
 1245 01b9 23       		.uleb128 0x23
 1246 01ba 2E       		.uleb128 0x2e
 1247 01bb 01       		.byte	0x1
 1248 01bc 3F       		.uleb128 0x3f
ARM GAS  /tmp/ccAlBCQ4.s 			page 23


 1249 01bd 19       		.uleb128 0x19
 1250 01be 03       		.uleb128 0x3
 1251 01bf 0E       		.uleb128 0xe
 1252 01c0 3A       		.uleb128 0x3a
 1253 01c1 0B       		.uleb128 0xb
 1254 01c2 3B       		.uleb128 0x3b
 1255 01c3 0B       		.uleb128 0xb
 1256 01c4 27       		.uleb128 0x27
 1257 01c5 19       		.uleb128 0x19
 1258 01c6 49       		.uleb128 0x49
 1259 01c7 13       		.uleb128 0x13
 1260 01c8 3C       		.uleb128 0x3c
 1261 01c9 19       		.uleb128 0x19
 1262 01ca 01       		.uleb128 0x1
 1263 01cb 13       		.uleb128 0x13
 1264 01cc 00       		.byte	0
 1265 01cd 00       		.byte	0
 1266 01ce 24       		.uleb128 0x24
 1267 01cf 2E       		.uleb128 0x2e
 1268 01d0 01       		.byte	0x1
 1269 01d1 3F       		.uleb128 0x3f
 1270 01d2 19       		.uleb128 0x19
 1271 01d3 03       		.uleb128 0x3
 1272 01d4 0E       		.uleb128 0xe
 1273 01d5 3A       		.uleb128 0x3a
 1274 01d6 0B       		.uleb128 0xb
 1275 01d7 3B       		.uleb128 0x3b
 1276 01d8 0B       		.uleb128 0xb
 1277 01d9 27       		.uleb128 0x27
 1278 01da 19       		.uleb128 0x19
 1279 01db 3C       		.uleb128 0x3c
 1280 01dc 19       		.uleb128 0x19
 1281 01dd 00       		.byte	0
 1282 01de 00       		.byte	0
 1283 01df 00       		.byte	0
 1284              		.section	.debug_loc,"",%progbits
 1285              	.Ldebug_loc0:
 1286              	.LLST0:
 1287 0000 00000000 		.4byte	.LVL0
 1288 0004 02000000 		.4byte	.LVL1
 1289 0008 0100     		.2byte	0x1
 1290 000a 50       		.byte	0x50
 1291 000b 02000000 		.4byte	.LVL1
 1292 000f 04000000 		.4byte	.LFE118
 1293 0013 0400     		.2byte	0x4
 1294 0015 F3       		.byte	0xf3
 1295 0016 01       		.uleb128 0x1
 1296 0017 50       		.byte	0x50
 1297 0018 9F       		.byte	0x9f
 1298 0019 00000000 		.4byte	0
 1299 001d 00000000 		.4byte	0
 1300              	.LLST1:
 1301 0021 10000000 		.4byte	.LVL3
 1302 0025 12000000 		.4byte	.LVL4
 1303 0029 0200     		.2byte	0x2
 1304 002b 30       		.byte	0x30
 1305 002c 9F       		.byte	0x9f
ARM GAS  /tmp/ccAlBCQ4.s 			page 24


 1306 002d 12000000 		.4byte	.LVL4
 1307 0031 24000000 		.4byte	.LVL6
 1308 0035 0500     		.2byte	0x5
 1309 0037 35       		.byte	0x35
 1310 0038 74       		.byte	0x74
 1311 0039 00       		.sleb128 0
 1312 003a 1C       		.byte	0x1c
 1313 003b 9F       		.byte	0x9f
 1314 003c 24000000 		.4byte	.LVL6
 1315 0040 28000000 		.4byte	.LVL7
 1316 0044 0500     		.2byte	0x5
 1317 0046 36       		.byte	0x36
 1318 0047 74       		.byte	0x74
 1319 0048 00       		.sleb128 0
 1320 0049 1C       		.byte	0x1c
 1321 004a 9F       		.byte	0x9f
 1322 004b 28000000 		.4byte	.LVL7
 1323 004f 42000000 		.4byte	.LVL10
 1324 0053 0500     		.2byte	0x5
 1325 0055 35       		.byte	0x35
 1326 0056 74       		.byte	0x74
 1327 0057 00       		.sleb128 0
 1328 0058 1C       		.byte	0x1c
 1329 0059 9F       		.byte	0x9f
 1330 005a 00000000 		.4byte	0
 1331 005e 00000000 		.4byte	0
 1332              	.LLST2:
 1333 0062 62000000 		.4byte	.LVL13
 1334 0066 74000000 		.4byte	.LVL15
 1335 006a 0500     		.2byte	0x5
 1336 006c 35       		.byte	0x35
 1337 006d 74       		.byte	0x74
 1338 006e 00       		.sleb128 0
 1339 006f 1C       		.byte	0x1c
 1340 0070 9F       		.byte	0x9f
 1341 0071 74000000 		.4byte	.LVL15
 1342 0075 78000000 		.4byte	.LVL16
 1343 0079 0500     		.2byte	0x5
 1344 007b 36       		.byte	0x36
 1345 007c 74       		.byte	0x74
 1346 007d 00       		.sleb128 0
 1347 007e 1C       		.byte	0x1c
 1348 007f 9F       		.byte	0x9f
 1349 0080 78000000 		.4byte	.LVL16
 1350 0084 90000000 		.4byte	.LVL19
 1351 0088 0500     		.2byte	0x5
 1352 008a 35       		.byte	0x35
 1353 008b 74       		.byte	0x74
 1354 008c 00       		.sleb128 0
 1355 008d 1C       		.byte	0x1c
 1356 008e 9F       		.byte	0x9f
 1357 008f 92000000 		.4byte	.LVL20
 1358 0093 B0000000 		.4byte	.LVL23
 1359 0097 0500     		.2byte	0x5
 1360 0099 35       		.byte	0x35
 1361 009a 74       		.byte	0x74
 1362 009b 00       		.sleb128 0
ARM GAS  /tmp/ccAlBCQ4.s 			page 25


 1363 009c 1C       		.byte	0x1c
 1364 009d 9F       		.byte	0x9f
 1365 009e 00000000 		.4byte	0
 1366 00a2 00000000 		.4byte	0
 1367              		.section	.debug_aranges,"",%progbits
 1368 0000 2C000000 		.4byte	0x2c
 1369 0004 0200     		.2byte	0x2
 1370 0006 00000000 		.4byte	.Ldebug_info0
 1371 000a 04       		.byte	0x4
 1372 000b 00       		.byte	0
 1373 000c 0000     		.2byte	0
 1374 000e 0000     		.2byte	0
 1375 0010 00000000 		.4byte	.LFB118
 1376 0014 04000000 		.4byte	.LFE118-.LFB118
 1377 0018 00000000 		.4byte	.LFB119
 1378 001c 10000000 		.4byte	.LFE119-.LFB119
 1379 0020 00000000 		.4byte	.LFB120
 1380 0024 C0000000 		.4byte	.LFE120-.LFB120
 1381 0028 00000000 		.4byte	0
 1382 002c 00000000 		.4byte	0
 1383              		.section	.debug_ranges,"",%progbits
 1384              	.Ldebug_ranges0:
 1385 0000 42000000 		.4byte	.LBB5
 1386 0004 44000000 		.4byte	.LBE5
 1387 0008 4A000000 		.4byte	.LBB6
 1388 000c AC000000 		.4byte	.LBE6
 1389 0010 B0000000 		.4byte	.LBB7
 1390 0014 C0000000 		.4byte	.LBE7
 1391 0018 00000000 		.4byte	0
 1392 001c 00000000 		.4byte	0
 1393 0020 00000000 		.4byte	.LFB118
 1394 0024 04000000 		.4byte	.LFE118
 1395 0028 00000000 		.4byte	.LFB119
 1396 002c 10000000 		.4byte	.LFE119
 1397 0030 00000000 		.4byte	.LFB120
 1398 0034 C0000000 		.4byte	.LFE120
 1399 0038 00000000 		.4byte	0
 1400 003c 00000000 		.4byte	0
 1401              		.section	.debug_line,"",%progbits
 1402              	.Ldebug_line0:
 1403 0000 99010000 		.section	.debug_str,"MS",%progbits,1
 1403      02005101 
 1403      00000201 
 1403      FB0E0D00 
 1403      01010101 
 1404              	.LASF5:
 1405 0000 73697A65 		.ascii	"size_t\000"
 1405      5F7400
 1406              	.LASF41:
 1407 0007 706F6F6C 		.ascii	"pools1_setup\000"
 1407      73315F73 
 1407      65747570 
 1407      00
 1408              	.LASF25:
 1409 0014 73657475 		.ascii	"setup\000"
 1409      7000
 1410              	.LASF6:
ARM GAS  /tmp/ccAlBCQ4.s 			page 26


 1411 001a 5F5F696E 		.ascii	"__int32_t\000"
 1411      7433325F 
 1411      7400
 1412              	.LASF18:
 1413 0024 6D705F6F 		.ascii	"mp_object_size\000"
 1413      626A6563 
 1413      745F7369 
 1413      7A6500
 1414              	.LASF27:
 1415 0033 65786563 		.ascii	"execute\000"
 1415      75746500 
 1416              	.LASF12:
 1417 003b 626F6F6C 		.ascii	"bool_t\000"
 1417      5F7400
 1418              	.LASF42:
 1419 0042 6368506F 		.ascii	"chPoolLoadArray\000"
 1419      6F6C4C6F 
 1419      61644172 
 1419      72617900 
 1420              	.LASF22:
 1421 0052 706F6F6C 		.ascii	"pool_header\000"
 1421      5F686561 
 1421      64657200 
 1422              	.LASF37:
 1423 005e 2F706F6F 		.ascii	"/pool/prototipi/git/tiva-chibios2_6/demos/RT-TM4C12"
 1423      6C2F7072 
 1423      6F746F74 
 1423      6970692F 
 1423      6769742F 
 1424 0091 39342D4C 		.ascii	"94-LAUNCHPAD\000"
 1424      41554E43 
 1424      48504144 
 1424      00
 1425              	.LASF10:
 1426 009e 6C6F6E67 		.ascii	"long long unsigned int\000"
 1426      206C6F6E 
 1426      6720756E 
 1426      7369676E 
 1426      65642069 
 1427              	.LASF23:
 1428 00b5 74657374 		.ascii	"testcase\000"
 1428      63617365 
 1428      00
 1429              	.LASF2:
 1430 00be 756E7369 		.ascii	"unsigned char\000"
 1430      676E6564 
 1430      20636861 
 1430      7200
 1431              	.LASF8:
 1432 00cc 6C6F6E67 		.ascii	"long unsigned int\000"
 1432      20756E73 
 1432      69676E65 
 1432      6420696E 
 1432      7400
 1433              	.LASF38:
 1434 00de 706F6F6C 		.ascii	"pools1_execute\000"
 1434      73315F65 
ARM GAS  /tmp/ccAlBCQ4.s 			page 27


 1434      78656375 
 1434      746500
 1435              	.LASF4:
 1436 00ed 73686F72 		.ascii	"short unsigned int\000"
 1436      7420756E 
 1436      7369676E 
 1436      65642069 
 1436      6E7400
 1437              	.LASF26:
 1438 0100 74656172 		.ascii	"teardown\000"
 1438      646F776E 
 1438      00
 1439              	.LASF39:
 1440 0109 6E756C6C 		.ascii	"null_provider\000"
 1440      5F70726F 
 1440      76696465 
 1440      7200
 1441              	.LASF28:
 1442 0117 49544D5F 		.ascii	"ITM_RxBuffer\000"
 1442      52784275 
 1442      66666572 
 1442      00
 1443              	.LASF32:
 1444 0124 6368506F 		.ascii	"chPoolFree\000"
 1444      6F6C4672 
 1444      656500
 1445              	.LASF20:
 1446 012f 4D656D6F 		.ascii	"MemoryPool\000"
 1446      7279506F 
 1446      6F6C00
 1447              	.LASF29:
 1448 013a 74657374 		.ascii	"testpools1\000"
 1448      706F6F6C 
 1448      733100
 1449              	.LASF0:
 1450 0145 756E7369 		.ascii	"unsigned int\000"
 1450      676E6564 
 1450      20696E74 
 1450      00
 1451              	.LASF21:
 1452 0152 63686172 		.ascii	"char\000"
 1452      00
 1453              	.LASF35:
 1454 0157 474E5520 		.ascii	"GNU C 4.8.3 20140820 (release) -mcpu=cortex-m4 -mno"
 1454      4320342E 
 1454      382E3320 
 1454      32303134 
 1454      30383230 
 1455 018a 2D746875 		.ascii	"-thumb-interwork -mthumb -ggdb -O2 -fomit-frame-poi"
 1455      6D622D69 
 1455      6E746572 
 1455      776F726B 
 1455      202D6D74 
 1456 01bd 6E746572 		.ascii	"nter -falign-functions=16 -ffunction-sections -fdat"
 1456      202D6661 
 1456      6C69676E 
 1456      2D66756E 
ARM GAS  /tmp/ccAlBCQ4.s 			page 28


 1456      6374696F 
 1457 01f0 612D7365 		.ascii	"a-sections -fno-common\000"
 1457      6374696F 
 1457      6E73202D 
 1457      666E6F2D 
 1457      636F6D6D 
 1458              	.LASF16:
 1459 0207 70685F6E 		.ascii	"ph_next\000"
 1459      65787400 
 1460              	.LASF11:
 1461 020f 696E7433 		.ascii	"int32_t\000"
 1461      325F7400 
 1462              	.LASF14:
 1463 0217 73697A65 		.ascii	"sizetype\000"
 1463      74797065 
 1463      00
 1464              	.LASF30:
 1465 0220 70617474 		.ascii	"patternpools\000"
 1465      65726E70 
 1465      6F6F6C73 
 1465      00
 1466              	.LASF9:
 1467 022d 6C6F6E67 		.ascii	"long long int\000"
 1467      206C6F6E 
 1467      6720696E 
 1467      7400
 1468              	.LASF36:
 1469 023b 2E2E2F2E 		.ascii	"../../test/testpools.c\000"
 1469      2E2F7465 
 1469      73742F74 
 1469      65737470 
 1469      6F6F6C73 
 1470              	.LASF24:
 1471 0252 6E616D65 		.ascii	"name\000"
 1471      00
 1472              	.LASF15:
 1473 0257 6D656D67 		.ascii	"memgetfunc_t\000"
 1473      65746675 
 1473      6E635F74 
 1473      00
 1474              	.LASF19:
 1475 0264 6D705F70 		.ascii	"mp_provider\000"
 1475      726F7669 
 1475      64657200 
 1476              	.LASF34:
 1477 0270 5F746573 		.ascii	"_test_assert\000"
 1477      745F6173 
 1477      73657274 
 1477      00
 1478              	.LASF3:
 1479 027d 73686F72 		.ascii	"short int\000"
 1479      7420696E 
 1479      7400
 1480              	.LASF33:
 1481 0287 6368506F 		.ascii	"chPoolAlloc\000"
 1481      6F6C416C 
 1481      6C6F6300 
ARM GAS  /tmp/ccAlBCQ4.s 			page 29


 1482              	.LASF7:
 1483 0293 6C6F6E67 		.ascii	"long int\000"
 1483      20696E74 
 1483      00
 1484              	.LASF1:
 1485 029c 7369676E 		.ascii	"signed char\000"
 1485      65642063 
 1485      68617200 
 1486              	.LASF17:
 1487 02a8 6D705F6E 		.ascii	"mp_next\000"
 1487      65787400 
 1488              	.LASF40:
 1489 02b0 73697A65 		.ascii	"size\000"
 1489      00
 1490              	.LASF13:
 1491 02b5 5F426F6F 		.ascii	"_Bool\000"
 1491      6C00
 1492              	.LASF31:
 1493 02bb 6368506F 		.ascii	"chPoolInit\000"
 1493      6F6C496E 
 1493      697400
 1494              		.ident	"GCC: (4.8.3-9+11) 4.8.3 20140820 (release)"
ARM GAS  /tmp/ccAlBCQ4.s 			page 30


DEFINED SYMBOLS
                            *ABS*:0000000000000000 testpools.c
     /tmp/ccAlBCQ4.s:19     .text.null_provider:0000000000000000 $t
     /tmp/ccAlBCQ4.s:24     .text.null_provider:0000000000000000 null_provider
     /tmp/ccAlBCQ4.s:41     .text.pools1_setup:0000000000000000 $t
     /tmp/ccAlBCQ4.s:46     .text.pools1_setup:0000000000000000 pools1_setup
     /tmp/ccAlBCQ4.s:62     .text.pools1_setup:000000000000000c $d
     /tmp/ccAlBCQ4.s:67     .text.pools1_execute:0000000000000000 $t
     /tmp/ccAlBCQ4.s:72     .text.pools1_execute:0000000000000000 pools1_execute
     /tmp/ccAlBCQ4.s:211    .text.pools1_execute:00000000000000b4 $d
     /tmp/ccAlBCQ4.s:229    .rodata.patternpools:0000000000000000 patternpools
     /tmp/ccAlBCQ4.s:245    .rodata.testpools1:0000000000000000 testpools1
     /tmp/ccAlBCQ4.s:222    .rodata.str1.4:0000000000000000 $d
     /tmp/ccAlBCQ4.s:226    .rodata.patternpools:0000000000000000 $d
     /tmp/ccAlBCQ4.s:233    .data.mp1:0000000000000000 $d
     /tmp/ccAlBCQ4.s:237    .data.mp1:0000000000000000 mp1
     /tmp/ccAlBCQ4.s:242    .rodata.testpools1:0000000000000000 $d
                     .debug_frame:0000000000000010 $d

UNDEFINED SYMBOLS
chPoolInit
chPoolLoadArray
chPoolAlloc
_test_assert
chPoolFree
wa
